
Tetris4.elf:     file format elf32-avr

Sections:
Idx Name          Size      VMA       LMA       File off  Algn
  0 .data         00000000  00800100  00800100  00004196  2**0
                  CONTENTS, ALLOC, LOAD, DATA
  1 .text         00004122  00000000  00000000  00000074  2**1
                  CONTENTS, ALLOC, LOAD, READONLY, CODE
  2 .bss          00000777  00800100  00800100  00004196  2**0
                  ALLOC
  3 .comment      00000030  00000000  00000000  00004196  2**0
                  CONTENTS, READONLY
  4 .note.gnu.avr.deviceinfo 00000040  00000000  00000000  000041c8  2**2
                  CONTENTS, READONLY
  5 .debug_aranges 00000208  00000000  00000000  00004208  2**0
                  CONTENTS, READONLY, DEBUGGING
  6 .debug_info   00001e91  00000000  00000000  00004410  2**0
                  CONTENTS, READONLY, DEBUGGING
  7 .debug_abbrev 00000b8a  00000000  00000000  000062a1  2**0
                  CONTENTS, READONLY, DEBUGGING
  8 .debug_line   00001eb2  00000000  00000000  00006e2b  2**0
                  CONTENTS, READONLY, DEBUGGING
  9 .debug_frame  00000908  00000000  00000000  00008ce0  2**2
                  CONTENTS, READONLY, DEBUGGING
 10 .debug_str    00000895  00000000  00000000  000095e8  2**0
                  CONTENTS, READONLY, DEBUGGING
 11 .debug_loc    0000136f  00000000  00000000  00009e7d  2**0
                  CONTENTS, READONLY, DEBUGGING
 12 .debug_ranges 000001e8  00000000  00000000  0000b1ec  2**0
                  CONTENTS, READONLY, DEBUGGING

Disassembly of section .text:

00000000 <__vectors>:
       0:	25 c1       	rjmp	.+586    	; 0x24c <__ctors_end>
       2:	00 00       	nop
       4:	42 c1       	rjmp	.+644    	; 0x28a <__bad_interrupt>
       6:	00 00       	nop
       8:	40 c1       	rjmp	.+640    	; 0x28a <__bad_interrupt>
       a:	00 00       	nop
       c:	3e c1       	rjmp	.+636    	; 0x28a <__bad_interrupt>
       e:	00 00       	nop
      10:	0c 94 e3 10 	jmp	0x21c6	; 0x21c6 <__vector_4>
      14:	01 c4       	rjmp	.+2050   	; 0x818 <__vector_5>
      16:	00 00       	nop
      18:	f9 c7       	rjmp	.+4082   	; 0x100c <__vector_6>
      1a:	00 00       	nop
      1c:	0c 94 f0 0b 	jmp	0x17e0	; 0x17e0 <__vector_7>
      20:	0c 94 33 0d 	jmp	0x1a66	; 0x1a66 <__vector_8>
      24:	32 c1       	rjmp	.+612    	; 0x28a <__bad_interrupt>
      26:	00 00       	nop
      28:	30 c1       	rjmp	.+608    	; 0x28a <__bad_interrupt>
      2a:	00 00       	nop
      2c:	2e c1       	rjmp	.+604    	; 0x28a <__bad_interrupt>
      2e:	00 00       	nop
      30:	0c 94 f6 10 	jmp	0x21ec	; 0x21ec <__vector_12>
      34:	2a c1       	rjmp	.+596    	; 0x28a <__bad_interrupt>
      36:	00 00       	nop
      38:	28 c1       	rjmp	.+592    	; 0x28a <__bad_interrupt>
      3a:	00 00       	nop
      3c:	26 c1       	rjmp	.+588    	; 0x28a <__bad_interrupt>
      3e:	00 00       	nop
      40:	24 c1       	rjmp	.+584    	; 0x28a <__bad_interrupt>
      42:	00 00       	nop
      44:	22 c1       	rjmp	.+580    	; 0x28a <__bad_interrupt>
      46:	00 00       	nop
      48:	20 c1       	rjmp	.+576    	; 0x28a <__bad_interrupt>
      4a:	00 00       	nop
      4c:	1e c1       	rjmp	.+572    	; 0x28a <__bad_interrupt>
      4e:	00 00       	nop
      50:	1c c1       	rjmp	.+568    	; 0x28a <__bad_interrupt>
      52:	00 00       	nop
      54:	1a c1       	rjmp	.+564    	; 0x28a <__bad_interrupt>
      56:	00 00       	nop
      58:	18 c1       	rjmp	.+560    	; 0x28a <__bad_interrupt>
      5a:	00 00       	nop
      5c:	16 c1       	rjmp	.+556    	; 0x28a <__bad_interrupt>
      5e:	00 00       	nop
      60:	14 c1       	rjmp	.+552    	; 0x28a <__bad_interrupt>
      62:	00 00       	nop
      64:	12 c1       	rjmp	.+548    	; 0x28a <__bad_interrupt>
      66:	00 00       	nop
      68:	10 c1       	rjmp	.+544    	; 0x28a <__bad_interrupt>
      6a:	00 00       	nop
      6c:	0e c1       	rjmp	.+540    	; 0x28a <__bad_interrupt>
      6e:	00 00       	nop
      70:	0c c1       	rjmp	.+536    	; 0x28a <__bad_interrupt>
      72:	00 00       	nop
      74:	0a c1       	rjmp	.+532    	; 0x28a <__bad_interrupt>
      76:	00 00       	nop
      78:	08 c1       	rjmp	.+528    	; 0x28a <__bad_interrupt>
      7a:	00 00       	nop
      7c:	06 c1       	rjmp	.+524    	; 0x28a <__bad_interrupt>
      7e:	00 00       	nop
      80:	04 c1       	rjmp	.+520    	; 0x28a <__bad_interrupt>
      82:	00 00       	nop
      84:	02 c1       	rjmp	.+516    	; 0x28a <__bad_interrupt>
      86:	00 00       	nop
      88:	00 c1       	rjmp	.+512    	; 0x28a <__bad_interrupt>
	...

0000008c <__trampolines_end>:
      8c:	00 01       	movw	r0, r0
      8e:	01 00       	.word	0x0001	; ????
      90:	00 01       	movw	r0, r0
      92:	01 00       	.word	0x0001	; ????
	...
      9c:	00 01       	movw	r0, r0
      9e:	01 00       	.word	0x0001	; ????
      a0:	00 01       	movw	r0, r0
      a2:	01 00       	.word	0x0001	; ????
	...
      ac:	00 01       	movw	r0, r0
      ae:	01 00       	.word	0x0001	; ????
      b0:	00 01       	movw	r0, r0
      b2:	01 00       	.word	0x0001	; ????
	...
      bc:	00 01       	movw	r0, r0
      be:	01 00       	.word	0x0001	; ????
      c0:	00 01       	movw	r0, r0
      c2:	01 00       	.word	0x0001	; ????
	...
      cc:	00 01       	movw	r0, r0
      ce:	00 00       	nop
      d0:	01 01       	movw	r0, r2
      d2:	01 00       	.word	0x0001	; ????
	...
      dc:	00 01       	movw	r0, r0
      de:	00 00       	nop
      e0:	00 01       	movw	r0, r0
      e2:	01 00       	.word	0x0001	; ????
      e4:	00 01       	movw	r0, r0
	...
      ee:	00 00       	nop
      f0:	01 01       	movw	r0, r2
      f2:	01 00       	.word	0x0001	; ????
      f4:	00 01       	movw	r0, r0
      f6:	00 00       	nop
      f8:	00 00       	nop
      fa:	00 00       	nop
      fc:	00 01       	movw	r0, r0
      fe:	00 00       	nop
     100:	01 01       	movw	r0, r2
     102:	00 00       	nop
     104:	00 01       	movw	r0, r0
     106:	00 00       	nop
     108:	00 00       	nop
     10a:	00 00       	nop
     10c:	01 00       	.word	0x0001	; ????
     10e:	00 00       	nop
     110:	01 01       	movw	r0, r2
     112:	01 00       	.word	0x0001	; ????
	...
     11c:	01 01       	movw	r0, r2
     11e:	00 00       	nop
     120:	01 00       	.word	0x0001	; ????
     122:	00 00       	nop
     124:	01 00       	.word	0x0001	; ????
     126:	00 00       	nop
     128:	00 00       	nop
     12a:	00 00       	nop
     12c:	01 01       	movw	r0, r2
     12e:	01 00       	.word	0x0001	; ????
     130:	00 00       	nop
     132:	01 00       	.word	0x0001	; ????
	...
     13c:	00 01       	movw	r0, r0
     13e:	00 00       	nop
     140:	00 01       	movw	r0, r0
     142:	00 00       	nop
     144:	01 01       	movw	r0, r2
	...
     14e:	01 00       	.word	0x0001	; ????
     150:	01 01       	movw	r0, r2
     152:	01 00       	.word	0x0001	; ????
	...
     15c:	01 00       	.word	0x0001	; ????
     15e:	00 00       	nop
     160:	01 00       	.word	0x0001	; ????
     162:	00 00       	nop
     164:	01 01       	movw	r0, r2
     166:	00 00       	nop
     168:	00 00       	nop
     16a:	00 00       	nop
     16c:	01 01       	movw	r0, r2
     16e:	01 00       	.word	0x0001	; ????
     170:	01 00       	.word	0x0001	; ????
	...
     17a:	00 00       	nop
     17c:	01 01       	movw	r0, r2
     17e:	00 00       	nop
     180:	00 01       	movw	r0, r0
     182:	00 00       	nop
     184:	00 01       	movw	r0, r0
     186:	00 00       	nop
     188:	00 00       	nop
     18a:	00 00       	nop
     18c:	01 01       	movw	r0, r2
     18e:	00 00       	nop
     190:	00 01       	movw	r0, r0
     192:	01 00       	.word	0x0001	; ????
	...
     19c:	00 01       	movw	r0, r0
     19e:	00 00       	nop
     1a0:	01 01       	movw	r0, r2
     1a2:	00 00       	nop
     1a4:	01 00       	.word	0x0001	; ????
     1a6:	00 00       	nop
     1a8:	00 00       	nop
     1aa:	00 00       	nop
     1ac:	01 01       	movw	r0, r2
     1ae:	00 00       	nop
     1b0:	00 01       	movw	r0, r0
     1b2:	01 00       	.word	0x0001	; ????
	...
     1bc:	00 01       	movw	r0, r0
     1be:	00 00       	nop
     1c0:	01 01       	movw	r0, r2
     1c2:	00 00       	nop
     1c4:	01 00       	.word	0x0001	; ????
     1c6:	00 00       	nop
     1c8:	00 00       	nop
     1ca:	00 00       	nop
     1cc:	00 01       	movw	r0, r0
     1ce:	01 00       	.word	0x0001	; ????
     1d0:	01 01       	movw	r0, r2
	...
     1da:	00 00       	nop
     1dc:	01 00       	.word	0x0001	; ????
     1de:	00 00       	nop
     1e0:	01 01       	movw	r0, r2
     1e2:	00 00       	nop
     1e4:	00 01       	movw	r0, r0
     1e6:	00 00       	nop
     1e8:	00 00       	nop
     1ea:	00 00       	nop
     1ec:	00 01       	movw	r0, r0
     1ee:	01 00       	.word	0x0001	; ????
     1f0:	01 01       	movw	r0, r2
	...
     1fa:	00 00       	nop
     1fc:	01 00       	.word	0x0001	; ????
     1fe:	00 00       	nop
     200:	01 01       	movw	r0, r2
     202:	00 00       	nop
     204:	00 01       	movw	r0, r0
     206:	00 00       	nop
     208:	00 00       	nop
     20a:	00 00       	nop
     20c:	01 01       	movw	r0, r2
     20e:	01 01       	movw	r0, r2
	...
     21c:	00 01       	movw	r0, r0
     21e:	00 00       	nop
     220:	00 01       	movw	r0, r0
     222:	00 00       	nop
     224:	00 01       	movw	r0, r0
     226:	00 00       	nop
     228:	00 01       	movw	r0, r0
     22a:	00 00       	nop
     22c:	01 01       	movw	r0, r2
     22e:	01 01       	movw	r0, r2
	...
     23c:	00 01       	movw	r0, r0
     23e:	00 00       	nop
     240:	00 01       	movw	r0, r0
     242:	00 00       	nop
     244:	00 01       	movw	r0, r0
     246:	00 00       	nop
     248:	00 01       	movw	r0, r0
	...

0000024c <__ctors_end>:
     24c:	11 24       	eor	r1, r1
     24e:	1f be       	out	0x3f, r1	; 63
     250:	cf ef       	ldi	r28, 0xFF	; 255
     252:	d0 e1       	ldi	r29, 0x10	; 16
     254:	de bf       	out	0x3e, r29	; 62
     256:	cd bf       	out	0x3d, r28	; 61

00000258 <__do_copy_data>:
     258:	11 e0       	ldi	r17, 0x01	; 1
     25a:	a0 e0       	ldi	r26, 0x00	; 0
     25c:	b1 e0       	ldi	r27, 0x01	; 1
     25e:	e2 e2       	ldi	r30, 0x22	; 34
     260:	f1 e4       	ldi	r31, 0x41	; 65
     262:	00 e0       	ldi	r16, 0x00	; 0
     264:	0b bf       	out	0x3b, r16	; 59
     266:	02 c0       	rjmp	.+4      	; 0x26c <__do_copy_data+0x14>
     268:	07 90       	elpm	r0, Z+
     26a:	0d 92       	st	X+, r0
     26c:	a0 30       	cpi	r26, 0x00	; 0
     26e:	b1 07       	cpc	r27, r17
     270:	d9 f7       	brne	.-10     	; 0x268 <__do_copy_data+0x10>

00000272 <__do_clear_bss>:
     272:	28 e0       	ldi	r18, 0x08	; 8
     274:	a0 e0       	ldi	r26, 0x00	; 0
     276:	b1 e0       	ldi	r27, 0x01	; 1
     278:	01 c0       	rjmp	.+2      	; 0x27c <.do_clear_bss_start>

0000027a <.do_clear_bss_loop>:
     27a:	1d 92       	st	X+, r1

0000027c <.do_clear_bss_start>:
     27c:	a7 37       	cpi	r26, 0x77	; 119
     27e:	b2 07       	cpc	r27, r18
     280:	e1 f7       	brne	.-8      	; 0x27a <.do_clear_bss_loop>
     282:	0e 94 c4 1d 	call	0x3b88	; 0x3b88 <main>
     286:	0c 94 8f 20 	jmp	0x411e	; 0x411e <_exit>

0000028a <__bad_interrupt>:
     28a:	ba ce       	rjmp	.-652    	; 0x0 <__vectors>

0000028c <twiStart>:
        return -1;

    twi_stop();

    return 0;
}
     28c:	cf 93       	push	r28
     28e:	df 93       	push	r29
     290:	cd b7       	in	r28, 0x3d	; 61
     292:	de b7       	in	r29, 0x3e	; 62
     294:	80 e7       	ldi	r24, 0x70	; 112
     296:	90 e0       	ldi	r25, 0x00	; 0
     298:	24 ea       	ldi	r18, 0xA4	; 164
     29a:	fc 01       	movw	r30, r24
     29c:	24 83       	std	Z+4, r18	; 0x04
     29e:	00 00       	nop
     2a0:	df 91       	pop	r29
     2a2:	cf 91       	pop	r28
     2a4:	08 95       	ret

000002a6 <twiStop>:
     2a6:	cf 93       	push	r28
     2a8:	df 93       	push	r29
     2aa:	cd b7       	in	r28, 0x3d	; 61
     2ac:	de b7       	in	r29, 0x3e	; 62
     2ae:	80 e7       	ldi	r24, 0x70	; 112
     2b0:	90 e0       	ldi	r25, 0x00	; 0
     2b2:	24 e9       	ldi	r18, 0x94	; 148
     2b4:	fc 01       	movw	r30, r24
     2b6:	24 83       	std	Z+4, r18	; 0x04
     2b8:	00 00       	nop
     2ba:	df 91       	pop	r29
     2bc:	cf 91       	pop	r28
     2be:	08 95       	ret

000002c0 <twiWaitAck>:
     2c0:	cf 93       	push	r28
     2c2:	df 93       	push	r29
     2c4:	cd b7       	in	r28, 0x3d	; 61
     2c6:	de b7       	in	r29, 0x3e	; 62
     2c8:	00 00       	nop
     2ca:	80 e7       	ldi	r24, 0x70	; 112
     2cc:	90 e0       	ldi	r25, 0x00	; 0
     2ce:	fc 01       	movw	r30, r24
     2d0:	84 81       	ldd	r24, Z+4	; 0x04
     2d2:	88 23       	and	r24, r24
     2d4:	d4 f7       	brge	.-12     	; 0x2ca <twiWaitAck+0xa>
     2d6:	00 00       	nop
     2d8:	df 91       	pop	r29
     2da:	cf 91       	pop	r28
     2dc:	08 95       	ret

000002de <twiChkAck>:
     2de:	cf 93       	push	r28
     2e0:	df 93       	push	r29
     2e2:	cd b7       	in	r28, 0x3d	; 61
     2e4:	de b7       	in	r29, 0x3e	; 62
     2e6:	80 e7       	ldi	r24, 0x70	; 112
     2e8:	90 e0       	ldi	r25, 0x00	; 0
     2ea:	fc 01       	movw	r30, r24
     2ec:	81 81       	ldd	r24, Z+1	; 0x01
     2ee:	88 7f       	andi	r24, 0xF8	; 248
     2f0:	df 91       	pop	r29
     2f2:	cf 91       	pop	r28
     2f4:	08 95       	ret

000002f6 <twiSendByte>:
     2f6:	cf 93       	push	r28
     2f8:	df 93       	push	r29
     2fa:	1f 92       	push	r1
     2fc:	cd b7       	in	r28, 0x3d	; 61
     2fe:	de b7       	in	r29, 0x3e	; 62
     300:	89 83       	std	Y+1, r24	; 0x01
     302:	80 e7       	ldi	r24, 0x70	; 112
     304:	90 e0       	ldi	r25, 0x00	; 0
     306:	29 81       	ldd	r18, Y+1	; 0x01
     308:	fc 01       	movw	r30, r24
     30a:	23 83       	std	Z+3, r18	; 0x03
     30c:	80 e7       	ldi	r24, 0x70	; 112
     30e:	90 e0       	ldi	r25, 0x00	; 0
     310:	24 e8       	ldi	r18, 0x84	; 132
     312:	fc 01       	movw	r30, r24
     314:	24 83       	std	Z+4, r18	; 0x04
     316:	00 00       	nop
     318:	0f 90       	pop	r0
     31a:	df 91       	pop	r29
     31c:	cf 91       	pop	r28
     31e:	08 95       	ret

00000320 <twi_start>:
     320:	cf 93       	push	r28
     322:	df 93       	push	r29
     324:	cd b7       	in	r28, 0x3d	; 61
     326:	de b7       	in	r29, 0x3e	; 62
     328:	b1 df       	rcall	.-158    	; 0x28c <twiStart>
     32a:	ca df       	rcall	.-108    	; 0x2c0 <twiWaitAck>
     32c:	d8 df       	rcall	.-80     	; 0x2de <twiChkAck>
     32e:	88 30       	cpi	r24, 0x08	; 8
     330:	19 f0       	breq	.+6      	; 0x338 <twi_start+0x18>
     332:	8f ef       	ldi	r24, 0xFF	; 255
     334:	9f ef       	ldi	r25, 0xFF	; 255
     336:	02 c0       	rjmp	.+4      	; 0x33c <twi_start+0x1c>
     338:	80 e0       	ldi	r24, 0x00	; 0
     33a:	90 e0       	ldi	r25, 0x00	; 0
     33c:	df 91       	pop	r29
     33e:	cf 91       	pop	r28
     340:	08 95       	ret

00000342 <twi_stop>:
     342:	cf 93       	push	r28
     344:	df 93       	push	r29
     346:	cd b7       	in	r28, 0x3d	; 61
     348:	de b7       	in	r29, 0x3e	; 62
     34a:	ad df       	rcall	.-166    	; 0x2a6 <twiStop>
     34c:	00 00       	nop
     34e:	df 91       	pop	r29
     350:	cf 91       	pop	r28
     352:	08 95       	ret

00000354 <twi_send_dev_addr>:
     354:	cf 93       	push	r28
     356:	df 93       	push	r29
     358:	00 d0       	rcall	.+0      	; 0x35a <twi_send_dev_addr+0x6>
     35a:	cd b7       	in	r28, 0x3d	; 61
     35c:	de b7       	in	r29, 0x3e	; 62
     35e:	8a 83       	std	Y+2, r24	; 0x02
     360:	8a 81       	ldd	r24, Y+2	; 0x02
     362:	88 2f       	mov	r24, r24
     364:	90 e0       	ldi	r25, 0x00	; 0
     366:	81 70       	andi	r24, 0x01	; 1
     368:	99 27       	eor	r25, r25
     36a:	89 2b       	or	r24, r25
     36c:	11 f0       	breq	.+4      	; 0x372 <twi_send_dev_addr+0x1e>
     36e:	80 e4       	ldi	r24, 0x40	; 64
     370:	01 c0       	rjmp	.+2      	; 0x374 <twi_send_dev_addr+0x20>
     372:	88 e1       	ldi	r24, 0x18	; 24
     374:	89 83       	std	Y+1, r24	; 0x01
     376:	8a 81       	ldd	r24, Y+2	; 0x02
     378:	be df       	rcall	.-132    	; 0x2f6 <twiSendByte>
     37a:	a2 df       	rcall	.-188    	; 0x2c0 <twiWaitAck>
     37c:	b0 df       	rcall	.-160    	; 0x2de <twiChkAck>
     37e:	98 2f       	mov	r25, r24
     380:	89 81       	ldd	r24, Y+1	; 0x01
     382:	98 17       	cp	r25, r24
     384:	19 f0       	breq	.+6      	; 0x38c <twi_send_dev_addr+0x38>
     386:	8f ef       	ldi	r24, 0xFF	; 255
     388:	9f ef       	ldi	r25, 0xFF	; 255
     38a:	02 c0       	rjmp	.+4      	; 0x390 <twi_send_dev_addr+0x3c>
     38c:	80 e0       	ldi	r24, 0x00	; 0
     38e:	90 e0       	ldi	r25, 0x00	; 0
     390:	0f 90       	pop	r0
     392:	0f 90       	pop	r0
     394:	df 91       	pop	r29
     396:	cf 91       	pop	r28
     398:	08 95       	ret

0000039a <twi_send_data>:
     39a:	cf 93       	push	r28
     39c:	df 93       	push	r29
     39e:	1f 92       	push	r1
     3a0:	cd b7       	in	r28, 0x3d	; 61
     3a2:	de b7       	in	r29, 0x3e	; 62
     3a4:	89 83       	std	Y+1, r24	; 0x01
     3a6:	89 81       	ldd	r24, Y+1	; 0x01
     3a8:	a6 df       	rcall	.-180    	; 0x2f6 <twiSendByte>
     3aa:	8a df       	rcall	.-236    	; 0x2c0 <twiWaitAck>
     3ac:	98 df       	rcall	.-208    	; 0x2de <twiChkAck>
     3ae:	88 32       	cpi	r24, 0x28	; 40
     3b0:	19 f0       	breq	.+6      	; 0x3b8 <twi_send_data+0x1e>
     3b2:	8f ef       	ldi	r24, 0xFF	; 255
     3b4:	9f ef       	ldi	r25, 0xFF	; 255
     3b6:	02 c0       	rjmp	.+4      	; 0x3bc <twi_send_data+0x22>
     3b8:	80 e0       	ldi	r24, 0x00	; 0
     3ba:	90 e0       	ldi	r25, 0x00	; 0
     3bc:	0f 90       	pop	r0
     3be:	df 91       	pop	r29
     3c0:	cf 91       	pop	r28
     3c2:	08 95       	ret

000003c4 <twi_write>:
     3c4:	cf 93       	push	r28
     3c6:	df 93       	push	r29
     3c8:	cd b7       	in	r28, 0x3d	; 61
     3ca:	de b7       	in	r29, 0x3e	; 62
     3cc:	28 97       	sbiw	r28, 0x08	; 8
     3ce:	0f b6       	in	r0, 0x3f	; 63
     3d0:	f8 94       	cli
     3d2:	de bf       	out	0x3e, r29	; 62
     3d4:	0f be       	out	0x3f, r0	; 63
     3d6:	cd bf       	out	0x3d, r28	; 61
     3d8:	8b 83       	std	Y+3, r24	; 0x03
     3da:	6c 83       	std	Y+4, r22	; 0x04
     3dc:	5e 83       	std	Y+6, r21	; 0x06
     3de:	4d 83       	std	Y+5, r20	; 0x05
     3e0:	38 87       	std	Y+8, r19	; 0x08
     3e2:	2f 83       	std	Y+7, r18	; 0x07
     3e4:	9d df       	rcall	.-198    	; 0x320 <twi_start>
     3e6:	89 2b       	or	r24, r25
     3e8:	19 f0       	breq	.+6      	; 0x3f0 <twi_write+0x2c>
     3ea:	8f ef       	ldi	r24, 0xFF	; 255
     3ec:	9f ef       	ldi	r25, 0xFF	; 255
     3ee:	30 c0       	rjmp	.+96     	; 0x450 <__LOCK_REGION_LENGTH__+0x50>
     3f0:	8b 81       	ldd	r24, Y+3	; 0x03
     3f2:	88 0f       	add	r24, r24
     3f4:	af df       	rcall	.-162    	; 0x354 <twi_send_dev_addr>
     3f6:	89 2b       	or	r24, r25
     3f8:	19 f0       	breq	.+6      	; 0x400 <__LOCK_REGION_LENGTH__>
     3fa:	8f ef       	ldi	r24, 0xFF	; 255
     3fc:	9f ef       	ldi	r25, 0xFF	; 255
     3fe:	28 c0       	rjmp	.+80     	; 0x450 <__LOCK_REGION_LENGTH__+0x50>
     400:	8c 81       	ldd	r24, Y+4	; 0x04
     402:	cb df       	rcall	.-106    	; 0x39a <twi_send_data>
     404:	89 2b       	or	r24, r25
     406:	19 f0       	breq	.+6      	; 0x40e <__LOCK_REGION_LENGTH__+0xe>
     408:	8f ef       	ldi	r24, 0xFF	; 255
     40a:	9f ef       	ldi	r25, 0xFF	; 255
     40c:	21 c0       	rjmp	.+66     	; 0x450 <__LOCK_REGION_LENGTH__+0x50>
     40e:	1a 82       	std	Y+2, r1	; 0x02
     410:	19 82       	std	Y+1, r1	; 0x01
     412:	14 c0       	rjmp	.+40     	; 0x43c <__LOCK_REGION_LENGTH__+0x3c>
     414:	8d 81       	ldd	r24, Y+5	; 0x05
     416:	9e 81       	ldd	r25, Y+6	; 0x06
     418:	9c 01       	movw	r18, r24
     41a:	2f 5f       	subi	r18, 0xFF	; 255
     41c:	3f 4f       	sbci	r19, 0xFF	; 255
     41e:	3e 83       	std	Y+6, r19	; 0x06
     420:	2d 83       	std	Y+5, r18	; 0x05
     422:	fc 01       	movw	r30, r24
     424:	80 81       	ld	r24, Z
     426:	b9 df       	rcall	.-142    	; 0x39a <twi_send_data>
     428:	89 2b       	or	r24, r25
     42a:	19 f0       	breq	.+6      	; 0x432 <__LOCK_REGION_LENGTH__+0x32>
     42c:	8f ef       	ldi	r24, 0xFF	; 255
     42e:	9f ef       	ldi	r25, 0xFF	; 255
     430:	0f c0       	rjmp	.+30     	; 0x450 <__LOCK_REGION_LENGTH__+0x50>
     432:	89 81       	ldd	r24, Y+1	; 0x01
     434:	9a 81       	ldd	r25, Y+2	; 0x02
     436:	01 96       	adiw	r24, 0x01	; 1
     438:	9a 83       	std	Y+2, r25	; 0x02
     43a:	89 83       	std	Y+1, r24	; 0x01
     43c:	29 81       	ldd	r18, Y+1	; 0x01
     43e:	3a 81       	ldd	r19, Y+2	; 0x02
     440:	8f 81       	ldd	r24, Y+7	; 0x07
     442:	98 85       	ldd	r25, Y+8	; 0x08
     444:	28 17       	cp	r18, r24
     446:	39 07       	cpc	r19, r25
     448:	2c f3       	brlt	.-54     	; 0x414 <__LOCK_REGION_LENGTH__+0x14>
     44a:	7b df       	rcall	.-266    	; 0x342 <twi_stop>
     44c:	80 e0       	ldi	r24, 0x00	; 0
     44e:	90 e0       	ldi	r25, 0x00	; 0
     450:	28 96       	adiw	r28, 0x08	; 8
     452:	0f b6       	in	r0, 0x3f	; 63
     454:	f8 94       	cli
     456:	de bf       	out	0x3e, r29	; 62
     458:	0f be       	out	0x3f, r0	; 63
     45a:	cd bf       	out	0x3d, r28	; 61
     45c:	df 91       	pop	r29
     45e:	cf 91       	pop	r28
     460:	08 95       	ret

00000462 <twi_init>:

void twi_init(void)
{
     462:	cf 93       	push	r28
     464:	df 93       	push	r29
     466:	cd b7       	in	r28, 0x3d	; 61
     468:	de b7       	in	r29, 0x3e	; 62
    twi->twbr = 5;
     46a:	80 e7       	ldi	r24, 0x70	; 112
     46c:	90 e0       	ldi	r25, 0x00	; 0
     46e:	25 e0       	ldi	r18, 0x05	; 5
     470:	fc 01       	movw	r30, r24
     472:	20 83       	st	Z, r18
    twi->twsr = 0;
     474:	80 e7       	ldi	r24, 0x70	; 112
     476:	90 e0       	ldi	r25, 0x00	; 0
     478:	fc 01       	movw	r30, r24
     47a:	11 82       	std	Z+1, r1	; 0x01
}
     47c:	00 00       	nop
     47e:	df 91       	pop	r29
     480:	cf 91       	pop	r28
     482:	08 95       	ret

00000484 <UART_Init>:
		}
		for(int i = 0; i < 12; i++)
		{
			game_board[i][31] = 1;
		}
	}
     484:	cf 93       	push	r28
     486:	df 93       	push	r29
     488:	cd b7       	in	r28, 0x3d	; 61
     48a:	de b7       	in	r29, 0x3e	; 62
     48c:	8a e2       	ldi	r24, 0x2A	; 42
     48e:	90 e0       	ldi	r25, 0x00	; 0
     490:	28 e1       	ldi	r18, 0x18	; 24
     492:	fc 01       	movw	r30, r24
     494:	20 83       	st	Z, r18
     496:	85 e9       	ldi	r24, 0x95	; 149
     498:	90 e0       	ldi	r25, 0x00	; 0
     49a:	26 e0       	ldi	r18, 0x06	; 6
     49c:	fc 01       	movw	r30, r24
     49e:	20 83       	st	Z, r18
     4a0:	89 e2       	ldi	r24, 0x29	; 41
     4a2:	90 e0       	ldi	r25, 0x00	; 0
     4a4:	27 e6       	ldi	r18, 0x67	; 103
     4a6:	fc 01       	movw	r30, r24
     4a8:	20 83       	st	Z, r18
     4aa:	00 00       	nop
     4ac:	df 91       	pop	r29
     4ae:	cf 91       	pop	r28
     4b0:	08 95       	ret

000004b2 <ssd1306_cmd>:
     4b2:	cf 93       	push	r28
     4b4:	df 93       	push	r29
     4b6:	00 d0       	rcall	.+0      	; 0x4b8 <ssd1306_cmd+0x6>
     4b8:	1f 92       	push	r1
     4ba:	cd b7       	in	r28, 0x3d	; 61
     4bc:	de b7       	in	r29, 0x3e	; 62
     4be:	9a 83       	std	Y+2, r25	; 0x02
     4c0:	89 83       	std	Y+1, r24	; 0x01
     4c2:	6b 83       	std	Y+3, r22	; 0x03
     4c4:	8b 81       	ldd	r24, Y+3	; 0x03
     4c6:	28 2f       	mov	r18, r24
     4c8:	30 e0       	ldi	r19, 0x00	; 0
     4ca:	89 81       	ldd	r24, Y+1	; 0x01
     4cc:	9a 81       	ldd	r25, Y+2	; 0x02
     4ce:	ac 01       	movw	r20, r24
     4d0:	60 e0       	ldi	r22, 0x00	; 0
     4d2:	8c e3       	ldi	r24, 0x3C	; 60
     4d4:	77 df       	rcall	.-274    	; 0x3c4 <twi_write>
     4d6:	00 00       	nop
     4d8:	0f 90       	pop	r0
     4da:	0f 90       	pop	r0
     4dc:	0f 90       	pop	r0
     4de:	df 91       	pop	r29
     4e0:	cf 91       	pop	r28
     4e2:	08 95       	ret

000004e4 <ssd1306_data>:
     4e4:	cf 93       	push	r28
     4e6:	df 93       	push	r29
     4e8:	00 d0       	rcall	.+0      	; 0x4ea <ssd1306_data+0x6>
     4ea:	00 d0       	rcall	.+0      	; 0x4ec <ssd1306_data+0x8>
     4ec:	cd b7       	in	r28, 0x3d	; 61
     4ee:	de b7       	in	r29, 0x3e	; 62
     4f0:	9a 83       	std	Y+2, r25	; 0x02
     4f2:	89 83       	std	Y+1, r24	; 0x01
     4f4:	7c 83       	std	Y+4, r23	; 0x04
     4f6:	6b 83       	std	Y+3, r22	; 0x03
     4f8:	2b 81       	ldd	r18, Y+3	; 0x03
     4fa:	3c 81       	ldd	r19, Y+4	; 0x04
     4fc:	89 81       	ldd	r24, Y+1	; 0x01
     4fe:	9a 81       	ldd	r25, Y+2	; 0x02
     500:	ac 01       	movw	r20, r24
     502:	60 e4       	ldi	r22, 0x40	; 64
     504:	8c e3       	ldi	r24, 0x3C	; 60
     506:	5e df       	rcall	.-324    	; 0x3c4 <twi_write>
     508:	00 00       	nop
     50a:	0f 90       	pop	r0
     50c:	0f 90       	pop	r0
     50e:	0f 90       	pop	r0
     510:	0f 90       	pop	r0
     512:	df 91       	pop	r29
     514:	cf 91       	pop	r28
     516:	08 95       	ret

00000518 <ssd1306_reset>:
     518:	cf 93       	push	r28
     51a:	df 93       	push	r29
     51c:	cd b7       	in	r28, 0x3d	; 61
     51e:	de b7       	in	r29, 0x3e	; 62
     520:	00 00       	nop
     522:	df 91       	pop	r29
     524:	cf 91       	pop	r28
     526:	08 95       	ret

00000528 <ssd1306_chargepump_enable>:
     528:	cf 93       	push	r28
     52a:	df 93       	push	r29
     52c:	00 d0       	rcall	.+0      	; 0x52e <ssd1306_chargepump_enable+0x6>
     52e:	00 d0       	rcall	.+0      	; 0x530 <ssd1306_chargepump_enable+0x8>
     530:	cd b7       	in	r28, 0x3d	; 61
     532:	de b7       	in	r29, 0x3e	; 62
     534:	9c 83       	std	Y+4, r25	; 0x04
     536:	8b 83       	std	Y+3, r24	; 0x03
     538:	8d e8       	ldi	r24, 0x8D	; 141
     53a:	89 83       	std	Y+1, r24	; 0x01
     53c:	8b 81       	ldd	r24, Y+3	; 0x03
     53e:	9c 81       	ldd	r25, Y+4	; 0x04
     540:	89 2b       	or	r24, r25
     542:	11 f0       	breq	.+4      	; 0x548 <ssd1306_chargepump_enable+0x20>
     544:	84 e1       	ldi	r24, 0x14	; 20
     546:	01 c0       	rjmp	.+2      	; 0x54a <ssd1306_chargepump_enable+0x22>
     548:	80 e1       	ldi	r24, 0x10	; 16
     54a:	8a 83       	std	Y+2, r24	; 0x02
     54c:	62 e0       	ldi	r22, 0x02	; 2
     54e:	ce 01       	movw	r24, r28
     550:	01 96       	adiw	r24, 0x01	; 1
     552:	af df       	rcall	.-162    	; 0x4b2 <ssd1306_cmd>
     554:	00 00       	nop
     556:	0f 90       	pop	r0
     558:	0f 90       	pop	r0
     55a:	0f 90       	pop	r0
     55c:	0f 90       	pop	r0
     55e:	df 91       	pop	r29
     560:	cf 91       	pop	r28
     562:	08 95       	ret

00000564 <ssd1306_entire_on>:
     564:	cf 93       	push	r28
     566:	df 93       	push	r29
     568:	00 d0       	rcall	.+0      	; 0x56a <ssd1306_entire_on+0x6>
     56a:	1f 92       	push	r1
     56c:	cd b7       	in	r28, 0x3d	; 61
     56e:	de b7       	in	r29, 0x3e	; 62
     570:	9b 83       	std	Y+3, r25	; 0x03
     572:	8a 83       	std	Y+2, r24	; 0x02
     574:	8a 81       	ldd	r24, Y+2	; 0x02
     576:	84 6a       	ori	r24, 0xA4	; 164
     578:	89 83       	std	Y+1, r24	; 0x01
     57a:	61 e0       	ldi	r22, 0x01	; 1
     57c:	ce 01       	movw	r24, r28
     57e:	01 96       	adiw	r24, 0x01	; 1
     580:	98 df       	rcall	.-208    	; 0x4b2 <ssd1306_cmd>
     582:	00 00       	nop
     584:	0f 90       	pop	r0
     586:	0f 90       	pop	r0
     588:	0f 90       	pop	r0
     58a:	df 91       	pop	r29
     58c:	cf 91       	pop	r28
     58e:	08 95       	ret

00000590 <ssd1306_display_on>:
     590:	cf 93       	push	r28
     592:	df 93       	push	r29
     594:	00 d0       	rcall	.+0      	; 0x596 <ssd1306_display_on+0x6>
     596:	1f 92       	push	r1
     598:	cd b7       	in	r28, 0x3d	; 61
     59a:	de b7       	in	r29, 0x3e	; 62
     59c:	9b 83       	std	Y+3, r25	; 0x03
     59e:	8a 83       	std	Y+2, r24	; 0x02
     5a0:	8a 81       	ldd	r24, Y+2	; 0x02
     5a2:	8e 6a       	ori	r24, 0xAE	; 174
     5a4:	89 83       	std	Y+1, r24	; 0x01
     5a6:	61 e0       	ldi	r22, 0x01	; 1
     5a8:	ce 01       	movw	r24, r28
     5aa:	01 96       	adiw	r24, 0x01	; 1
     5ac:	82 df       	rcall	.-252    	; 0x4b2 <ssd1306_cmd>
     5ae:	00 00       	nop
     5b0:	0f 90       	pop	r0
     5b2:	0f 90       	pop	r0
     5b4:	0f 90       	pop	r0
     5b6:	df 91       	pop	r29
     5b8:	cf 91       	pop	r28
     5ba:	08 95       	ret

000005bc <ssd1306_set_addr_mode>:
     5bc:	cf 93       	push	r28
     5be:	df 93       	push	r29
     5c0:	00 d0       	rcall	.+0      	; 0x5c2 <ssd1306_set_addr_mode+0x6>
     5c2:	1f 92       	push	r1
     5c4:	cd b7       	in	r28, 0x3d	; 61
     5c6:	de b7       	in	r29, 0x3e	; 62
     5c8:	8b 83       	std	Y+3, r24	; 0x03
     5ca:	80 e2       	ldi	r24, 0x20	; 32
     5cc:	89 83       	std	Y+1, r24	; 0x01
     5ce:	8b 81       	ldd	r24, Y+3	; 0x03
     5d0:	8a 83       	std	Y+2, r24	; 0x02
     5d2:	62 e0       	ldi	r22, 0x02	; 2
     5d4:	ce 01       	movw	r24, r28
     5d6:	01 96       	adiw	r24, 0x01	; 1
     5d8:	6c df       	rcall	.-296    	; 0x4b2 <ssd1306_cmd>
     5da:	00 00       	nop
     5dc:	0f 90       	pop	r0
     5de:	0f 90       	pop	r0
     5e0:	0f 90       	pop	r0
     5e2:	df 91       	pop	r29
     5e4:	cf 91       	pop	r28
     5e6:	08 95       	ret

000005e8 <ssd1306_set_page_start>:
     5e8:	cf 93       	push	r28
     5ea:	df 93       	push	r29
     5ec:	00 d0       	rcall	.+0      	; 0x5ee <ssd1306_set_page_start+0x6>
     5ee:	cd b7       	in	r28, 0x3d	; 61
     5f0:	de b7       	in	r29, 0x3e	; 62
     5f2:	8a 83       	std	Y+2, r24	; 0x02
     5f4:	8a 81       	ldd	r24, Y+2	; 0x02
     5f6:	80 6b       	ori	r24, 0xB0	; 176
     5f8:	89 83       	std	Y+1, r24	; 0x01
     5fa:	61 e0       	ldi	r22, 0x01	; 1
     5fc:	ce 01       	movw	r24, r28
     5fe:	01 96       	adiw	r24, 0x01	; 1
     600:	58 df       	rcall	.-336    	; 0x4b2 <ssd1306_cmd>
     602:	00 00       	nop
     604:	0f 90       	pop	r0
     606:	0f 90       	pop	r0
     608:	df 91       	pop	r29
     60a:	cf 91       	pop	r28
     60c:	08 95       	ret

0000060e <ssd1306_set_column_addr>:
     60e:	cf 93       	push	r28
     610:	df 93       	push	r29
     612:	00 d0       	rcall	.+0      	; 0x614 <ssd1306_set_column_addr+0x6>
     614:	cd b7       	in	r28, 0x3d	; 61
     616:	de b7       	in	r29, 0x3e	; 62
     618:	8a 83       	std	Y+2, r24	; 0x02
     61a:	8a 81       	ldd	r24, Y+2	; 0x02
     61c:	8f 70       	andi	r24, 0x0F	; 15
     61e:	89 83       	std	Y+1, r24	; 0x01
     620:	61 e0       	ldi	r22, 0x01	; 1
     622:	ce 01       	movw	r24, r28
     624:	01 96       	adiw	r24, 0x01	; 1
     626:	45 df       	rcall	.-374    	; 0x4b2 <ssd1306_cmd>
     628:	8a 81       	ldd	r24, Y+2	; 0x02
     62a:	82 95       	swap	r24
     62c:	8f 70       	andi	r24, 0x0F	; 15
     62e:	80 61       	ori	r24, 0x10	; 16
     630:	89 83       	std	Y+1, r24	; 0x01
     632:	61 e0       	ldi	r22, 0x01	; 1
     634:	ce 01       	movw	r24, r28
     636:	01 96       	adiw	r24, 0x01	; 1
     638:	3c df       	rcall	.-392    	; 0x4b2 <ssd1306_cmd>
     63a:	00 00       	nop
     63c:	0f 90       	pop	r0
     63e:	0f 90       	pop	r0
     640:	df 91       	pop	r29
     642:	cf 91       	pop	r28
     644:	08 95       	ret

00000646 <ssd1306_reverse>:
     646:	cf 93       	push	r28
     648:	df 93       	push	r29
     64a:	00 d0       	rcall	.+0      	; 0x64c <ssd1306_reverse+0x6>
     64c:	1f 92       	push	r1
     64e:	cd b7       	in	r28, 0x3d	; 61
     650:	de b7       	in	r29, 0x3e	; 62
     652:	9b 83       	std	Y+3, r25	; 0x03
     654:	8a 83       	std	Y+2, r24	; 0x02
     656:	8a 81       	ldd	r24, Y+2	; 0x02
     658:	80 6a       	ori	r24, 0xA0	; 160
     65a:	89 83       	std	Y+1, r24	; 0x01
     65c:	61 e0       	ldi	r22, 0x01	; 1
     65e:	ce 01       	movw	r24, r28
     660:	01 96       	adiw	r24, 0x01	; 1
     662:	27 df       	rcall	.-434    	; 0x4b2 <ssd1306_cmd>
     664:	00 00       	nop
     666:	0f 90       	pop	r0
     668:	0f 90       	pop	r0
     66a:	0f 90       	pop	r0
     66c:	df 91       	pop	r29
     66e:	cf 91       	pop	r28
     670:	08 95       	ret

00000672 <ssd1306_normal_display>:
     672:	cf 93       	push	r28
     674:	df 93       	push	r29
     676:	00 d0       	rcall	.+0      	; 0x678 <ssd1306_normal_display+0x6>
     678:	1f 92       	push	r1
     67a:	cd b7       	in	r28, 0x3d	; 61
     67c:	de b7       	in	r29, 0x3e	; 62
     67e:	9b 83       	std	Y+3, r25	; 0x03
     680:	8a 83       	std	Y+2, r24	; 0x02
     682:	8a 81       	ldd	r24, Y+2	; 0x02
     684:	86 6a       	ori	r24, 0xA6	; 166
     686:	89 83       	std	Y+1, r24	; 0x01
     688:	61 e0       	ldi	r22, 0x01	; 1
     68a:	ce 01       	movw	r24, r28
     68c:	01 96       	adiw	r24, 0x01	; 1
     68e:	11 df       	rcall	.-478    	; 0x4b2 <ssd1306_cmd>
     690:	00 00       	nop
     692:	0f 90       	pop	r0
     694:	0f 90       	pop	r0
     696:	0f 90       	pop	r0
     698:	df 91       	pop	r29
     69a:	cf 91       	pop	r28
     69c:	08 95       	ret

0000069e <ssd1306_output_scan_direction>:
     69e:	cf 93       	push	r28
     6a0:	df 93       	push	r29
     6a2:	00 d0       	rcall	.+0      	; 0x6a4 <ssd1306_output_scan_direction+0x6>
     6a4:	1f 92       	push	r1
     6a6:	cd b7       	in	r28, 0x3d	; 61
     6a8:	de b7       	in	r29, 0x3e	; 62
     6aa:	9b 83       	std	Y+3, r25	; 0x03
     6ac:	8a 83       	std	Y+2, r24	; 0x02
     6ae:	8a 81       	ldd	r24, Y+2	; 0x02
     6b0:	88 6c       	ori	r24, 0xC8	; 200
     6b2:	89 83       	std	Y+1, r24	; 0x01
     6b4:	61 e0       	ldi	r22, 0x01	; 1
     6b6:	ce 01       	movw	r24, r28
     6b8:	01 96       	adiw	r24, 0x01	; 1
     6ba:	fb de       	rcall	.-522    	; 0x4b2 <ssd1306_cmd>
     6bc:	00 00       	nop
     6be:	0f 90       	pop	r0
     6c0:	0f 90       	pop	r0
     6c2:	0f 90       	pop	r0
     6c4:	df 91       	pop	r29
     6c6:	cf 91       	pop	r28
     6c8:	08 95       	ret

000006ca <ssd1306_init>:
     6ca:	cf 93       	push	r28
     6cc:	df 93       	push	r29
     6ce:	cd b7       	in	r28, 0x3d	; 61
     6d0:	de b7       	in	r29, 0x3e	; 62
     6d2:	2e 97       	sbiw	r28, 0x0e	; 14
     6d4:	0f b6       	in	r0, 0x3f	; 63
     6d6:	f8 94       	cli
     6d8:	de bf       	out	0x3e, r29	; 62
     6da:	0f be       	out	0x3f, r0	; 63
     6dc:	cd bf       	out	0x3d, r28	; 61
     6de:	80 e0       	ldi	r24, 0x00	; 0
     6e0:	90 e0       	ldi	r25, 0x00	; 0
     6e2:	a0 e8       	ldi	r26, 0x80	; 128
     6e4:	bf e3       	ldi	r27, 0x3F	; 63
     6e6:	89 83       	std	Y+1, r24	; 0x01
     6e8:	9a 83       	std	Y+2, r25	; 0x02
     6ea:	ab 83       	std	Y+3, r26	; 0x03
     6ec:	bc 83       	std	Y+4, r27	; 0x04
     6ee:	20 e0       	ldi	r18, 0x00	; 0
     6f0:	30 e0       	ldi	r19, 0x00	; 0
     6f2:	4a e7       	ldi	r20, 0x7A	; 122
     6f4:	55 e4       	ldi	r21, 0x45	; 69
     6f6:	69 81       	ldd	r22, Y+1	; 0x01
     6f8:	7a 81       	ldd	r23, Y+2	; 0x02
     6fa:	8b 81       	ldd	r24, Y+3	; 0x03
     6fc:	9c 81       	ldd	r25, Y+4	; 0x04
     6fe:	0e 94 04 20 	call	0x4008	; 0x4008 <__mulsf3>
     702:	dc 01       	movw	r26, r24
     704:	cb 01       	movw	r24, r22
     706:	8d 83       	std	Y+5, r24	; 0x05
     708:	9e 83       	std	Y+6, r25	; 0x06
     70a:	af 83       	std	Y+7, r26	; 0x07
     70c:	b8 87       	std	Y+8, r27	; 0x08
     70e:	20 e0       	ldi	r18, 0x00	; 0
     710:	30 e0       	ldi	r19, 0x00	; 0
     712:	40 e8       	ldi	r20, 0x80	; 128
     714:	5f e3       	ldi	r21, 0x3F	; 63
     716:	6d 81       	ldd	r22, Y+5	; 0x05
     718:	7e 81       	ldd	r23, Y+6	; 0x06
     71a:	8f 81       	ldd	r24, Y+7	; 0x07
     71c:	98 85       	ldd	r25, Y+8	; 0x08
     71e:	0e 94 83 1f 	call	0x3f06	; 0x3f06 <__cmpsf2>
     722:	88 23       	and	r24, r24
     724:	2c f4       	brge	.+10     	; 0x730 <ssd1306_init+0x66>
     726:	81 e0       	ldi	r24, 0x01	; 1
     728:	90 e0       	ldi	r25, 0x00	; 0
     72a:	9a 87       	std	Y+10, r25	; 0x0a
     72c:	89 87       	std	Y+9, r24	; 0x09
     72e:	3f c0       	rjmp	.+126    	; 0x7ae <ssd1306_init+0xe4>
     730:	20 e0       	ldi	r18, 0x00	; 0
     732:	3f ef       	ldi	r19, 0xFF	; 255
     734:	4f e7       	ldi	r20, 0x7F	; 127
     736:	57 e4       	ldi	r21, 0x47	; 71
     738:	6d 81       	ldd	r22, Y+5	; 0x05
     73a:	7e 81       	ldd	r23, Y+6	; 0x06
     73c:	8f 81       	ldd	r24, Y+7	; 0x07
     73e:	98 85       	ldd	r25, Y+8	; 0x08
     740:	0e 94 00 20 	call	0x4000	; 0x4000 <__gesf2>
     744:	18 16       	cp	r1, r24
     746:	4c f5       	brge	.+82     	; 0x79a <ssd1306_init+0xd0>
     748:	20 e0       	ldi	r18, 0x00	; 0
     74a:	30 e0       	ldi	r19, 0x00	; 0
     74c:	40 e2       	ldi	r20, 0x20	; 32
     74e:	51 e4       	ldi	r21, 0x41	; 65
     750:	69 81       	ldd	r22, Y+1	; 0x01
     752:	7a 81       	ldd	r23, Y+2	; 0x02
     754:	8b 81       	ldd	r24, Y+3	; 0x03
     756:	9c 81       	ldd	r25, Y+4	; 0x04
     758:	0e 94 04 20 	call	0x4008	; 0x4008 <__mulsf3>
     75c:	dc 01       	movw	r26, r24
     75e:	cb 01       	movw	r24, r22
     760:	bc 01       	movw	r22, r24
     762:	cd 01       	movw	r24, r26
     764:	0e 94 87 1f 	call	0x3f0e	; 0x3f0e <__fixunssfsi>
     768:	dc 01       	movw	r26, r24
     76a:	cb 01       	movw	r24, r22
     76c:	9a 87       	std	Y+10, r25	; 0x0a
     76e:	89 87       	std	Y+9, r24	; 0x09
     770:	0f c0       	rjmp	.+30     	; 0x790 <ssd1306_init+0xc6>
     772:	80 e9       	ldi	r24, 0x90	; 144
     774:	91 e0       	ldi	r25, 0x01	; 1
     776:	9c 87       	std	Y+12, r25	; 0x0c
     778:	8b 87       	std	Y+11, r24	; 0x0b
     77a:	8b 85       	ldd	r24, Y+11	; 0x0b
     77c:	9c 85       	ldd	r25, Y+12	; 0x0c
     77e:	01 97       	sbiw	r24, 0x01	; 1
     780:	f1 f7       	brne	.-4      	; 0x77e <ssd1306_init+0xb4>
     782:	9c 87       	std	Y+12, r25	; 0x0c
     784:	8b 87       	std	Y+11, r24	; 0x0b
     786:	89 85       	ldd	r24, Y+9	; 0x09
     788:	9a 85       	ldd	r25, Y+10	; 0x0a
     78a:	01 97       	sbiw	r24, 0x01	; 1
     78c:	9a 87       	std	Y+10, r25	; 0x0a
     78e:	89 87       	std	Y+9, r24	; 0x09
     790:	89 85       	ldd	r24, Y+9	; 0x09
     792:	9a 85       	ldd	r25, Y+10	; 0x0a
     794:	89 2b       	or	r24, r25
     796:	69 f7       	brne	.-38     	; 0x772 <ssd1306_init+0xa8>
     798:	14 c0       	rjmp	.+40     	; 0x7c2 <ssd1306_init+0xf8>
     79a:	6d 81       	ldd	r22, Y+5	; 0x05
     79c:	7e 81       	ldd	r23, Y+6	; 0x06
     79e:	8f 81       	ldd	r24, Y+7	; 0x07
     7a0:	98 85       	ldd	r25, Y+8	; 0x08
     7a2:	0e 94 87 1f 	call	0x3f0e	; 0x3f0e <__fixunssfsi>
     7a6:	dc 01       	movw	r26, r24
     7a8:	cb 01       	movw	r24, r22
     7aa:	9a 87       	std	Y+10, r25	; 0x0a
     7ac:	89 87       	std	Y+9, r24	; 0x09
     7ae:	89 85       	ldd	r24, Y+9	; 0x09
     7b0:	9a 85       	ldd	r25, Y+10	; 0x0a
     7b2:	9e 87       	std	Y+14, r25	; 0x0e
     7b4:	8d 87       	std	Y+13, r24	; 0x0d
     7b6:	8d 85       	ldd	r24, Y+13	; 0x0d
     7b8:	9e 85       	ldd	r25, Y+14	; 0x0e
     7ba:	01 97       	sbiw	r24, 0x01	; 1
     7bc:	f1 f7       	brne	.-4      	; 0x7ba <ssd1306_init+0xf0>
     7be:	9e 87       	std	Y+14, r25	; 0x0e
     7c0:	8d 87       	std	Y+13, r24	; 0x0d
     7c2:	aa de       	rcall	.-684    	; 0x518 <ssd1306_reset>
     7c4:	81 e0       	ldi	r24, 0x01	; 1
     7c6:	90 e0       	ldi	r25, 0x00	; 0
     7c8:	af de       	rcall	.-674    	; 0x528 <ssd1306_chargepump_enable>
     7ca:	80 e0       	ldi	r24, 0x00	; 0
     7cc:	90 e0       	ldi	r25, 0x00	; 0
     7ce:	ca de       	rcall	.-620    	; 0x564 <ssd1306_entire_on>
     7d0:	81 e0       	ldi	r24, 0x01	; 1
     7d2:	90 e0       	ldi	r25, 0x00	; 0
     7d4:	dd de       	rcall	.-582    	; 0x590 <ssd1306_display_on>
     7d6:	00 00       	nop
     7d8:	2e 96       	adiw	r28, 0x0e	; 14
     7da:	0f b6       	in	r0, 0x3f	; 63
     7dc:	f8 94       	cli
     7de:	de bf       	out	0x3e, r29	; 62
     7e0:	0f be       	out	0x3f, r0	; 63
     7e2:	cd bf       	out	0x3d, r28	; 61
     7e4:	df 91       	pop	r29
     7e6:	cf 91       	pop	r28
     7e8:	08 95       	ret

000007ea <setup>:
     7ea:	cf 93       	push	r28
     7ec:	df 93       	push	r29
     7ee:	cd b7       	in	r28, 0x3d	; 61
     7f0:	de b7       	in	r29, 0x3e	; 62
     7f2:	37 de       	rcall	.-914    	; 0x462 <twi_init>
     7f4:	6a df       	rcall	.-300    	; 0x6ca <ssd1306_init>
     7f6:	82 e0       	ldi	r24, 0x02	; 2
     7f8:	e1 de       	rcall	.-574    	; 0x5bc <ssd1306_set_addr_mode>
     7fa:	0e 94 cc 14 	call	0x2998	; 0x2998 <clear_screen>
     7fe:	80 e0       	ldi	r24, 0x00	; 0
     800:	90 e0       	ldi	r25, 0x00	; 0
     802:	4d df       	rcall	.-358    	; 0x69e <ssd1306_output_scan_direction>
     804:	81 e0       	ldi	r24, 0x01	; 1
     806:	90 e0       	ldi	r25, 0x00	; 0
     808:	1e df       	rcall	.-452    	; 0x646 <ssd1306_reverse>
     80a:	80 e0       	ldi	r24, 0x00	; 0
     80c:	90 e0       	ldi	r25, 0x00	; 0
     80e:	31 df       	rcall	.-414    	; 0x672 <ssd1306_normal_display>
     810:	00 00       	nop
     812:	df 91       	pop	r29
     814:	cf 91       	pop	r28
     816:	08 95       	ret

00000818 <__vector_5>:
     818:	1f 92       	push	r1
     81a:	0f 92       	push	r0
     81c:	00 90 5f 00 	lds	r0, 0x005F	; 0x80005f <__TEXT_REGION_LENGTH__+0x7e005f>
     820:	0f 92       	push	r0
     822:	11 24       	eor	r1, r1
     824:	00 90 5b 00 	lds	r0, 0x005B	; 0x80005b <__TEXT_REGION_LENGTH__+0x7e005b>
     828:	0f 92       	push	r0
     82a:	2f 93       	push	r18
     82c:	3f 93       	push	r19
     82e:	4f 93       	push	r20
     830:	5f 93       	push	r21
     832:	6f 93       	push	r22
     834:	7f 93       	push	r23
     836:	8f 93       	push	r24
     838:	9f 93       	push	r25
     83a:	af 93       	push	r26
     83c:	bf 93       	push	r27
     83e:	ef 93       	push	r30
     840:	ff 93       	push	r31
     842:	cf 93       	push	r28
     844:	df 93       	push	r29
     846:	cd b7       	in	r28, 0x3d	; 61
     848:	de b7       	in	r29, 0x3e	; 62
     84a:	62 97       	sbiw	r28, 0x12	; 18
     84c:	de bf       	out	0x3e, r29	; 62
     84e:	cd bf       	out	0x3d, r28	; 61
     850:	1a 82       	std	Y+2, r1	; 0x02
     852:	19 82       	std	Y+1, r1	; 0x01
     854:	37 c0       	rjmp	.+110    	; 0x8c4 <__vector_5+0xac>
     856:	1c 82       	std	Y+4, r1	; 0x04
     858:	1b 82       	std	Y+3, r1	; 0x03
     85a:	2b c0       	rjmp	.+86     	; 0x8b2 <__vector_5+0x9a>
     85c:	89 81       	ldd	r24, Y+1	; 0x01
     85e:	9a 81       	ldd	r25, Y+2	; 0x02
     860:	9c 01       	movw	r18, r24
     862:	22 0f       	add	r18, r18
     864:	33 1f       	adc	r19, r19
     866:	22 95       	swap	r18
     868:	32 95       	swap	r19
     86a:	30 7f       	andi	r19, 0xF0	; 240
     86c:	32 27       	eor	r19, r18
     86e:	20 7f       	andi	r18, 0xF0	; 240
     870:	32 27       	eor	r19, r18
     872:	8b 81       	ldd	r24, Y+3	; 0x03
     874:	9c 81       	ldd	r25, Y+4	; 0x04
     876:	82 0f       	add	r24, r18
     878:	93 1f       	adc	r25, r19
     87a:	80 5d       	subi	r24, 0xD0	; 208
     87c:	9e 4f       	sbci	r25, 0xFE	; 254
     87e:	dc 01       	movw	r26, r24
     880:	4c 91       	ld	r20, X
     882:	89 81       	ldd	r24, Y+1	; 0x01
     884:	9a 81       	ldd	r25, Y+2	; 0x02
     886:	9c 01       	movw	r18, r24
     888:	22 0f       	add	r18, r18
     88a:	33 1f       	adc	r19, r19
     88c:	22 95       	swap	r18
     88e:	32 95       	swap	r19
     890:	30 7f       	andi	r19, 0xF0	; 240
     892:	32 27       	eor	r19, r18
     894:	20 7f       	andi	r18, 0xF0	; 240
     896:	32 27       	eor	r19, r18
     898:	8b 81       	ldd	r24, Y+3	; 0x03
     89a:	9c 81       	ldd	r25, Y+4	; 0x04
     89c:	82 0f       	add	r24, r18
     89e:	93 1f       	adc	r25, r19
     8a0:	80 55       	subi	r24, 0x50	; 80
     8a2:	9d 4f       	sbci	r25, 0xFD	; 253
     8a4:	fc 01       	movw	r30, r24
     8a6:	40 83       	st	Z, r20
     8a8:	8b 81       	ldd	r24, Y+3	; 0x03
     8aa:	9c 81       	ldd	r25, Y+4	; 0x04
     8ac:	01 96       	adiw	r24, 0x01	; 1
     8ae:	9c 83       	std	Y+4, r25	; 0x04
     8b0:	8b 83       	std	Y+3, r24	; 0x03
     8b2:	8b 81       	ldd	r24, Y+3	; 0x03
     8b4:	9c 81       	ldd	r25, Y+4	; 0x04
     8b6:	80 97       	sbiw	r24, 0x20	; 32
     8b8:	8c f2       	brlt	.-94     	; 0x85c <__vector_5+0x44>
     8ba:	89 81       	ldd	r24, Y+1	; 0x01
     8bc:	9a 81       	ldd	r25, Y+2	; 0x02
     8be:	01 96       	adiw	r24, 0x01	; 1
     8c0:	9a 83       	std	Y+2, r25	; 0x02
     8c2:	89 83       	std	Y+1, r24	; 0x01
     8c4:	89 81       	ldd	r24, Y+1	; 0x01
     8c6:	9a 81       	ldd	r25, Y+2	; 0x02
     8c8:	0c 97       	sbiw	r24, 0x0c	; 12
     8ca:	2c f2       	brlt	.-118    	; 0x856 <__vector_5+0x3e>
     8cc:	80 91 74 08 	lds	r24, 0x0874	; 0x800874 <cur_col>
     8d0:	84 30       	cpi	r24, 0x04	; 4
     8d2:	30 f0       	brcs	.+12     	; 0x8e0 <__vector_5+0xc8>
     8d4:	80 91 74 08 	lds	r24, 0x0874	; 0x800874 <cur_col>
     8d8:	81 50       	subi	r24, 0x01	; 1
     8da:	80 93 74 08 	sts	0x0874, r24	; 0x800874 <cur_col>
     8de:	11 c0       	rjmp	.+34     	; 0x902 <__vector_5+0xea>
     8e0:	80 91 74 08 	lds	r24, 0x0874	; 0x800874 <cur_col>
     8e4:	83 30       	cpi	r24, 0x03	; 3
     8e6:	21 f4       	brne	.+8      	; 0x8f0 <__vector_5+0xd8>
     8e8:	80 91 75 08 	lds	r24, 0x0875	; 0x800875 <pattern>
     8ec:	81 30       	cpi	r24, 0x01	; 1
     8ee:	21 f0       	breq	.+8      	; 0x8f8 <__vector_5+0xe0>
     8f0:	80 91 75 08 	lds	r24, 0x0875	; 0x800875 <pattern>
     8f4:	83 30       	cpi	r24, 0x03	; 3
     8f6:	29 f4       	brne	.+10     	; 0x902 <__vector_5+0xea>
     8f8:	80 91 74 08 	lds	r24, 0x0874	; 0x800874 <cur_col>
     8fc:	81 50       	subi	r24, 0x01	; 1
     8fe:	80 93 74 08 	sts	0x0874, r24	; 0x800874 <cur_col>
     902:	1e 82       	std	Y+6, r1	; 0x06
     904:	1d 82       	std	Y+5, r1	; 0x05
     906:	20 c0       	rjmp	.+64     	; 0x948 <__vector_5+0x130>
     908:	18 86       	std	Y+8, r1	; 0x08
     90a:	1f 82       	std	Y+7, r1	; 0x07
     90c:	14 c0       	rjmp	.+40     	; 0x936 <__vector_5+0x11e>
     90e:	8d 81       	ldd	r24, Y+5	; 0x05
     910:	9e 81       	ldd	r25, Y+6	; 0x06
     912:	9c 01       	movw	r18, r24
     914:	22 0f       	add	r18, r18
     916:	33 1f       	adc	r19, r19
     918:	22 0f       	add	r18, r18
     91a:	33 1f       	adc	r19, r19
     91c:	8f 81       	ldd	r24, Y+7	; 0x07
     91e:	98 85       	ldd	r25, Y+8	; 0x08
     920:	82 0f       	add	r24, r18
     922:	93 1f       	adc	r25, r19
     924:	80 50       	subi	r24, 0x00	; 0
     926:	9f 4f       	sbci	r25, 0xFF	; 255
     928:	dc 01       	movw	r26, r24
     92a:	1c 92       	st	X, r1
     92c:	8f 81       	ldd	r24, Y+7	; 0x07
     92e:	98 85       	ldd	r25, Y+8	; 0x08
     930:	01 96       	adiw	r24, 0x01	; 1
     932:	98 87       	std	Y+8, r25	; 0x08
     934:	8f 83       	std	Y+7, r24	; 0x07
     936:	8f 81       	ldd	r24, Y+7	; 0x07
     938:	98 85       	ldd	r25, Y+8	; 0x08
     93a:	04 97       	sbiw	r24, 0x04	; 4
     93c:	44 f3       	brlt	.-48     	; 0x90e <__vector_5+0xf6>
     93e:	8d 81       	ldd	r24, Y+5	; 0x05
     940:	9e 81       	ldd	r25, Y+6	; 0x06
     942:	01 96       	adiw	r24, 0x01	; 1
     944:	9e 83       	std	Y+6, r25	; 0x06
     946:	8d 83       	std	Y+5, r24	; 0x05
     948:	8d 81       	ldd	r24, Y+5	; 0x05
     94a:	9e 81       	ldd	r25, Y+6	; 0x06
     94c:	0c 97       	sbiw	r24, 0x0c	; 12
     94e:	e4 f2       	brlt	.-72     	; 0x908 <__vector_5+0xf0>
     950:	1a 86       	std	Y+10, r1	; 0x0a
     952:	19 86       	std	Y+9, r1	; 0x09
     954:	cb c0       	rjmp	.+406    	; 0xaec <__vector_5+0x2d4>
     956:	80 91 74 08 	lds	r24, 0x0874	; 0x800874 <cur_col>
     95a:	28 2f       	mov	r18, r24
     95c:	30 e0       	ldi	r19, 0x00	; 0
     95e:	89 85       	ldd	r24, Y+9	; 0x09
     960:	9a 85       	ldd	r25, Y+10	; 0x0a
     962:	f9 01       	movw	r30, r18
     964:	e8 1b       	sub	r30, r24
     966:	f9 0b       	sbc	r31, r25
     968:	cf 01       	movw	r24, r30
     96a:	20 91 76 08 	lds	r18, 0x0876	; 0x800876 <shape>
     96e:	62 2f       	mov	r22, r18
     970:	70 e0       	ldi	r23, 0x00	; 0
     972:	20 91 75 08 	lds	r18, 0x0875	; 0x800875 <pattern>
     976:	22 2f       	mov	r18, r18
     978:	30 e0       	ldi	r19, 0x00	; 0
     97a:	4c e8       	ldi	r20, 0x8C	; 140
     97c:	50 e0       	ldi	r21, 0x00	; 0
     97e:	66 0f       	add	r22, r22
     980:	77 1f       	adc	r23, r23
     982:	66 0f       	add	r22, r22
     984:	77 1f       	adc	r23, r23
     986:	26 0f       	add	r18, r22
     988:	37 1f       	adc	r19, r23
     98a:	22 95       	swap	r18
     98c:	32 95       	swap	r19
     98e:	30 7f       	andi	r19, 0xF0	; 240
     990:	32 27       	eor	r19, r18
     992:	20 7f       	andi	r18, 0xF0	; 240
     994:	32 27       	eor	r19, r18
     996:	42 0f       	add	r20, r18
     998:	53 1f       	adc	r21, r19
     99a:	29 85       	ldd	r18, Y+9	; 0x09
     99c:	3a 85       	ldd	r19, Y+10	; 0x0a
     99e:	24 0f       	add	r18, r20
     9a0:	35 1f       	adc	r19, r21
     9a2:	f9 01       	movw	r30, r18
     9a4:	24 91       	lpm	r18, Z
     9a6:	88 0f       	add	r24, r24
     9a8:	99 1f       	adc	r25, r25
     9aa:	88 0f       	add	r24, r24
     9ac:	99 1f       	adc	r25, r25
     9ae:	80 50       	subi	r24, 0x00	; 0
     9b0:	9f 4f       	sbci	r25, 0xFF	; 255
     9b2:	dc 01       	movw	r26, r24
     9b4:	2c 93       	st	X, r18
     9b6:	80 91 74 08 	lds	r24, 0x0874	; 0x800874 <cur_col>
     9ba:	28 2f       	mov	r18, r24
     9bc:	30 e0       	ldi	r19, 0x00	; 0
     9be:	89 85       	ldd	r24, Y+9	; 0x09
     9c0:	9a 85       	ldd	r25, Y+10	; 0x0a
     9c2:	f9 01       	movw	r30, r18
     9c4:	e8 1b       	sub	r30, r24
     9c6:	f9 0b       	sbc	r31, r25
     9c8:	cf 01       	movw	r24, r30
     9ca:	20 91 76 08 	lds	r18, 0x0876	; 0x800876 <shape>
     9ce:	e2 2f       	mov	r30, r18
     9d0:	f0 e0       	ldi	r31, 0x00	; 0
     9d2:	20 91 75 08 	lds	r18, 0x0875	; 0x800875 <pattern>
     9d6:	42 2f       	mov	r20, r18
     9d8:	50 e0       	ldi	r21, 0x00	; 0
     9da:	29 85       	ldd	r18, Y+9	; 0x09
     9dc:	3a 85       	ldd	r19, Y+10	; 0x0a
     9de:	2c 5f       	subi	r18, 0xFC	; 252
     9e0:	3f 4f       	sbci	r19, 0xFF	; 255
     9e2:	6c e8       	ldi	r22, 0x8C	; 140
     9e4:	70 e0       	ldi	r23, 0x00	; 0
     9e6:	ee 0f       	add	r30, r30
     9e8:	ff 1f       	adc	r31, r31
     9ea:	ee 0f       	add	r30, r30
     9ec:	ff 1f       	adc	r31, r31
     9ee:	4e 0f       	add	r20, r30
     9f0:	5f 1f       	adc	r21, r31
     9f2:	42 95       	swap	r20
     9f4:	52 95       	swap	r21
     9f6:	50 7f       	andi	r21, 0xF0	; 240
     9f8:	54 27       	eor	r21, r20
     9fa:	40 7f       	andi	r20, 0xF0	; 240
     9fc:	54 27       	eor	r21, r20
     9fe:	46 0f       	add	r20, r22
     a00:	57 1f       	adc	r21, r23
     a02:	24 0f       	add	r18, r20
     a04:	35 1f       	adc	r19, r21
     a06:	f9 01       	movw	r30, r18
     a08:	24 91       	lpm	r18, Z
     a0a:	88 0f       	add	r24, r24
     a0c:	99 1f       	adc	r25, r25
     a0e:	88 0f       	add	r24, r24
     a10:	99 1f       	adc	r25, r25
     a12:	8f 5f       	subi	r24, 0xFF	; 255
     a14:	9e 4f       	sbci	r25, 0xFE	; 254
     a16:	dc 01       	movw	r26, r24
     a18:	2c 93       	st	X, r18
     a1a:	80 91 74 08 	lds	r24, 0x0874	; 0x800874 <cur_col>
     a1e:	28 2f       	mov	r18, r24
     a20:	30 e0       	ldi	r19, 0x00	; 0
     a22:	89 85       	ldd	r24, Y+9	; 0x09
     a24:	9a 85       	ldd	r25, Y+10	; 0x0a
     a26:	f9 01       	movw	r30, r18
     a28:	e8 1b       	sub	r30, r24
     a2a:	f9 0b       	sbc	r31, r25
     a2c:	cf 01       	movw	r24, r30
     a2e:	20 91 76 08 	lds	r18, 0x0876	; 0x800876 <shape>
     a32:	e2 2f       	mov	r30, r18
     a34:	f0 e0       	ldi	r31, 0x00	; 0
     a36:	20 91 75 08 	lds	r18, 0x0875	; 0x800875 <pattern>
     a3a:	42 2f       	mov	r20, r18
     a3c:	50 e0       	ldi	r21, 0x00	; 0
     a3e:	29 85       	ldd	r18, Y+9	; 0x09
     a40:	3a 85       	ldd	r19, Y+10	; 0x0a
     a42:	28 5f       	subi	r18, 0xF8	; 248
     a44:	3f 4f       	sbci	r19, 0xFF	; 255
     a46:	6c e8       	ldi	r22, 0x8C	; 140
     a48:	70 e0       	ldi	r23, 0x00	; 0
     a4a:	ee 0f       	add	r30, r30
     a4c:	ff 1f       	adc	r31, r31
     a4e:	ee 0f       	add	r30, r30
     a50:	ff 1f       	adc	r31, r31
     a52:	4e 0f       	add	r20, r30
     a54:	5f 1f       	adc	r21, r31
     a56:	42 95       	swap	r20
     a58:	52 95       	swap	r21
     a5a:	50 7f       	andi	r21, 0xF0	; 240
     a5c:	54 27       	eor	r21, r20
     a5e:	40 7f       	andi	r20, 0xF0	; 240
     a60:	54 27       	eor	r21, r20
     a62:	46 0f       	add	r20, r22
     a64:	57 1f       	adc	r21, r23
     a66:	24 0f       	add	r18, r20
     a68:	35 1f       	adc	r19, r21
     a6a:	f9 01       	movw	r30, r18
     a6c:	24 91       	lpm	r18, Z
     a6e:	88 0f       	add	r24, r24
     a70:	99 1f       	adc	r25, r25
     a72:	88 0f       	add	r24, r24
     a74:	99 1f       	adc	r25, r25
     a76:	8e 5f       	subi	r24, 0xFE	; 254
     a78:	9e 4f       	sbci	r25, 0xFE	; 254
     a7a:	dc 01       	movw	r26, r24
     a7c:	2c 93       	st	X, r18
     a7e:	80 91 74 08 	lds	r24, 0x0874	; 0x800874 <cur_col>
     a82:	28 2f       	mov	r18, r24
     a84:	30 e0       	ldi	r19, 0x00	; 0
     a86:	89 85       	ldd	r24, Y+9	; 0x09
     a88:	9a 85       	ldd	r25, Y+10	; 0x0a
     a8a:	f9 01       	movw	r30, r18
     a8c:	e8 1b       	sub	r30, r24
     a8e:	f9 0b       	sbc	r31, r25
     a90:	cf 01       	movw	r24, r30
     a92:	20 91 76 08 	lds	r18, 0x0876	; 0x800876 <shape>
     a96:	e2 2f       	mov	r30, r18
     a98:	f0 e0       	ldi	r31, 0x00	; 0
     a9a:	20 91 75 08 	lds	r18, 0x0875	; 0x800875 <pattern>
     a9e:	42 2f       	mov	r20, r18
     aa0:	50 e0       	ldi	r21, 0x00	; 0
     aa2:	29 85       	ldd	r18, Y+9	; 0x09
     aa4:	3a 85       	ldd	r19, Y+10	; 0x0a
     aa6:	24 5f       	subi	r18, 0xF4	; 244
     aa8:	3f 4f       	sbci	r19, 0xFF	; 255
     aaa:	6c e8       	ldi	r22, 0x8C	; 140
     aac:	70 e0       	ldi	r23, 0x00	; 0
     aae:	ee 0f       	add	r30, r30
     ab0:	ff 1f       	adc	r31, r31
     ab2:	ee 0f       	add	r30, r30
     ab4:	ff 1f       	adc	r31, r31
     ab6:	4e 0f       	add	r20, r30
     ab8:	5f 1f       	adc	r21, r31
     aba:	42 95       	swap	r20
     abc:	52 95       	swap	r21
     abe:	50 7f       	andi	r21, 0xF0	; 240
     ac0:	54 27       	eor	r21, r20
     ac2:	40 7f       	andi	r20, 0xF0	; 240
     ac4:	54 27       	eor	r21, r20
     ac6:	46 0f       	add	r20, r22
     ac8:	57 1f       	adc	r21, r23
     aca:	24 0f       	add	r18, r20
     acc:	35 1f       	adc	r19, r21
     ace:	f9 01       	movw	r30, r18
     ad0:	24 91       	lpm	r18, Z
     ad2:	88 0f       	add	r24, r24
     ad4:	99 1f       	adc	r25, r25
     ad6:	88 0f       	add	r24, r24
     ad8:	99 1f       	adc	r25, r25
     ada:	8d 5f       	subi	r24, 0xFD	; 253
     adc:	9e 4f       	sbci	r25, 0xFE	; 254
     ade:	dc 01       	movw	r26, r24
     ae0:	2c 93       	st	X, r18
     ae2:	89 85       	ldd	r24, Y+9	; 0x09
     ae4:	9a 85       	ldd	r25, Y+10	; 0x0a
     ae6:	01 96       	adiw	r24, 0x01	; 1
     ae8:	9a 87       	std	Y+10, r25	; 0x0a
     aea:	89 87       	std	Y+9, r24	; 0x09
     aec:	89 85       	ldd	r24, Y+9	; 0x09
     aee:	9a 85       	ldd	r25, Y+10	; 0x0a
     af0:	04 97       	sbiw	r24, 0x04	; 4
     af2:	0c f4       	brge	.+2      	; 0xaf6 <__vector_5+0x2de>
     af4:	30 cf       	rjmp	.-416    	; 0x956 <__vector_5+0x13e>
     af6:	0e 94 d1 1c 	call	0x39a2	; 0x39a2 <Collision>
     afa:	81 30       	cpi	r24, 0x01	; 1
     afc:	29 f4       	brne	.+10     	; 0xb08 <__vector_5+0x2f0>
     afe:	80 91 74 08 	lds	r24, 0x0874	; 0x800874 <cur_col>
     b02:	8f 5f       	subi	r24, 0xFF	; 255
     b04:	80 93 74 08 	sts	0x0874, r24	; 0x800874 <cur_col>
     b08:	1c 86       	std	Y+12, r1	; 0x0c
     b0a:	1b 86       	std	Y+11, r1	; 0x0b
     b0c:	20 c0       	rjmp	.+64     	; 0xb4e <__vector_5+0x336>
     b0e:	1e 86       	std	Y+14, r1	; 0x0e
     b10:	1d 86       	std	Y+13, r1	; 0x0d
     b12:	14 c0       	rjmp	.+40     	; 0xb3c <__vector_5+0x324>
     b14:	8b 85       	ldd	r24, Y+11	; 0x0b
     b16:	9c 85       	ldd	r25, Y+12	; 0x0c
     b18:	9c 01       	movw	r18, r24
     b1a:	22 0f       	add	r18, r18
     b1c:	33 1f       	adc	r19, r19
     b1e:	22 0f       	add	r18, r18
     b20:	33 1f       	adc	r19, r19
     b22:	8d 85       	ldd	r24, Y+13	; 0x0d
     b24:	9e 85       	ldd	r25, Y+14	; 0x0e
     b26:	82 0f       	add	r24, r18
     b28:	93 1f       	adc	r25, r19
     b2a:	80 50       	subi	r24, 0x00	; 0
     b2c:	9f 4f       	sbci	r25, 0xFF	; 255
     b2e:	fc 01       	movw	r30, r24
     b30:	10 82       	st	Z, r1
     b32:	8d 85       	ldd	r24, Y+13	; 0x0d
     b34:	9e 85       	ldd	r25, Y+14	; 0x0e
     b36:	01 96       	adiw	r24, 0x01	; 1
     b38:	9e 87       	std	Y+14, r25	; 0x0e
     b3a:	8d 87       	std	Y+13, r24	; 0x0d
     b3c:	8d 85       	ldd	r24, Y+13	; 0x0d
     b3e:	9e 85       	ldd	r25, Y+14	; 0x0e
     b40:	04 97       	sbiw	r24, 0x04	; 4
     b42:	44 f3       	brlt	.-48     	; 0xb14 <__vector_5+0x2fc>
     b44:	8b 85       	ldd	r24, Y+11	; 0x0b
     b46:	9c 85       	ldd	r25, Y+12	; 0x0c
     b48:	01 96       	adiw	r24, 0x01	; 1
     b4a:	9c 87       	std	Y+12, r25	; 0x0c
     b4c:	8b 87       	std	Y+11, r24	; 0x0b
     b4e:	8b 85       	ldd	r24, Y+11	; 0x0b
     b50:	9c 85       	ldd	r25, Y+12	; 0x0c
     b52:	0c 97       	sbiw	r24, 0x0c	; 12
     b54:	e4 f2       	brlt	.-72     	; 0xb0e <__vector_5+0x2f6>
     b56:	18 8a       	std	Y+16, r1	; 0x10
     b58:	1f 86       	std	Y+15, r1	; 0x0f
     b5a:	cb c0       	rjmp	.+406    	; 0xcf2 <__vector_5+0x4da>
     b5c:	80 91 74 08 	lds	r24, 0x0874	; 0x800874 <cur_col>
     b60:	28 2f       	mov	r18, r24
     b62:	30 e0       	ldi	r19, 0x00	; 0
     b64:	8f 85       	ldd	r24, Y+15	; 0x0f
     b66:	98 89       	ldd	r25, Y+16	; 0x10
     b68:	a9 01       	movw	r20, r18
     b6a:	48 1b       	sub	r20, r24
     b6c:	59 0b       	sbc	r21, r25
     b6e:	ca 01       	movw	r24, r20
     b70:	20 91 76 08 	lds	r18, 0x0876	; 0x800876 <shape>
     b74:	62 2f       	mov	r22, r18
     b76:	70 e0       	ldi	r23, 0x00	; 0
     b78:	20 91 75 08 	lds	r18, 0x0875	; 0x800875 <pattern>
     b7c:	22 2f       	mov	r18, r18
     b7e:	30 e0       	ldi	r19, 0x00	; 0
     b80:	4c e8       	ldi	r20, 0x8C	; 140
     b82:	50 e0       	ldi	r21, 0x00	; 0
     b84:	66 0f       	add	r22, r22
     b86:	77 1f       	adc	r23, r23
     b88:	66 0f       	add	r22, r22
     b8a:	77 1f       	adc	r23, r23
     b8c:	26 0f       	add	r18, r22
     b8e:	37 1f       	adc	r19, r23
     b90:	22 95       	swap	r18
     b92:	32 95       	swap	r19
     b94:	30 7f       	andi	r19, 0xF0	; 240
     b96:	32 27       	eor	r19, r18
     b98:	20 7f       	andi	r18, 0xF0	; 240
     b9a:	32 27       	eor	r19, r18
     b9c:	42 0f       	add	r20, r18
     b9e:	53 1f       	adc	r21, r19
     ba0:	2f 85       	ldd	r18, Y+15	; 0x0f
     ba2:	38 89       	ldd	r19, Y+16	; 0x10
     ba4:	24 0f       	add	r18, r20
     ba6:	35 1f       	adc	r19, r21
     ba8:	f9 01       	movw	r30, r18
     baa:	24 91       	lpm	r18, Z
     bac:	88 0f       	add	r24, r24
     bae:	99 1f       	adc	r25, r25
     bb0:	88 0f       	add	r24, r24
     bb2:	99 1f       	adc	r25, r25
     bb4:	80 50       	subi	r24, 0x00	; 0
     bb6:	9f 4f       	sbci	r25, 0xFF	; 255
     bb8:	dc 01       	movw	r26, r24
     bba:	2c 93       	st	X, r18
     bbc:	80 91 74 08 	lds	r24, 0x0874	; 0x800874 <cur_col>
     bc0:	28 2f       	mov	r18, r24
     bc2:	30 e0       	ldi	r19, 0x00	; 0
     bc4:	8f 85       	ldd	r24, Y+15	; 0x0f
     bc6:	98 89       	ldd	r25, Y+16	; 0x10
     bc8:	f9 01       	movw	r30, r18
     bca:	e8 1b       	sub	r30, r24
     bcc:	f9 0b       	sbc	r31, r25
     bce:	cf 01       	movw	r24, r30
     bd0:	20 91 76 08 	lds	r18, 0x0876	; 0x800876 <shape>
     bd4:	e2 2f       	mov	r30, r18
     bd6:	f0 e0       	ldi	r31, 0x00	; 0
     bd8:	20 91 75 08 	lds	r18, 0x0875	; 0x800875 <pattern>
     bdc:	42 2f       	mov	r20, r18
     bde:	50 e0       	ldi	r21, 0x00	; 0
     be0:	2f 85       	ldd	r18, Y+15	; 0x0f
     be2:	38 89       	ldd	r19, Y+16	; 0x10
     be4:	2c 5f       	subi	r18, 0xFC	; 252
     be6:	3f 4f       	sbci	r19, 0xFF	; 255
     be8:	6c e8       	ldi	r22, 0x8C	; 140
     bea:	70 e0       	ldi	r23, 0x00	; 0
     bec:	ee 0f       	add	r30, r30
     bee:	ff 1f       	adc	r31, r31
     bf0:	ee 0f       	add	r30, r30
     bf2:	ff 1f       	adc	r31, r31
     bf4:	4e 0f       	add	r20, r30
     bf6:	5f 1f       	adc	r21, r31
     bf8:	42 95       	swap	r20
     bfa:	52 95       	swap	r21
     bfc:	50 7f       	andi	r21, 0xF0	; 240
     bfe:	54 27       	eor	r21, r20
     c00:	40 7f       	andi	r20, 0xF0	; 240
     c02:	54 27       	eor	r21, r20
     c04:	46 0f       	add	r20, r22
     c06:	57 1f       	adc	r21, r23
     c08:	24 0f       	add	r18, r20
     c0a:	35 1f       	adc	r19, r21
     c0c:	f9 01       	movw	r30, r18
     c0e:	24 91       	lpm	r18, Z
     c10:	88 0f       	add	r24, r24
     c12:	99 1f       	adc	r25, r25
     c14:	88 0f       	add	r24, r24
     c16:	99 1f       	adc	r25, r25
     c18:	8f 5f       	subi	r24, 0xFF	; 255
     c1a:	9e 4f       	sbci	r25, 0xFE	; 254
     c1c:	dc 01       	movw	r26, r24
     c1e:	2c 93       	st	X, r18
     c20:	80 91 74 08 	lds	r24, 0x0874	; 0x800874 <cur_col>
     c24:	28 2f       	mov	r18, r24
     c26:	30 e0       	ldi	r19, 0x00	; 0
     c28:	8f 85       	ldd	r24, Y+15	; 0x0f
     c2a:	98 89       	ldd	r25, Y+16	; 0x10
     c2c:	f9 01       	movw	r30, r18
     c2e:	e8 1b       	sub	r30, r24
     c30:	f9 0b       	sbc	r31, r25
     c32:	cf 01       	movw	r24, r30
     c34:	20 91 76 08 	lds	r18, 0x0876	; 0x800876 <shape>
     c38:	e2 2f       	mov	r30, r18
     c3a:	f0 e0       	ldi	r31, 0x00	; 0
     c3c:	20 91 75 08 	lds	r18, 0x0875	; 0x800875 <pattern>
     c40:	42 2f       	mov	r20, r18
     c42:	50 e0       	ldi	r21, 0x00	; 0
     c44:	2f 85       	ldd	r18, Y+15	; 0x0f
     c46:	38 89       	ldd	r19, Y+16	; 0x10
     c48:	28 5f       	subi	r18, 0xF8	; 248
     c4a:	3f 4f       	sbci	r19, 0xFF	; 255
     c4c:	6c e8       	ldi	r22, 0x8C	; 140
     c4e:	70 e0       	ldi	r23, 0x00	; 0
     c50:	ee 0f       	add	r30, r30
     c52:	ff 1f       	adc	r31, r31
     c54:	ee 0f       	add	r30, r30
     c56:	ff 1f       	adc	r31, r31
     c58:	4e 0f       	add	r20, r30
     c5a:	5f 1f       	adc	r21, r31
     c5c:	42 95       	swap	r20
     c5e:	52 95       	swap	r21
     c60:	50 7f       	andi	r21, 0xF0	; 240
     c62:	54 27       	eor	r21, r20
     c64:	40 7f       	andi	r20, 0xF0	; 240
     c66:	54 27       	eor	r21, r20
     c68:	46 0f       	add	r20, r22
     c6a:	57 1f       	adc	r21, r23
     c6c:	24 0f       	add	r18, r20
     c6e:	35 1f       	adc	r19, r21
     c70:	f9 01       	movw	r30, r18
     c72:	24 91       	lpm	r18, Z
     c74:	88 0f       	add	r24, r24
     c76:	99 1f       	adc	r25, r25
     c78:	88 0f       	add	r24, r24
     c7a:	99 1f       	adc	r25, r25
     c7c:	8e 5f       	subi	r24, 0xFE	; 254
     c7e:	9e 4f       	sbci	r25, 0xFE	; 254
     c80:	dc 01       	movw	r26, r24
     c82:	2c 93       	st	X, r18
     c84:	80 91 74 08 	lds	r24, 0x0874	; 0x800874 <cur_col>
     c88:	28 2f       	mov	r18, r24
     c8a:	30 e0       	ldi	r19, 0x00	; 0
     c8c:	8f 85       	ldd	r24, Y+15	; 0x0f
     c8e:	98 89       	ldd	r25, Y+16	; 0x10
     c90:	f9 01       	movw	r30, r18
     c92:	e8 1b       	sub	r30, r24
     c94:	f9 0b       	sbc	r31, r25
     c96:	cf 01       	movw	r24, r30
     c98:	20 91 76 08 	lds	r18, 0x0876	; 0x800876 <shape>
     c9c:	e2 2f       	mov	r30, r18
     c9e:	f0 e0       	ldi	r31, 0x00	; 0
     ca0:	20 91 75 08 	lds	r18, 0x0875	; 0x800875 <pattern>
     ca4:	42 2f       	mov	r20, r18
     ca6:	50 e0       	ldi	r21, 0x00	; 0
     ca8:	2f 85       	ldd	r18, Y+15	; 0x0f
     caa:	38 89       	ldd	r19, Y+16	; 0x10
     cac:	24 5f       	subi	r18, 0xF4	; 244
     cae:	3f 4f       	sbci	r19, 0xFF	; 255
     cb0:	6c e8       	ldi	r22, 0x8C	; 140
     cb2:	70 e0       	ldi	r23, 0x00	; 0
     cb4:	ee 0f       	add	r30, r30
     cb6:	ff 1f       	adc	r31, r31
     cb8:	ee 0f       	add	r30, r30
     cba:	ff 1f       	adc	r31, r31
     cbc:	4e 0f       	add	r20, r30
     cbe:	5f 1f       	adc	r21, r31
     cc0:	42 95       	swap	r20
     cc2:	52 95       	swap	r21
     cc4:	50 7f       	andi	r21, 0xF0	; 240
     cc6:	54 27       	eor	r21, r20
     cc8:	40 7f       	andi	r20, 0xF0	; 240
     cca:	54 27       	eor	r21, r20
     ccc:	46 0f       	add	r20, r22
     cce:	57 1f       	adc	r21, r23
     cd0:	24 0f       	add	r18, r20
     cd2:	35 1f       	adc	r19, r21
     cd4:	f9 01       	movw	r30, r18
     cd6:	24 91       	lpm	r18, Z
     cd8:	88 0f       	add	r24, r24
     cda:	99 1f       	adc	r25, r25
     cdc:	88 0f       	add	r24, r24
     cde:	99 1f       	adc	r25, r25
     ce0:	8d 5f       	subi	r24, 0xFD	; 253
     ce2:	9e 4f       	sbci	r25, 0xFE	; 254
     ce4:	dc 01       	movw	r26, r24
     ce6:	2c 93       	st	X, r18
     ce8:	8f 85       	ldd	r24, Y+15	; 0x0f
     cea:	98 89       	ldd	r25, Y+16	; 0x10
     cec:	01 96       	adiw	r24, 0x01	; 1
     cee:	98 8b       	std	Y+16, r25	; 0x10
     cf0:	8f 87       	std	Y+15, r24	; 0x0f
     cf2:	8f 85       	ldd	r24, Y+15	; 0x0f
     cf4:	98 89       	ldd	r25, Y+16	; 0x10
     cf6:	04 97       	sbiw	r24, 0x04	; 4
     cf8:	0c f4       	brge	.+2      	; 0xcfc <__vector_5+0x4e4>
     cfa:	30 cf       	rjmp	.-416    	; 0xb5c <__vector_5+0x344>
     cfc:	1a 8a       	std	Y+18, r1	; 0x12
     cfe:	19 8a       	std	Y+17, r1	; 0x11
     d00:	62 c1       	rjmp	.+708    	; 0xfc6 <__vector_5+0x7ae>
     d02:	80 91 74 08 	lds	r24, 0x0874	; 0x800874 <cur_col>
     d06:	28 2f       	mov	r18, r24
     d08:	30 e0       	ldi	r19, 0x00	; 0
     d0a:	89 89       	ldd	r24, Y+17	; 0x11
     d0c:	9a 89       	ldd	r25, Y+18	; 0x12
     d0e:	f9 01       	movw	r30, r18
     d10:	e8 1b       	sub	r30, r24
     d12:	f9 0b       	sbc	r31, r25
     d14:	cf 01       	movw	r24, r30
     d16:	18 16       	cp	r1, r24
     d18:	19 06       	cpc	r1, r25
     d1a:	0c f0       	brlt	.+2      	; 0xd1e <__vector_5+0x506>
     d1c:	47 c0       	rjmp	.+142    	; 0xdac <__vector_5+0x594>
     d1e:	80 91 74 08 	lds	r24, 0x0874	; 0x800874 <cur_col>
     d22:	28 2f       	mov	r18, r24
     d24:	30 e0       	ldi	r19, 0x00	; 0
     d26:	89 89       	ldd	r24, Y+17	; 0x11
     d28:	9a 89       	ldd	r25, Y+18	; 0x12
     d2a:	28 1b       	sub	r18, r24
     d2c:	39 0b       	sbc	r19, r25
     d2e:	80 91 73 08 	lds	r24, 0x0873	; 0x800873 <cur_line>
     d32:	88 2f       	mov	r24, r24
     d34:	90 e0       	ldi	r25, 0x00	; 0
     d36:	40 91 74 08 	lds	r20, 0x0874	; 0x800874 <cur_col>
     d3a:	64 2f       	mov	r22, r20
     d3c:	70 e0       	ldi	r23, 0x00	; 0
     d3e:	49 89       	ldd	r20, Y+17	; 0x11
     d40:	5a 89       	ldd	r21, Y+18	; 0x12
     d42:	64 1b       	sub	r22, r20
     d44:	75 0b       	sbc	r23, r21
     d46:	40 91 73 08 	lds	r20, 0x0873	; 0x800873 <cur_line>
     d4a:	44 2f       	mov	r20, r20
     d4c:	50 e0       	ldi	r21, 0x00	; 0
     d4e:	66 0f       	add	r22, r22
     d50:	77 1f       	adc	r23, r23
     d52:	62 95       	swap	r22
     d54:	72 95       	swap	r23
     d56:	70 7f       	andi	r23, 0xF0	; 240
     d58:	76 27       	eor	r23, r22
     d5a:	60 7f       	andi	r22, 0xF0	; 240
     d5c:	76 27       	eor	r23, r22
     d5e:	46 0f       	add	r20, r22
     d60:	57 1f       	adc	r21, r23
     d62:	40 55       	subi	r20, 0x50	; 80
     d64:	5d 4f       	sbci	r21, 0xFD	; 253
     d66:	da 01       	movw	r26, r20
     d68:	ec 91       	ld	r30, X
     d6a:	40 91 74 08 	lds	r20, 0x0874	; 0x800874 <cur_col>
     d6e:	64 2f       	mov	r22, r20
     d70:	70 e0       	ldi	r23, 0x00	; 0
     d72:	49 89       	ldd	r20, Y+17	; 0x11
     d74:	5a 89       	ldd	r21, Y+18	; 0x12
     d76:	db 01       	movw	r26, r22
     d78:	a4 1b       	sub	r26, r20
     d7a:	b5 0b       	sbc	r27, r21
     d7c:	ad 01       	movw	r20, r26
     d7e:	44 0f       	add	r20, r20
     d80:	55 1f       	adc	r21, r21
     d82:	44 0f       	add	r20, r20
     d84:	55 1f       	adc	r21, r21
     d86:	40 50       	subi	r20, 0x00	; 0
     d88:	5f 4f       	sbci	r21, 0xFF	; 255
     d8a:	da 01       	movw	r26, r20
     d8c:	4c 91       	ld	r20, X
     d8e:	4e 2b       	or	r20, r30
     d90:	22 0f       	add	r18, r18
     d92:	33 1f       	adc	r19, r19
     d94:	22 95       	swap	r18
     d96:	32 95       	swap	r19
     d98:	30 7f       	andi	r19, 0xF0	; 240
     d9a:	32 27       	eor	r19, r18
     d9c:	20 7f       	andi	r18, 0xF0	; 240
     d9e:	32 27       	eor	r19, r18
     da0:	82 0f       	add	r24, r18
     da2:	93 1f       	adc	r25, r19
     da4:	80 55       	subi	r24, 0x50	; 80
     da6:	9d 4f       	sbci	r25, 0xFD	; 253
     da8:	fc 01       	movw	r30, r24
     daa:	40 83       	st	Z, r20
     dac:	80 91 74 08 	lds	r24, 0x0874	; 0x800874 <cur_col>
     db0:	28 2f       	mov	r18, r24
     db2:	30 e0       	ldi	r19, 0x00	; 0
     db4:	89 89       	ldd	r24, Y+17	; 0x11
     db6:	9a 89       	ldd	r25, Y+18	; 0x12
     db8:	a9 01       	movw	r20, r18
     dba:	48 1b       	sub	r20, r24
     dbc:	59 0b       	sbc	r21, r25
     dbe:	ca 01       	movw	r24, r20
     dc0:	18 16       	cp	r1, r24
     dc2:	19 06       	cpc	r1, r25
     dc4:	0c f0       	brlt	.+2      	; 0xdc8 <__vector_5+0x5b0>
     dc6:	4a c0       	rjmp	.+148    	; 0xe5c <__vector_5+0x644>
     dc8:	80 91 74 08 	lds	r24, 0x0874	; 0x800874 <cur_col>
     dcc:	28 2f       	mov	r18, r24
     dce:	30 e0       	ldi	r19, 0x00	; 0
     dd0:	89 89       	ldd	r24, Y+17	; 0x11
     dd2:	9a 89       	ldd	r25, Y+18	; 0x12
     dd4:	28 1b       	sub	r18, r24
     dd6:	39 0b       	sbc	r19, r25
     dd8:	80 91 73 08 	lds	r24, 0x0873	; 0x800873 <cur_line>
     ddc:	88 2f       	mov	r24, r24
     dde:	90 e0       	ldi	r25, 0x00	; 0
     de0:	01 96       	adiw	r24, 0x01	; 1
     de2:	40 91 74 08 	lds	r20, 0x0874	; 0x800874 <cur_col>
     de6:	64 2f       	mov	r22, r20
     de8:	70 e0       	ldi	r23, 0x00	; 0
     dea:	49 89       	ldd	r20, Y+17	; 0x11
     dec:	5a 89       	ldd	r21, Y+18	; 0x12
     dee:	64 1b       	sub	r22, r20
     df0:	75 0b       	sbc	r23, r21
     df2:	40 91 73 08 	lds	r20, 0x0873	; 0x800873 <cur_line>
     df6:	44 2f       	mov	r20, r20
     df8:	50 e0       	ldi	r21, 0x00	; 0
     dfa:	4f 5f       	subi	r20, 0xFF	; 255
     dfc:	5f 4f       	sbci	r21, 0xFF	; 255
     dfe:	66 0f       	add	r22, r22
     e00:	77 1f       	adc	r23, r23
     e02:	62 95       	swap	r22
     e04:	72 95       	swap	r23
     e06:	70 7f       	andi	r23, 0xF0	; 240
     e08:	76 27       	eor	r23, r22
     e0a:	60 7f       	andi	r22, 0xF0	; 240
     e0c:	76 27       	eor	r23, r22
     e0e:	46 0f       	add	r20, r22
     e10:	57 1f       	adc	r21, r23
     e12:	40 55       	subi	r20, 0x50	; 80
     e14:	5d 4f       	sbci	r21, 0xFD	; 253
     e16:	da 01       	movw	r26, r20
     e18:	ec 91       	ld	r30, X
     e1a:	40 91 74 08 	lds	r20, 0x0874	; 0x800874 <cur_col>
     e1e:	64 2f       	mov	r22, r20
     e20:	70 e0       	ldi	r23, 0x00	; 0
     e22:	49 89       	ldd	r20, Y+17	; 0x11
     e24:	5a 89       	ldd	r21, Y+18	; 0x12
     e26:	db 01       	movw	r26, r22
     e28:	a4 1b       	sub	r26, r20
     e2a:	b5 0b       	sbc	r27, r21
     e2c:	ad 01       	movw	r20, r26
     e2e:	44 0f       	add	r20, r20
     e30:	55 1f       	adc	r21, r21
     e32:	44 0f       	add	r20, r20
     e34:	55 1f       	adc	r21, r21
     e36:	4f 5f       	subi	r20, 0xFF	; 255
     e38:	5e 4f       	sbci	r21, 0xFE	; 254
     e3a:	da 01       	movw	r26, r20
     e3c:	4c 91       	ld	r20, X
     e3e:	4e 2b       	or	r20, r30
     e40:	22 0f       	add	r18, r18
     e42:	33 1f       	adc	r19, r19
     e44:	22 95       	swap	r18
     e46:	32 95       	swap	r19
     e48:	30 7f       	andi	r19, 0xF0	; 240
     e4a:	32 27       	eor	r19, r18
     e4c:	20 7f       	andi	r18, 0xF0	; 240
     e4e:	32 27       	eor	r19, r18
     e50:	82 0f       	add	r24, r18
     e52:	93 1f       	adc	r25, r19
     e54:	80 55       	subi	r24, 0x50	; 80
     e56:	9d 4f       	sbci	r25, 0xFD	; 253
     e58:	fc 01       	movw	r30, r24
     e5a:	40 83       	st	Z, r20
     e5c:	80 91 74 08 	lds	r24, 0x0874	; 0x800874 <cur_col>
     e60:	28 2f       	mov	r18, r24
     e62:	30 e0       	ldi	r19, 0x00	; 0
     e64:	89 89       	ldd	r24, Y+17	; 0x11
     e66:	9a 89       	ldd	r25, Y+18	; 0x12
     e68:	a9 01       	movw	r20, r18
     e6a:	48 1b       	sub	r20, r24
     e6c:	59 0b       	sbc	r21, r25
     e6e:	ca 01       	movw	r24, r20
     e70:	18 16       	cp	r1, r24
     e72:	19 06       	cpc	r1, r25
     e74:	0c f0       	brlt	.+2      	; 0xe78 <__vector_5+0x660>
     e76:	4a c0       	rjmp	.+148    	; 0xf0c <__vector_5+0x6f4>
     e78:	80 91 74 08 	lds	r24, 0x0874	; 0x800874 <cur_col>
     e7c:	28 2f       	mov	r18, r24
     e7e:	30 e0       	ldi	r19, 0x00	; 0
     e80:	89 89       	ldd	r24, Y+17	; 0x11
     e82:	9a 89       	ldd	r25, Y+18	; 0x12
     e84:	28 1b       	sub	r18, r24
     e86:	39 0b       	sbc	r19, r25
     e88:	80 91 73 08 	lds	r24, 0x0873	; 0x800873 <cur_line>
     e8c:	88 2f       	mov	r24, r24
     e8e:	90 e0       	ldi	r25, 0x00	; 0
     e90:	02 96       	adiw	r24, 0x02	; 2
     e92:	40 91 74 08 	lds	r20, 0x0874	; 0x800874 <cur_col>
     e96:	64 2f       	mov	r22, r20
     e98:	70 e0       	ldi	r23, 0x00	; 0
     e9a:	49 89       	ldd	r20, Y+17	; 0x11
     e9c:	5a 89       	ldd	r21, Y+18	; 0x12
     e9e:	64 1b       	sub	r22, r20
     ea0:	75 0b       	sbc	r23, r21
     ea2:	40 91 73 08 	lds	r20, 0x0873	; 0x800873 <cur_line>
     ea6:	44 2f       	mov	r20, r20
     ea8:	50 e0       	ldi	r21, 0x00	; 0
     eaa:	4e 5f       	subi	r20, 0xFE	; 254
     eac:	5f 4f       	sbci	r21, 0xFF	; 255
     eae:	66 0f       	add	r22, r22
     eb0:	77 1f       	adc	r23, r23
     eb2:	62 95       	swap	r22
     eb4:	72 95       	swap	r23
     eb6:	70 7f       	andi	r23, 0xF0	; 240
     eb8:	76 27       	eor	r23, r22
     eba:	60 7f       	andi	r22, 0xF0	; 240
     ebc:	76 27       	eor	r23, r22
     ebe:	46 0f       	add	r20, r22
     ec0:	57 1f       	adc	r21, r23
     ec2:	40 55       	subi	r20, 0x50	; 80
     ec4:	5d 4f       	sbci	r21, 0xFD	; 253
     ec6:	da 01       	movw	r26, r20
     ec8:	ec 91       	ld	r30, X
     eca:	40 91 74 08 	lds	r20, 0x0874	; 0x800874 <cur_col>
     ece:	64 2f       	mov	r22, r20
     ed0:	70 e0       	ldi	r23, 0x00	; 0
     ed2:	49 89       	ldd	r20, Y+17	; 0x11
     ed4:	5a 89       	ldd	r21, Y+18	; 0x12
     ed6:	db 01       	movw	r26, r22
     ed8:	a4 1b       	sub	r26, r20
     eda:	b5 0b       	sbc	r27, r21
     edc:	ad 01       	movw	r20, r26
     ede:	44 0f       	add	r20, r20
     ee0:	55 1f       	adc	r21, r21
     ee2:	44 0f       	add	r20, r20
     ee4:	55 1f       	adc	r21, r21
     ee6:	4e 5f       	subi	r20, 0xFE	; 254
     ee8:	5e 4f       	sbci	r21, 0xFE	; 254
     eea:	da 01       	movw	r26, r20
     eec:	4c 91       	ld	r20, X
     eee:	4e 2b       	or	r20, r30
     ef0:	22 0f       	add	r18, r18
     ef2:	33 1f       	adc	r19, r19
     ef4:	22 95       	swap	r18
     ef6:	32 95       	swap	r19
     ef8:	30 7f       	andi	r19, 0xF0	; 240
     efa:	32 27       	eor	r19, r18
     efc:	20 7f       	andi	r18, 0xF0	; 240
     efe:	32 27       	eor	r19, r18
     f00:	82 0f       	add	r24, r18
     f02:	93 1f       	adc	r25, r19
     f04:	80 55       	subi	r24, 0x50	; 80
     f06:	9d 4f       	sbci	r25, 0xFD	; 253
     f08:	fc 01       	movw	r30, r24
     f0a:	40 83       	st	Z, r20
     f0c:	80 91 74 08 	lds	r24, 0x0874	; 0x800874 <cur_col>
     f10:	28 2f       	mov	r18, r24
     f12:	30 e0       	ldi	r19, 0x00	; 0
     f14:	89 89       	ldd	r24, Y+17	; 0x11
     f16:	9a 89       	ldd	r25, Y+18	; 0x12
     f18:	a9 01       	movw	r20, r18
     f1a:	48 1b       	sub	r20, r24
     f1c:	59 0b       	sbc	r21, r25
     f1e:	ca 01       	movw	r24, r20
     f20:	18 16       	cp	r1, r24
     f22:	19 06       	cpc	r1, r25
     f24:	0c f0       	brlt	.+2      	; 0xf28 <__vector_5+0x710>
     f26:	4a c0       	rjmp	.+148    	; 0xfbc <__vector_5+0x7a4>
     f28:	80 91 74 08 	lds	r24, 0x0874	; 0x800874 <cur_col>
     f2c:	28 2f       	mov	r18, r24
     f2e:	30 e0       	ldi	r19, 0x00	; 0
     f30:	89 89       	ldd	r24, Y+17	; 0x11
     f32:	9a 89       	ldd	r25, Y+18	; 0x12
     f34:	28 1b       	sub	r18, r24
     f36:	39 0b       	sbc	r19, r25
     f38:	80 91 73 08 	lds	r24, 0x0873	; 0x800873 <cur_line>
     f3c:	88 2f       	mov	r24, r24
     f3e:	90 e0       	ldi	r25, 0x00	; 0
     f40:	03 96       	adiw	r24, 0x03	; 3
     f42:	40 91 74 08 	lds	r20, 0x0874	; 0x800874 <cur_col>
     f46:	64 2f       	mov	r22, r20
     f48:	70 e0       	ldi	r23, 0x00	; 0
     f4a:	49 89       	ldd	r20, Y+17	; 0x11
     f4c:	5a 89       	ldd	r21, Y+18	; 0x12
     f4e:	64 1b       	sub	r22, r20
     f50:	75 0b       	sbc	r23, r21
     f52:	40 91 73 08 	lds	r20, 0x0873	; 0x800873 <cur_line>
     f56:	44 2f       	mov	r20, r20
     f58:	50 e0       	ldi	r21, 0x00	; 0
     f5a:	4d 5f       	subi	r20, 0xFD	; 253
     f5c:	5f 4f       	sbci	r21, 0xFF	; 255
     f5e:	66 0f       	add	r22, r22
     f60:	77 1f       	adc	r23, r23
     f62:	62 95       	swap	r22
     f64:	72 95       	swap	r23
     f66:	70 7f       	andi	r23, 0xF0	; 240
     f68:	76 27       	eor	r23, r22
     f6a:	60 7f       	andi	r22, 0xF0	; 240
     f6c:	76 27       	eor	r23, r22
     f6e:	46 0f       	add	r20, r22
     f70:	57 1f       	adc	r21, r23
     f72:	40 55       	subi	r20, 0x50	; 80
     f74:	5d 4f       	sbci	r21, 0xFD	; 253
     f76:	da 01       	movw	r26, r20
     f78:	ec 91       	ld	r30, X
     f7a:	40 91 74 08 	lds	r20, 0x0874	; 0x800874 <cur_col>
     f7e:	64 2f       	mov	r22, r20
     f80:	70 e0       	ldi	r23, 0x00	; 0
     f82:	49 89       	ldd	r20, Y+17	; 0x11
     f84:	5a 89       	ldd	r21, Y+18	; 0x12
     f86:	db 01       	movw	r26, r22
     f88:	a4 1b       	sub	r26, r20
     f8a:	b5 0b       	sbc	r27, r21
     f8c:	ad 01       	movw	r20, r26
     f8e:	44 0f       	add	r20, r20
     f90:	55 1f       	adc	r21, r21
     f92:	44 0f       	add	r20, r20
     f94:	55 1f       	adc	r21, r21
     f96:	4d 5f       	subi	r20, 0xFD	; 253
     f98:	5e 4f       	sbci	r21, 0xFE	; 254
     f9a:	da 01       	movw	r26, r20
     f9c:	4c 91       	ld	r20, X
     f9e:	4e 2b       	or	r20, r30
     fa0:	22 0f       	add	r18, r18
     fa2:	33 1f       	adc	r19, r19
     fa4:	22 95       	swap	r18
     fa6:	32 95       	swap	r19
     fa8:	30 7f       	andi	r19, 0xF0	; 240
     faa:	32 27       	eor	r19, r18
     fac:	20 7f       	andi	r18, 0xF0	; 240
     fae:	32 27       	eor	r19, r18
     fb0:	82 0f       	add	r24, r18
     fb2:	93 1f       	adc	r25, r19
     fb4:	80 55       	subi	r24, 0x50	; 80
     fb6:	9d 4f       	sbci	r25, 0xFD	; 253
     fb8:	fc 01       	movw	r30, r24
     fba:	40 83       	st	Z, r20
     fbc:	89 89       	ldd	r24, Y+17	; 0x11
     fbe:	9a 89       	ldd	r25, Y+18	; 0x12
     fc0:	01 96       	adiw	r24, 0x01	; 1
     fc2:	9a 8b       	std	Y+18, r25	; 0x12
     fc4:	89 8b       	std	Y+17, r24	; 0x11
     fc6:	89 89       	ldd	r24, Y+17	; 0x11
     fc8:	9a 89       	ldd	r25, Y+18	; 0x12
     fca:	04 97       	sbiw	r24, 0x04	; 4
     fcc:	0c f4       	brge	.+2      	; 0xfd0 <__vector_5+0x7b8>
     fce:	99 ce       	rjmp	.-718    	; 0xd02 <__vector_5+0x4ea>
     fd0:	00 00       	nop
     fd2:	62 96       	adiw	r28, 0x12	; 18
     fd4:	0f b6       	in	r0, 0x3f	; 63
     fd6:	f8 94       	cli
     fd8:	de bf       	out	0x3e, r29	; 62
     fda:	0f be       	out	0x3f, r0	; 63
     fdc:	cd bf       	out	0x3d, r28	; 61
     fde:	df 91       	pop	r29
     fe0:	cf 91       	pop	r28
     fe2:	ff 91       	pop	r31
     fe4:	ef 91       	pop	r30
     fe6:	bf 91       	pop	r27
     fe8:	af 91       	pop	r26
     fea:	9f 91       	pop	r25
     fec:	8f 91       	pop	r24
     fee:	7f 91       	pop	r23
     ff0:	6f 91       	pop	r22
     ff2:	5f 91       	pop	r21
     ff4:	4f 91       	pop	r20
     ff6:	3f 91       	pop	r19
     ff8:	2f 91       	pop	r18
     ffa:	0f 90       	pop	r0
     ffc:	00 92 5b 00 	sts	0x005B, r0	; 0x80005b <__TEXT_REGION_LENGTH__+0x7e005b>
    1000:	0f 90       	pop	r0
    1002:	00 92 5f 00 	sts	0x005F, r0	; 0x80005f <__TEXT_REGION_LENGTH__+0x7e005f>
    1006:	0f 90       	pop	r0
    1008:	1f 90       	pop	r1
    100a:	18 95       	reti

0000100c <__vector_6>:
    100c:	1f 92       	push	r1
    100e:	0f 92       	push	r0
    1010:	00 90 5f 00 	lds	r0, 0x005F	; 0x80005f <__TEXT_REGION_LENGTH__+0x7e005f>
    1014:	0f 92       	push	r0
    1016:	11 24       	eor	r1, r1
    1018:	00 90 5b 00 	lds	r0, 0x005B	; 0x80005b <__TEXT_REGION_LENGTH__+0x7e005b>
    101c:	0f 92       	push	r0
    101e:	2f 93       	push	r18
    1020:	3f 93       	push	r19
    1022:	4f 93       	push	r20
    1024:	5f 93       	push	r21
    1026:	6f 93       	push	r22
    1028:	7f 93       	push	r23
    102a:	8f 93       	push	r24
    102c:	9f 93       	push	r25
    102e:	af 93       	push	r26
    1030:	bf 93       	push	r27
    1032:	ef 93       	push	r30
    1034:	ff 93       	push	r31
    1036:	cf 93       	push	r28
    1038:	df 93       	push	r29
    103a:	cd b7       	in	r28, 0x3d	; 61
    103c:	de b7       	in	r29, 0x3e	; 62
    103e:	62 97       	sbiw	r28, 0x12	; 18
    1040:	de bf       	out	0x3e, r29	; 62
    1042:	cd bf       	out	0x3d, r28	; 61
    1044:	1a 82       	std	Y+2, r1	; 0x02
    1046:	19 82       	std	Y+1, r1	; 0x01
    1048:	37 c0       	rjmp	.+110    	; 0x10b8 <__vector_6+0xac>
    104a:	1c 82       	std	Y+4, r1	; 0x04
    104c:	1b 82       	std	Y+3, r1	; 0x03
    104e:	2b c0       	rjmp	.+86     	; 0x10a6 <__vector_6+0x9a>
    1050:	89 81       	ldd	r24, Y+1	; 0x01
    1052:	9a 81       	ldd	r25, Y+2	; 0x02
    1054:	9c 01       	movw	r18, r24
    1056:	22 0f       	add	r18, r18
    1058:	33 1f       	adc	r19, r19
    105a:	22 95       	swap	r18
    105c:	32 95       	swap	r19
    105e:	30 7f       	andi	r19, 0xF0	; 240
    1060:	32 27       	eor	r19, r18
    1062:	20 7f       	andi	r18, 0xF0	; 240
    1064:	32 27       	eor	r19, r18
    1066:	8b 81       	ldd	r24, Y+3	; 0x03
    1068:	9c 81       	ldd	r25, Y+4	; 0x04
    106a:	82 0f       	add	r24, r18
    106c:	93 1f       	adc	r25, r19
    106e:	80 5d       	subi	r24, 0xD0	; 208
    1070:	9e 4f       	sbci	r25, 0xFE	; 254
    1072:	dc 01       	movw	r26, r24
    1074:	4c 91       	ld	r20, X
    1076:	89 81       	ldd	r24, Y+1	; 0x01
    1078:	9a 81       	ldd	r25, Y+2	; 0x02
    107a:	9c 01       	movw	r18, r24
    107c:	22 0f       	add	r18, r18
    107e:	33 1f       	adc	r19, r19
    1080:	22 95       	swap	r18
    1082:	32 95       	swap	r19
    1084:	30 7f       	andi	r19, 0xF0	; 240
    1086:	32 27       	eor	r19, r18
    1088:	20 7f       	andi	r18, 0xF0	; 240
    108a:	32 27       	eor	r19, r18
    108c:	8b 81       	ldd	r24, Y+3	; 0x03
    108e:	9c 81       	ldd	r25, Y+4	; 0x04
    1090:	82 0f       	add	r24, r18
    1092:	93 1f       	adc	r25, r19
    1094:	80 55       	subi	r24, 0x50	; 80
    1096:	9d 4f       	sbci	r25, 0xFD	; 253
    1098:	fc 01       	movw	r30, r24
    109a:	40 83       	st	Z, r20
    109c:	8b 81       	ldd	r24, Y+3	; 0x03
    109e:	9c 81       	ldd	r25, Y+4	; 0x04
    10a0:	01 96       	adiw	r24, 0x01	; 1
    10a2:	9c 83       	std	Y+4, r25	; 0x04
    10a4:	8b 83       	std	Y+3, r24	; 0x03
    10a6:	8b 81       	ldd	r24, Y+3	; 0x03
    10a8:	9c 81       	ldd	r25, Y+4	; 0x04
    10aa:	80 97       	sbiw	r24, 0x20	; 32
    10ac:	8c f2       	brlt	.-94     	; 0x1050 <__vector_6+0x44>
    10ae:	89 81       	ldd	r24, Y+1	; 0x01
    10b0:	9a 81       	ldd	r25, Y+2	; 0x02
    10b2:	01 96       	adiw	r24, 0x01	; 1
    10b4:	9a 83       	std	Y+2, r25	; 0x02
    10b6:	89 83       	std	Y+1, r24	; 0x01
    10b8:	89 81       	ldd	r24, Y+1	; 0x01
    10ba:	9a 81       	ldd	r25, Y+2	; 0x02
    10bc:	0c 97       	sbiw	r24, 0x0c	; 12
    10be:	2c f2       	brlt	.-118    	; 0x104a <__vector_6+0x3e>
    10c0:	80 91 75 08 	lds	r24, 0x0875	; 0x800875 <pattern>
    10c4:	8f 5f       	subi	r24, 0xFF	; 255
    10c6:	80 93 75 08 	sts	0x0875, r24	; 0x800875 <pattern>
    10ca:	80 91 75 08 	lds	r24, 0x0875	; 0x800875 <pattern>
    10ce:	84 30       	cpi	r24, 0x04	; 4
    10d0:	11 f4       	brne	.+4      	; 0x10d6 <__vector_6+0xca>
    10d2:	10 92 75 08 	sts	0x0875, r1	; 0x800875 <pattern>
    10d6:	1e 82       	std	Y+6, r1	; 0x06
    10d8:	1d 82       	std	Y+5, r1	; 0x05
    10da:	20 c0       	rjmp	.+64     	; 0x111c <__stack+0x1d>
    10dc:	18 86       	std	Y+8, r1	; 0x08
    10de:	1f 82       	std	Y+7, r1	; 0x07
    10e0:	14 c0       	rjmp	.+40     	; 0x110a <__stack+0xb>
    10e2:	8d 81       	ldd	r24, Y+5	; 0x05
    10e4:	9e 81       	ldd	r25, Y+6	; 0x06
    10e6:	9c 01       	movw	r18, r24
    10e8:	22 0f       	add	r18, r18
    10ea:	33 1f       	adc	r19, r19
    10ec:	22 0f       	add	r18, r18
    10ee:	33 1f       	adc	r19, r19
    10f0:	8f 81       	ldd	r24, Y+7	; 0x07
    10f2:	98 85       	ldd	r25, Y+8	; 0x08
    10f4:	82 0f       	add	r24, r18
    10f6:	93 1f       	adc	r25, r19
    10f8:	80 50       	subi	r24, 0x00	; 0
    10fa:	9f 4f       	sbci	r25, 0xFF	; 255
    10fc:	dc 01       	movw	r26, r24
    10fe:	1c 92       	st	X, r1
    1100:	8f 81       	ldd	r24, Y+7	; 0x07
    1102:	98 85       	ldd	r25, Y+8	; 0x08
    1104:	01 96       	adiw	r24, 0x01	; 1
    1106:	98 87       	std	Y+8, r25	; 0x08
    1108:	8f 83       	std	Y+7, r24	; 0x07
    110a:	8f 81       	ldd	r24, Y+7	; 0x07
    110c:	98 85       	ldd	r25, Y+8	; 0x08
    110e:	04 97       	sbiw	r24, 0x04	; 4
    1110:	44 f3       	brlt	.-48     	; 0x10e2 <__vector_6+0xd6>
    1112:	8d 81       	ldd	r24, Y+5	; 0x05
    1114:	9e 81       	ldd	r25, Y+6	; 0x06
    1116:	01 96       	adiw	r24, 0x01	; 1
    1118:	9e 83       	std	Y+6, r25	; 0x06
    111a:	8d 83       	std	Y+5, r24	; 0x05
    111c:	8d 81       	ldd	r24, Y+5	; 0x05
    111e:	9e 81       	ldd	r25, Y+6	; 0x06
    1120:	0c 97       	sbiw	r24, 0x0c	; 12
    1122:	e4 f2       	brlt	.-72     	; 0x10dc <__vector_6+0xd0>
    1124:	1a 86       	std	Y+10, r1	; 0x0a
    1126:	19 86       	std	Y+9, r1	; 0x09
    1128:	cb c0       	rjmp	.+406    	; 0x12c0 <__stack+0x1c1>
    112a:	80 91 74 08 	lds	r24, 0x0874	; 0x800874 <cur_col>
    112e:	28 2f       	mov	r18, r24
    1130:	30 e0       	ldi	r19, 0x00	; 0
    1132:	89 85       	ldd	r24, Y+9	; 0x09
    1134:	9a 85       	ldd	r25, Y+10	; 0x0a
    1136:	f9 01       	movw	r30, r18
    1138:	e8 1b       	sub	r30, r24
    113a:	f9 0b       	sbc	r31, r25
    113c:	cf 01       	movw	r24, r30
    113e:	20 91 76 08 	lds	r18, 0x0876	; 0x800876 <shape>
    1142:	62 2f       	mov	r22, r18
    1144:	70 e0       	ldi	r23, 0x00	; 0
    1146:	20 91 75 08 	lds	r18, 0x0875	; 0x800875 <pattern>
    114a:	22 2f       	mov	r18, r18
    114c:	30 e0       	ldi	r19, 0x00	; 0
    114e:	4c e8       	ldi	r20, 0x8C	; 140
    1150:	50 e0       	ldi	r21, 0x00	; 0
    1152:	66 0f       	add	r22, r22
    1154:	77 1f       	adc	r23, r23
    1156:	66 0f       	add	r22, r22
    1158:	77 1f       	adc	r23, r23
    115a:	26 0f       	add	r18, r22
    115c:	37 1f       	adc	r19, r23
    115e:	22 95       	swap	r18
    1160:	32 95       	swap	r19
    1162:	30 7f       	andi	r19, 0xF0	; 240
    1164:	32 27       	eor	r19, r18
    1166:	20 7f       	andi	r18, 0xF0	; 240
    1168:	32 27       	eor	r19, r18
    116a:	42 0f       	add	r20, r18
    116c:	53 1f       	adc	r21, r19
    116e:	29 85       	ldd	r18, Y+9	; 0x09
    1170:	3a 85       	ldd	r19, Y+10	; 0x0a
    1172:	24 0f       	add	r18, r20
    1174:	35 1f       	adc	r19, r21
    1176:	f9 01       	movw	r30, r18
    1178:	24 91       	lpm	r18, Z
    117a:	88 0f       	add	r24, r24
    117c:	99 1f       	adc	r25, r25
    117e:	88 0f       	add	r24, r24
    1180:	99 1f       	adc	r25, r25
    1182:	80 50       	subi	r24, 0x00	; 0
    1184:	9f 4f       	sbci	r25, 0xFF	; 255
    1186:	dc 01       	movw	r26, r24
    1188:	2c 93       	st	X, r18
    118a:	80 91 74 08 	lds	r24, 0x0874	; 0x800874 <cur_col>
    118e:	28 2f       	mov	r18, r24
    1190:	30 e0       	ldi	r19, 0x00	; 0
    1192:	89 85       	ldd	r24, Y+9	; 0x09
    1194:	9a 85       	ldd	r25, Y+10	; 0x0a
    1196:	f9 01       	movw	r30, r18
    1198:	e8 1b       	sub	r30, r24
    119a:	f9 0b       	sbc	r31, r25
    119c:	cf 01       	movw	r24, r30
    119e:	20 91 76 08 	lds	r18, 0x0876	; 0x800876 <shape>
    11a2:	e2 2f       	mov	r30, r18
    11a4:	f0 e0       	ldi	r31, 0x00	; 0
    11a6:	20 91 75 08 	lds	r18, 0x0875	; 0x800875 <pattern>
    11aa:	42 2f       	mov	r20, r18
    11ac:	50 e0       	ldi	r21, 0x00	; 0
    11ae:	29 85       	ldd	r18, Y+9	; 0x09
    11b0:	3a 85       	ldd	r19, Y+10	; 0x0a
    11b2:	2c 5f       	subi	r18, 0xFC	; 252
    11b4:	3f 4f       	sbci	r19, 0xFF	; 255
    11b6:	6c e8       	ldi	r22, 0x8C	; 140
    11b8:	70 e0       	ldi	r23, 0x00	; 0
    11ba:	ee 0f       	add	r30, r30
    11bc:	ff 1f       	adc	r31, r31
    11be:	ee 0f       	add	r30, r30
    11c0:	ff 1f       	adc	r31, r31
    11c2:	4e 0f       	add	r20, r30
    11c4:	5f 1f       	adc	r21, r31
    11c6:	42 95       	swap	r20
    11c8:	52 95       	swap	r21
    11ca:	50 7f       	andi	r21, 0xF0	; 240
    11cc:	54 27       	eor	r21, r20
    11ce:	40 7f       	andi	r20, 0xF0	; 240
    11d0:	54 27       	eor	r21, r20
    11d2:	46 0f       	add	r20, r22
    11d4:	57 1f       	adc	r21, r23
    11d6:	24 0f       	add	r18, r20
    11d8:	35 1f       	adc	r19, r21
    11da:	f9 01       	movw	r30, r18
    11dc:	24 91       	lpm	r18, Z
    11de:	88 0f       	add	r24, r24
    11e0:	99 1f       	adc	r25, r25
    11e2:	88 0f       	add	r24, r24
    11e4:	99 1f       	adc	r25, r25
    11e6:	8f 5f       	subi	r24, 0xFF	; 255
    11e8:	9e 4f       	sbci	r25, 0xFE	; 254
    11ea:	dc 01       	movw	r26, r24
    11ec:	2c 93       	st	X, r18
    11ee:	80 91 74 08 	lds	r24, 0x0874	; 0x800874 <cur_col>
    11f2:	28 2f       	mov	r18, r24
    11f4:	30 e0       	ldi	r19, 0x00	; 0
    11f6:	89 85       	ldd	r24, Y+9	; 0x09
    11f8:	9a 85       	ldd	r25, Y+10	; 0x0a
    11fa:	f9 01       	movw	r30, r18
    11fc:	e8 1b       	sub	r30, r24
    11fe:	f9 0b       	sbc	r31, r25
    1200:	cf 01       	movw	r24, r30
    1202:	20 91 76 08 	lds	r18, 0x0876	; 0x800876 <shape>
    1206:	e2 2f       	mov	r30, r18
    1208:	f0 e0       	ldi	r31, 0x00	; 0
    120a:	20 91 75 08 	lds	r18, 0x0875	; 0x800875 <pattern>
    120e:	42 2f       	mov	r20, r18
    1210:	50 e0       	ldi	r21, 0x00	; 0
    1212:	29 85       	ldd	r18, Y+9	; 0x09
    1214:	3a 85       	ldd	r19, Y+10	; 0x0a
    1216:	28 5f       	subi	r18, 0xF8	; 248
    1218:	3f 4f       	sbci	r19, 0xFF	; 255
    121a:	6c e8       	ldi	r22, 0x8C	; 140
    121c:	70 e0       	ldi	r23, 0x00	; 0
    121e:	ee 0f       	add	r30, r30
    1220:	ff 1f       	adc	r31, r31
    1222:	ee 0f       	add	r30, r30
    1224:	ff 1f       	adc	r31, r31
    1226:	4e 0f       	add	r20, r30
    1228:	5f 1f       	adc	r21, r31
    122a:	42 95       	swap	r20
    122c:	52 95       	swap	r21
    122e:	50 7f       	andi	r21, 0xF0	; 240
    1230:	54 27       	eor	r21, r20
    1232:	40 7f       	andi	r20, 0xF0	; 240
    1234:	54 27       	eor	r21, r20
    1236:	46 0f       	add	r20, r22
    1238:	57 1f       	adc	r21, r23
    123a:	24 0f       	add	r18, r20
    123c:	35 1f       	adc	r19, r21
    123e:	f9 01       	movw	r30, r18
    1240:	24 91       	lpm	r18, Z
    1242:	88 0f       	add	r24, r24
    1244:	99 1f       	adc	r25, r25
    1246:	88 0f       	add	r24, r24
    1248:	99 1f       	adc	r25, r25
    124a:	8e 5f       	subi	r24, 0xFE	; 254
    124c:	9e 4f       	sbci	r25, 0xFE	; 254
    124e:	dc 01       	movw	r26, r24
    1250:	2c 93       	st	X, r18
    1252:	80 91 74 08 	lds	r24, 0x0874	; 0x800874 <cur_col>
    1256:	28 2f       	mov	r18, r24
    1258:	30 e0       	ldi	r19, 0x00	; 0
    125a:	89 85       	ldd	r24, Y+9	; 0x09
    125c:	9a 85       	ldd	r25, Y+10	; 0x0a
    125e:	f9 01       	movw	r30, r18
    1260:	e8 1b       	sub	r30, r24
    1262:	f9 0b       	sbc	r31, r25
    1264:	cf 01       	movw	r24, r30
    1266:	20 91 76 08 	lds	r18, 0x0876	; 0x800876 <shape>
    126a:	e2 2f       	mov	r30, r18
    126c:	f0 e0       	ldi	r31, 0x00	; 0
    126e:	20 91 75 08 	lds	r18, 0x0875	; 0x800875 <pattern>
    1272:	42 2f       	mov	r20, r18
    1274:	50 e0       	ldi	r21, 0x00	; 0
    1276:	29 85       	ldd	r18, Y+9	; 0x09
    1278:	3a 85       	ldd	r19, Y+10	; 0x0a
    127a:	24 5f       	subi	r18, 0xF4	; 244
    127c:	3f 4f       	sbci	r19, 0xFF	; 255
    127e:	6c e8       	ldi	r22, 0x8C	; 140
    1280:	70 e0       	ldi	r23, 0x00	; 0
    1282:	ee 0f       	add	r30, r30
    1284:	ff 1f       	adc	r31, r31
    1286:	ee 0f       	add	r30, r30
    1288:	ff 1f       	adc	r31, r31
    128a:	4e 0f       	add	r20, r30
    128c:	5f 1f       	adc	r21, r31
    128e:	42 95       	swap	r20
    1290:	52 95       	swap	r21
    1292:	50 7f       	andi	r21, 0xF0	; 240
    1294:	54 27       	eor	r21, r20
    1296:	40 7f       	andi	r20, 0xF0	; 240
    1298:	54 27       	eor	r21, r20
    129a:	46 0f       	add	r20, r22
    129c:	57 1f       	adc	r21, r23
    129e:	24 0f       	add	r18, r20
    12a0:	35 1f       	adc	r19, r21
    12a2:	f9 01       	movw	r30, r18
    12a4:	24 91       	lpm	r18, Z
    12a6:	88 0f       	add	r24, r24
    12a8:	99 1f       	adc	r25, r25
    12aa:	88 0f       	add	r24, r24
    12ac:	99 1f       	adc	r25, r25
    12ae:	8d 5f       	subi	r24, 0xFD	; 253
    12b0:	9e 4f       	sbci	r25, 0xFE	; 254
    12b2:	dc 01       	movw	r26, r24
    12b4:	2c 93       	st	X, r18
    12b6:	89 85       	ldd	r24, Y+9	; 0x09
    12b8:	9a 85       	ldd	r25, Y+10	; 0x0a
    12ba:	01 96       	adiw	r24, 0x01	; 1
    12bc:	9a 87       	std	Y+10, r25	; 0x0a
    12be:	89 87       	std	Y+9, r24	; 0x09
    12c0:	89 85       	ldd	r24, Y+9	; 0x09
    12c2:	9a 85       	ldd	r25, Y+10	; 0x0a
    12c4:	04 97       	sbiw	r24, 0x04	; 4
    12c6:	0c f4       	brge	.+2      	; 0x12ca <__stack+0x1cb>
    12c8:	30 cf       	rjmp	.-416    	; 0x112a <__stack+0x2b>
    12ca:	0e 94 d1 1c 	call	0x39a2	; 0x39a2 <Collision>
    12ce:	81 30       	cpi	r24, 0x01	; 1
    12d0:	29 f4       	brne	.+10     	; 0x12dc <__stack+0x1dd>
    12d2:	80 91 75 08 	lds	r24, 0x0875	; 0x800875 <pattern>
    12d6:	81 50       	subi	r24, 0x01	; 1
    12d8:	80 93 75 08 	sts	0x0875, r24	; 0x800875 <pattern>
    12dc:	1c 86       	std	Y+12, r1	; 0x0c
    12de:	1b 86       	std	Y+11, r1	; 0x0b
    12e0:	20 c0       	rjmp	.+64     	; 0x1322 <__stack+0x223>
    12e2:	1e 86       	std	Y+14, r1	; 0x0e
    12e4:	1d 86       	std	Y+13, r1	; 0x0d
    12e6:	14 c0       	rjmp	.+40     	; 0x1310 <__stack+0x211>
    12e8:	8b 85       	ldd	r24, Y+11	; 0x0b
    12ea:	9c 85       	ldd	r25, Y+12	; 0x0c
    12ec:	9c 01       	movw	r18, r24
    12ee:	22 0f       	add	r18, r18
    12f0:	33 1f       	adc	r19, r19
    12f2:	22 0f       	add	r18, r18
    12f4:	33 1f       	adc	r19, r19
    12f6:	8d 85       	ldd	r24, Y+13	; 0x0d
    12f8:	9e 85       	ldd	r25, Y+14	; 0x0e
    12fa:	82 0f       	add	r24, r18
    12fc:	93 1f       	adc	r25, r19
    12fe:	80 50       	subi	r24, 0x00	; 0
    1300:	9f 4f       	sbci	r25, 0xFF	; 255
    1302:	fc 01       	movw	r30, r24
    1304:	10 82       	st	Z, r1
    1306:	8d 85       	ldd	r24, Y+13	; 0x0d
    1308:	9e 85       	ldd	r25, Y+14	; 0x0e
    130a:	01 96       	adiw	r24, 0x01	; 1
    130c:	9e 87       	std	Y+14, r25	; 0x0e
    130e:	8d 87       	std	Y+13, r24	; 0x0d
    1310:	8d 85       	ldd	r24, Y+13	; 0x0d
    1312:	9e 85       	ldd	r25, Y+14	; 0x0e
    1314:	04 97       	sbiw	r24, 0x04	; 4
    1316:	44 f3       	brlt	.-48     	; 0x12e8 <__stack+0x1e9>
    1318:	8b 85       	ldd	r24, Y+11	; 0x0b
    131a:	9c 85       	ldd	r25, Y+12	; 0x0c
    131c:	01 96       	adiw	r24, 0x01	; 1
    131e:	9c 87       	std	Y+12, r25	; 0x0c
    1320:	8b 87       	std	Y+11, r24	; 0x0b
    1322:	8b 85       	ldd	r24, Y+11	; 0x0b
    1324:	9c 85       	ldd	r25, Y+12	; 0x0c
    1326:	0c 97       	sbiw	r24, 0x0c	; 12
    1328:	e4 f2       	brlt	.-72     	; 0x12e2 <__stack+0x1e3>
    132a:	18 8a       	std	Y+16, r1	; 0x10
    132c:	1f 86       	std	Y+15, r1	; 0x0f
    132e:	cb c0       	rjmp	.+406    	; 0x14c6 <__stack+0x3c7>
    1330:	80 91 74 08 	lds	r24, 0x0874	; 0x800874 <cur_col>
    1334:	28 2f       	mov	r18, r24
    1336:	30 e0       	ldi	r19, 0x00	; 0
    1338:	8f 85       	ldd	r24, Y+15	; 0x0f
    133a:	98 89       	ldd	r25, Y+16	; 0x10
    133c:	a9 01       	movw	r20, r18
    133e:	48 1b       	sub	r20, r24
    1340:	59 0b       	sbc	r21, r25
    1342:	ca 01       	movw	r24, r20
    1344:	20 91 76 08 	lds	r18, 0x0876	; 0x800876 <shape>
    1348:	62 2f       	mov	r22, r18
    134a:	70 e0       	ldi	r23, 0x00	; 0
    134c:	20 91 75 08 	lds	r18, 0x0875	; 0x800875 <pattern>
    1350:	22 2f       	mov	r18, r18
    1352:	30 e0       	ldi	r19, 0x00	; 0
    1354:	4c e8       	ldi	r20, 0x8C	; 140
    1356:	50 e0       	ldi	r21, 0x00	; 0
    1358:	66 0f       	add	r22, r22
    135a:	77 1f       	adc	r23, r23
    135c:	66 0f       	add	r22, r22
    135e:	77 1f       	adc	r23, r23
    1360:	26 0f       	add	r18, r22
    1362:	37 1f       	adc	r19, r23
    1364:	22 95       	swap	r18
    1366:	32 95       	swap	r19
    1368:	30 7f       	andi	r19, 0xF0	; 240
    136a:	32 27       	eor	r19, r18
    136c:	20 7f       	andi	r18, 0xF0	; 240
    136e:	32 27       	eor	r19, r18
    1370:	42 0f       	add	r20, r18
    1372:	53 1f       	adc	r21, r19
    1374:	2f 85       	ldd	r18, Y+15	; 0x0f
    1376:	38 89       	ldd	r19, Y+16	; 0x10
    1378:	24 0f       	add	r18, r20
    137a:	35 1f       	adc	r19, r21
    137c:	f9 01       	movw	r30, r18
    137e:	24 91       	lpm	r18, Z
    1380:	88 0f       	add	r24, r24
    1382:	99 1f       	adc	r25, r25
    1384:	88 0f       	add	r24, r24
    1386:	99 1f       	adc	r25, r25
    1388:	80 50       	subi	r24, 0x00	; 0
    138a:	9f 4f       	sbci	r25, 0xFF	; 255
    138c:	dc 01       	movw	r26, r24
    138e:	2c 93       	st	X, r18
    1390:	80 91 74 08 	lds	r24, 0x0874	; 0x800874 <cur_col>
    1394:	28 2f       	mov	r18, r24
    1396:	30 e0       	ldi	r19, 0x00	; 0
    1398:	8f 85       	ldd	r24, Y+15	; 0x0f
    139a:	98 89       	ldd	r25, Y+16	; 0x10
    139c:	f9 01       	movw	r30, r18
    139e:	e8 1b       	sub	r30, r24
    13a0:	f9 0b       	sbc	r31, r25
    13a2:	cf 01       	movw	r24, r30
    13a4:	20 91 76 08 	lds	r18, 0x0876	; 0x800876 <shape>
    13a8:	e2 2f       	mov	r30, r18
    13aa:	f0 e0       	ldi	r31, 0x00	; 0
    13ac:	20 91 75 08 	lds	r18, 0x0875	; 0x800875 <pattern>
    13b0:	42 2f       	mov	r20, r18
    13b2:	50 e0       	ldi	r21, 0x00	; 0
    13b4:	2f 85       	ldd	r18, Y+15	; 0x0f
    13b6:	38 89       	ldd	r19, Y+16	; 0x10
    13b8:	2c 5f       	subi	r18, 0xFC	; 252
    13ba:	3f 4f       	sbci	r19, 0xFF	; 255
    13bc:	6c e8       	ldi	r22, 0x8C	; 140
    13be:	70 e0       	ldi	r23, 0x00	; 0
    13c0:	ee 0f       	add	r30, r30
    13c2:	ff 1f       	adc	r31, r31
    13c4:	ee 0f       	add	r30, r30
    13c6:	ff 1f       	adc	r31, r31
    13c8:	4e 0f       	add	r20, r30
    13ca:	5f 1f       	adc	r21, r31
    13cc:	42 95       	swap	r20
    13ce:	52 95       	swap	r21
    13d0:	50 7f       	andi	r21, 0xF0	; 240
    13d2:	54 27       	eor	r21, r20
    13d4:	40 7f       	andi	r20, 0xF0	; 240
    13d6:	54 27       	eor	r21, r20
    13d8:	46 0f       	add	r20, r22
    13da:	57 1f       	adc	r21, r23
    13dc:	24 0f       	add	r18, r20
    13de:	35 1f       	adc	r19, r21
    13e0:	f9 01       	movw	r30, r18
    13e2:	24 91       	lpm	r18, Z
    13e4:	88 0f       	add	r24, r24
    13e6:	99 1f       	adc	r25, r25
    13e8:	88 0f       	add	r24, r24
    13ea:	99 1f       	adc	r25, r25
    13ec:	8f 5f       	subi	r24, 0xFF	; 255
    13ee:	9e 4f       	sbci	r25, 0xFE	; 254
    13f0:	dc 01       	movw	r26, r24
    13f2:	2c 93       	st	X, r18
    13f4:	80 91 74 08 	lds	r24, 0x0874	; 0x800874 <cur_col>
    13f8:	28 2f       	mov	r18, r24
    13fa:	30 e0       	ldi	r19, 0x00	; 0
    13fc:	8f 85       	ldd	r24, Y+15	; 0x0f
    13fe:	98 89       	ldd	r25, Y+16	; 0x10
    1400:	f9 01       	movw	r30, r18
    1402:	e8 1b       	sub	r30, r24
    1404:	f9 0b       	sbc	r31, r25
    1406:	cf 01       	movw	r24, r30
    1408:	20 91 76 08 	lds	r18, 0x0876	; 0x800876 <shape>
    140c:	e2 2f       	mov	r30, r18
    140e:	f0 e0       	ldi	r31, 0x00	; 0
    1410:	20 91 75 08 	lds	r18, 0x0875	; 0x800875 <pattern>
    1414:	42 2f       	mov	r20, r18
    1416:	50 e0       	ldi	r21, 0x00	; 0
    1418:	2f 85       	ldd	r18, Y+15	; 0x0f
    141a:	38 89       	ldd	r19, Y+16	; 0x10
    141c:	28 5f       	subi	r18, 0xF8	; 248
    141e:	3f 4f       	sbci	r19, 0xFF	; 255
    1420:	6c e8       	ldi	r22, 0x8C	; 140
    1422:	70 e0       	ldi	r23, 0x00	; 0
    1424:	ee 0f       	add	r30, r30
    1426:	ff 1f       	adc	r31, r31
    1428:	ee 0f       	add	r30, r30
    142a:	ff 1f       	adc	r31, r31
    142c:	4e 0f       	add	r20, r30
    142e:	5f 1f       	adc	r21, r31
    1430:	42 95       	swap	r20
    1432:	52 95       	swap	r21
    1434:	50 7f       	andi	r21, 0xF0	; 240
    1436:	54 27       	eor	r21, r20
    1438:	40 7f       	andi	r20, 0xF0	; 240
    143a:	54 27       	eor	r21, r20
    143c:	46 0f       	add	r20, r22
    143e:	57 1f       	adc	r21, r23
    1440:	24 0f       	add	r18, r20
    1442:	35 1f       	adc	r19, r21
    1444:	f9 01       	movw	r30, r18
    1446:	24 91       	lpm	r18, Z
    1448:	88 0f       	add	r24, r24
    144a:	99 1f       	adc	r25, r25
    144c:	88 0f       	add	r24, r24
    144e:	99 1f       	adc	r25, r25
    1450:	8e 5f       	subi	r24, 0xFE	; 254
    1452:	9e 4f       	sbci	r25, 0xFE	; 254
    1454:	dc 01       	movw	r26, r24
    1456:	2c 93       	st	X, r18
    1458:	80 91 74 08 	lds	r24, 0x0874	; 0x800874 <cur_col>
    145c:	28 2f       	mov	r18, r24
    145e:	30 e0       	ldi	r19, 0x00	; 0
    1460:	8f 85       	ldd	r24, Y+15	; 0x0f
    1462:	98 89       	ldd	r25, Y+16	; 0x10
    1464:	f9 01       	movw	r30, r18
    1466:	e8 1b       	sub	r30, r24
    1468:	f9 0b       	sbc	r31, r25
    146a:	cf 01       	movw	r24, r30
    146c:	20 91 76 08 	lds	r18, 0x0876	; 0x800876 <shape>
    1470:	e2 2f       	mov	r30, r18
    1472:	f0 e0       	ldi	r31, 0x00	; 0
    1474:	20 91 75 08 	lds	r18, 0x0875	; 0x800875 <pattern>
    1478:	42 2f       	mov	r20, r18
    147a:	50 e0       	ldi	r21, 0x00	; 0
    147c:	2f 85       	ldd	r18, Y+15	; 0x0f
    147e:	38 89       	ldd	r19, Y+16	; 0x10
    1480:	24 5f       	subi	r18, 0xF4	; 244
    1482:	3f 4f       	sbci	r19, 0xFF	; 255
    1484:	6c e8       	ldi	r22, 0x8C	; 140
    1486:	70 e0       	ldi	r23, 0x00	; 0
    1488:	ee 0f       	add	r30, r30
    148a:	ff 1f       	adc	r31, r31
    148c:	ee 0f       	add	r30, r30
    148e:	ff 1f       	adc	r31, r31
    1490:	4e 0f       	add	r20, r30
    1492:	5f 1f       	adc	r21, r31
    1494:	42 95       	swap	r20
    1496:	52 95       	swap	r21
    1498:	50 7f       	andi	r21, 0xF0	; 240
    149a:	54 27       	eor	r21, r20
    149c:	40 7f       	andi	r20, 0xF0	; 240
    149e:	54 27       	eor	r21, r20
    14a0:	46 0f       	add	r20, r22
    14a2:	57 1f       	adc	r21, r23
    14a4:	24 0f       	add	r18, r20
    14a6:	35 1f       	adc	r19, r21
    14a8:	f9 01       	movw	r30, r18
    14aa:	24 91       	lpm	r18, Z
    14ac:	88 0f       	add	r24, r24
    14ae:	99 1f       	adc	r25, r25
    14b0:	88 0f       	add	r24, r24
    14b2:	99 1f       	adc	r25, r25
    14b4:	8d 5f       	subi	r24, 0xFD	; 253
    14b6:	9e 4f       	sbci	r25, 0xFE	; 254
    14b8:	dc 01       	movw	r26, r24
    14ba:	2c 93       	st	X, r18
    14bc:	8f 85       	ldd	r24, Y+15	; 0x0f
    14be:	98 89       	ldd	r25, Y+16	; 0x10
    14c0:	01 96       	adiw	r24, 0x01	; 1
    14c2:	98 8b       	std	Y+16, r25	; 0x10
    14c4:	8f 87       	std	Y+15, r24	; 0x0f
    14c6:	8f 85       	ldd	r24, Y+15	; 0x0f
    14c8:	98 89       	ldd	r25, Y+16	; 0x10
    14ca:	04 97       	sbiw	r24, 0x04	; 4
    14cc:	0c f4       	brge	.+2      	; 0x14d0 <__stack+0x3d1>
    14ce:	30 cf       	rjmp	.-416    	; 0x1330 <__stack+0x231>
    14d0:	1a 8a       	std	Y+18, r1	; 0x12
    14d2:	19 8a       	std	Y+17, r1	; 0x11
    14d4:	62 c1       	rjmp	.+708    	; 0x179a <__stack+0x69b>
    14d6:	80 91 74 08 	lds	r24, 0x0874	; 0x800874 <cur_col>
    14da:	28 2f       	mov	r18, r24
    14dc:	30 e0       	ldi	r19, 0x00	; 0
    14de:	89 89       	ldd	r24, Y+17	; 0x11
    14e0:	9a 89       	ldd	r25, Y+18	; 0x12
    14e2:	f9 01       	movw	r30, r18
    14e4:	e8 1b       	sub	r30, r24
    14e6:	f9 0b       	sbc	r31, r25
    14e8:	cf 01       	movw	r24, r30
    14ea:	18 16       	cp	r1, r24
    14ec:	19 06       	cpc	r1, r25
    14ee:	0c f0       	brlt	.+2      	; 0x14f2 <__stack+0x3f3>
    14f0:	47 c0       	rjmp	.+142    	; 0x1580 <__stack+0x481>
    14f2:	80 91 74 08 	lds	r24, 0x0874	; 0x800874 <cur_col>
    14f6:	28 2f       	mov	r18, r24
    14f8:	30 e0       	ldi	r19, 0x00	; 0
    14fa:	89 89       	ldd	r24, Y+17	; 0x11
    14fc:	9a 89       	ldd	r25, Y+18	; 0x12
    14fe:	28 1b       	sub	r18, r24
    1500:	39 0b       	sbc	r19, r25
    1502:	80 91 73 08 	lds	r24, 0x0873	; 0x800873 <cur_line>
    1506:	88 2f       	mov	r24, r24
    1508:	90 e0       	ldi	r25, 0x00	; 0
    150a:	40 91 74 08 	lds	r20, 0x0874	; 0x800874 <cur_col>
    150e:	64 2f       	mov	r22, r20
    1510:	70 e0       	ldi	r23, 0x00	; 0
    1512:	49 89       	ldd	r20, Y+17	; 0x11
    1514:	5a 89       	ldd	r21, Y+18	; 0x12
    1516:	64 1b       	sub	r22, r20
    1518:	75 0b       	sbc	r23, r21
    151a:	40 91 73 08 	lds	r20, 0x0873	; 0x800873 <cur_line>
    151e:	44 2f       	mov	r20, r20
    1520:	50 e0       	ldi	r21, 0x00	; 0
    1522:	66 0f       	add	r22, r22
    1524:	77 1f       	adc	r23, r23
    1526:	62 95       	swap	r22
    1528:	72 95       	swap	r23
    152a:	70 7f       	andi	r23, 0xF0	; 240
    152c:	76 27       	eor	r23, r22
    152e:	60 7f       	andi	r22, 0xF0	; 240
    1530:	76 27       	eor	r23, r22
    1532:	46 0f       	add	r20, r22
    1534:	57 1f       	adc	r21, r23
    1536:	40 55       	subi	r20, 0x50	; 80
    1538:	5d 4f       	sbci	r21, 0xFD	; 253
    153a:	da 01       	movw	r26, r20
    153c:	ec 91       	ld	r30, X
    153e:	40 91 74 08 	lds	r20, 0x0874	; 0x800874 <cur_col>
    1542:	64 2f       	mov	r22, r20
    1544:	70 e0       	ldi	r23, 0x00	; 0
    1546:	49 89       	ldd	r20, Y+17	; 0x11
    1548:	5a 89       	ldd	r21, Y+18	; 0x12
    154a:	db 01       	movw	r26, r22
    154c:	a4 1b       	sub	r26, r20
    154e:	b5 0b       	sbc	r27, r21
    1550:	ad 01       	movw	r20, r26
    1552:	44 0f       	add	r20, r20
    1554:	55 1f       	adc	r21, r21
    1556:	44 0f       	add	r20, r20
    1558:	55 1f       	adc	r21, r21
    155a:	40 50       	subi	r20, 0x00	; 0
    155c:	5f 4f       	sbci	r21, 0xFF	; 255
    155e:	da 01       	movw	r26, r20
    1560:	4c 91       	ld	r20, X
    1562:	4e 2b       	or	r20, r30
    1564:	22 0f       	add	r18, r18
    1566:	33 1f       	adc	r19, r19
    1568:	22 95       	swap	r18
    156a:	32 95       	swap	r19
    156c:	30 7f       	andi	r19, 0xF0	; 240
    156e:	32 27       	eor	r19, r18
    1570:	20 7f       	andi	r18, 0xF0	; 240
    1572:	32 27       	eor	r19, r18
    1574:	82 0f       	add	r24, r18
    1576:	93 1f       	adc	r25, r19
    1578:	80 55       	subi	r24, 0x50	; 80
    157a:	9d 4f       	sbci	r25, 0xFD	; 253
    157c:	fc 01       	movw	r30, r24
    157e:	40 83       	st	Z, r20
    1580:	80 91 74 08 	lds	r24, 0x0874	; 0x800874 <cur_col>
    1584:	28 2f       	mov	r18, r24
    1586:	30 e0       	ldi	r19, 0x00	; 0
    1588:	89 89       	ldd	r24, Y+17	; 0x11
    158a:	9a 89       	ldd	r25, Y+18	; 0x12
    158c:	a9 01       	movw	r20, r18
    158e:	48 1b       	sub	r20, r24
    1590:	59 0b       	sbc	r21, r25
    1592:	ca 01       	movw	r24, r20
    1594:	18 16       	cp	r1, r24
    1596:	19 06       	cpc	r1, r25
    1598:	0c f0       	brlt	.+2      	; 0x159c <__stack+0x49d>
    159a:	4a c0       	rjmp	.+148    	; 0x1630 <__stack+0x531>
    159c:	80 91 74 08 	lds	r24, 0x0874	; 0x800874 <cur_col>
    15a0:	28 2f       	mov	r18, r24
    15a2:	30 e0       	ldi	r19, 0x00	; 0
    15a4:	89 89       	ldd	r24, Y+17	; 0x11
    15a6:	9a 89       	ldd	r25, Y+18	; 0x12
    15a8:	28 1b       	sub	r18, r24
    15aa:	39 0b       	sbc	r19, r25
    15ac:	80 91 73 08 	lds	r24, 0x0873	; 0x800873 <cur_line>
    15b0:	88 2f       	mov	r24, r24
    15b2:	90 e0       	ldi	r25, 0x00	; 0
    15b4:	01 96       	adiw	r24, 0x01	; 1
    15b6:	40 91 74 08 	lds	r20, 0x0874	; 0x800874 <cur_col>
    15ba:	64 2f       	mov	r22, r20
    15bc:	70 e0       	ldi	r23, 0x00	; 0
    15be:	49 89       	ldd	r20, Y+17	; 0x11
    15c0:	5a 89       	ldd	r21, Y+18	; 0x12
    15c2:	64 1b       	sub	r22, r20
    15c4:	75 0b       	sbc	r23, r21
    15c6:	40 91 73 08 	lds	r20, 0x0873	; 0x800873 <cur_line>
    15ca:	44 2f       	mov	r20, r20
    15cc:	50 e0       	ldi	r21, 0x00	; 0
    15ce:	4f 5f       	subi	r20, 0xFF	; 255
    15d0:	5f 4f       	sbci	r21, 0xFF	; 255
    15d2:	66 0f       	add	r22, r22
    15d4:	77 1f       	adc	r23, r23
    15d6:	62 95       	swap	r22
    15d8:	72 95       	swap	r23
    15da:	70 7f       	andi	r23, 0xF0	; 240
    15dc:	76 27       	eor	r23, r22
    15de:	60 7f       	andi	r22, 0xF0	; 240
    15e0:	76 27       	eor	r23, r22
    15e2:	46 0f       	add	r20, r22
    15e4:	57 1f       	adc	r21, r23
    15e6:	40 55       	subi	r20, 0x50	; 80
    15e8:	5d 4f       	sbci	r21, 0xFD	; 253
    15ea:	da 01       	movw	r26, r20
    15ec:	ec 91       	ld	r30, X
    15ee:	40 91 74 08 	lds	r20, 0x0874	; 0x800874 <cur_col>
    15f2:	64 2f       	mov	r22, r20
    15f4:	70 e0       	ldi	r23, 0x00	; 0
    15f6:	49 89       	ldd	r20, Y+17	; 0x11
    15f8:	5a 89       	ldd	r21, Y+18	; 0x12
    15fa:	db 01       	movw	r26, r22
    15fc:	a4 1b       	sub	r26, r20
    15fe:	b5 0b       	sbc	r27, r21
    1600:	ad 01       	movw	r20, r26
    1602:	44 0f       	add	r20, r20
    1604:	55 1f       	adc	r21, r21
    1606:	44 0f       	add	r20, r20
    1608:	55 1f       	adc	r21, r21
    160a:	4f 5f       	subi	r20, 0xFF	; 255
    160c:	5e 4f       	sbci	r21, 0xFE	; 254
    160e:	da 01       	movw	r26, r20
    1610:	4c 91       	ld	r20, X
    1612:	4e 2b       	or	r20, r30
    1614:	22 0f       	add	r18, r18
    1616:	33 1f       	adc	r19, r19
    1618:	22 95       	swap	r18
    161a:	32 95       	swap	r19
    161c:	30 7f       	andi	r19, 0xF0	; 240
    161e:	32 27       	eor	r19, r18
    1620:	20 7f       	andi	r18, 0xF0	; 240
    1622:	32 27       	eor	r19, r18
    1624:	82 0f       	add	r24, r18
    1626:	93 1f       	adc	r25, r19
    1628:	80 55       	subi	r24, 0x50	; 80
    162a:	9d 4f       	sbci	r25, 0xFD	; 253
    162c:	fc 01       	movw	r30, r24
    162e:	40 83       	st	Z, r20
    1630:	80 91 74 08 	lds	r24, 0x0874	; 0x800874 <cur_col>
    1634:	28 2f       	mov	r18, r24
    1636:	30 e0       	ldi	r19, 0x00	; 0
    1638:	89 89       	ldd	r24, Y+17	; 0x11
    163a:	9a 89       	ldd	r25, Y+18	; 0x12
    163c:	a9 01       	movw	r20, r18
    163e:	48 1b       	sub	r20, r24
    1640:	59 0b       	sbc	r21, r25
    1642:	ca 01       	movw	r24, r20
    1644:	18 16       	cp	r1, r24
    1646:	19 06       	cpc	r1, r25
    1648:	0c f0       	brlt	.+2      	; 0x164c <__stack+0x54d>
    164a:	4a c0       	rjmp	.+148    	; 0x16e0 <__stack+0x5e1>
    164c:	80 91 74 08 	lds	r24, 0x0874	; 0x800874 <cur_col>
    1650:	28 2f       	mov	r18, r24
    1652:	30 e0       	ldi	r19, 0x00	; 0
    1654:	89 89       	ldd	r24, Y+17	; 0x11
    1656:	9a 89       	ldd	r25, Y+18	; 0x12
    1658:	28 1b       	sub	r18, r24
    165a:	39 0b       	sbc	r19, r25
    165c:	80 91 73 08 	lds	r24, 0x0873	; 0x800873 <cur_line>
    1660:	88 2f       	mov	r24, r24
    1662:	90 e0       	ldi	r25, 0x00	; 0
    1664:	02 96       	adiw	r24, 0x02	; 2
    1666:	40 91 74 08 	lds	r20, 0x0874	; 0x800874 <cur_col>
    166a:	64 2f       	mov	r22, r20
    166c:	70 e0       	ldi	r23, 0x00	; 0
    166e:	49 89       	ldd	r20, Y+17	; 0x11
    1670:	5a 89       	ldd	r21, Y+18	; 0x12
    1672:	64 1b       	sub	r22, r20
    1674:	75 0b       	sbc	r23, r21
    1676:	40 91 73 08 	lds	r20, 0x0873	; 0x800873 <cur_line>
    167a:	44 2f       	mov	r20, r20
    167c:	50 e0       	ldi	r21, 0x00	; 0
    167e:	4e 5f       	subi	r20, 0xFE	; 254
    1680:	5f 4f       	sbci	r21, 0xFF	; 255
    1682:	66 0f       	add	r22, r22
    1684:	77 1f       	adc	r23, r23
    1686:	62 95       	swap	r22
    1688:	72 95       	swap	r23
    168a:	70 7f       	andi	r23, 0xF0	; 240
    168c:	76 27       	eor	r23, r22
    168e:	60 7f       	andi	r22, 0xF0	; 240
    1690:	76 27       	eor	r23, r22
    1692:	46 0f       	add	r20, r22
    1694:	57 1f       	adc	r21, r23
    1696:	40 55       	subi	r20, 0x50	; 80
    1698:	5d 4f       	sbci	r21, 0xFD	; 253
    169a:	da 01       	movw	r26, r20
    169c:	ec 91       	ld	r30, X
    169e:	40 91 74 08 	lds	r20, 0x0874	; 0x800874 <cur_col>
    16a2:	64 2f       	mov	r22, r20
    16a4:	70 e0       	ldi	r23, 0x00	; 0
    16a6:	49 89       	ldd	r20, Y+17	; 0x11
    16a8:	5a 89       	ldd	r21, Y+18	; 0x12
    16aa:	db 01       	movw	r26, r22
    16ac:	a4 1b       	sub	r26, r20
    16ae:	b5 0b       	sbc	r27, r21
    16b0:	ad 01       	movw	r20, r26
    16b2:	44 0f       	add	r20, r20
    16b4:	55 1f       	adc	r21, r21
    16b6:	44 0f       	add	r20, r20
    16b8:	55 1f       	adc	r21, r21
    16ba:	4e 5f       	subi	r20, 0xFE	; 254
    16bc:	5e 4f       	sbci	r21, 0xFE	; 254
    16be:	da 01       	movw	r26, r20
    16c0:	4c 91       	ld	r20, X
    16c2:	4e 2b       	or	r20, r30
    16c4:	22 0f       	add	r18, r18
    16c6:	33 1f       	adc	r19, r19
    16c8:	22 95       	swap	r18
    16ca:	32 95       	swap	r19
    16cc:	30 7f       	andi	r19, 0xF0	; 240
    16ce:	32 27       	eor	r19, r18
    16d0:	20 7f       	andi	r18, 0xF0	; 240
    16d2:	32 27       	eor	r19, r18
    16d4:	82 0f       	add	r24, r18
    16d6:	93 1f       	adc	r25, r19
    16d8:	80 55       	subi	r24, 0x50	; 80
    16da:	9d 4f       	sbci	r25, 0xFD	; 253
    16dc:	fc 01       	movw	r30, r24
    16de:	40 83       	st	Z, r20
    16e0:	80 91 74 08 	lds	r24, 0x0874	; 0x800874 <cur_col>
    16e4:	28 2f       	mov	r18, r24
    16e6:	30 e0       	ldi	r19, 0x00	; 0
    16e8:	89 89       	ldd	r24, Y+17	; 0x11
    16ea:	9a 89       	ldd	r25, Y+18	; 0x12
    16ec:	a9 01       	movw	r20, r18
    16ee:	48 1b       	sub	r20, r24
    16f0:	59 0b       	sbc	r21, r25
    16f2:	ca 01       	movw	r24, r20
    16f4:	18 16       	cp	r1, r24
    16f6:	19 06       	cpc	r1, r25
    16f8:	0c f0       	brlt	.+2      	; 0x16fc <__stack+0x5fd>
    16fa:	4a c0       	rjmp	.+148    	; 0x1790 <__stack+0x691>
    16fc:	80 91 74 08 	lds	r24, 0x0874	; 0x800874 <cur_col>
    1700:	28 2f       	mov	r18, r24
    1702:	30 e0       	ldi	r19, 0x00	; 0
    1704:	89 89       	ldd	r24, Y+17	; 0x11
    1706:	9a 89       	ldd	r25, Y+18	; 0x12
    1708:	28 1b       	sub	r18, r24
    170a:	39 0b       	sbc	r19, r25
    170c:	80 91 73 08 	lds	r24, 0x0873	; 0x800873 <cur_line>
    1710:	88 2f       	mov	r24, r24
    1712:	90 e0       	ldi	r25, 0x00	; 0
    1714:	03 96       	adiw	r24, 0x03	; 3
    1716:	40 91 74 08 	lds	r20, 0x0874	; 0x800874 <cur_col>
    171a:	64 2f       	mov	r22, r20
    171c:	70 e0       	ldi	r23, 0x00	; 0
    171e:	49 89       	ldd	r20, Y+17	; 0x11
    1720:	5a 89       	ldd	r21, Y+18	; 0x12
    1722:	64 1b       	sub	r22, r20
    1724:	75 0b       	sbc	r23, r21
    1726:	40 91 73 08 	lds	r20, 0x0873	; 0x800873 <cur_line>
    172a:	44 2f       	mov	r20, r20
    172c:	50 e0       	ldi	r21, 0x00	; 0
    172e:	4d 5f       	subi	r20, 0xFD	; 253
    1730:	5f 4f       	sbci	r21, 0xFF	; 255
    1732:	66 0f       	add	r22, r22
    1734:	77 1f       	adc	r23, r23
    1736:	62 95       	swap	r22
    1738:	72 95       	swap	r23
    173a:	70 7f       	andi	r23, 0xF0	; 240
    173c:	76 27       	eor	r23, r22
    173e:	60 7f       	andi	r22, 0xF0	; 240
    1740:	76 27       	eor	r23, r22
    1742:	46 0f       	add	r20, r22
    1744:	57 1f       	adc	r21, r23
    1746:	40 55       	subi	r20, 0x50	; 80
    1748:	5d 4f       	sbci	r21, 0xFD	; 253
    174a:	da 01       	movw	r26, r20
    174c:	ec 91       	ld	r30, X
    174e:	40 91 74 08 	lds	r20, 0x0874	; 0x800874 <cur_col>
    1752:	64 2f       	mov	r22, r20
    1754:	70 e0       	ldi	r23, 0x00	; 0
    1756:	49 89       	ldd	r20, Y+17	; 0x11
    1758:	5a 89       	ldd	r21, Y+18	; 0x12
    175a:	db 01       	movw	r26, r22
    175c:	a4 1b       	sub	r26, r20
    175e:	b5 0b       	sbc	r27, r21
    1760:	ad 01       	movw	r20, r26
    1762:	44 0f       	add	r20, r20
    1764:	55 1f       	adc	r21, r21
    1766:	44 0f       	add	r20, r20
    1768:	55 1f       	adc	r21, r21
    176a:	4d 5f       	subi	r20, 0xFD	; 253
    176c:	5e 4f       	sbci	r21, 0xFE	; 254
    176e:	da 01       	movw	r26, r20
    1770:	4c 91       	ld	r20, X
    1772:	4e 2b       	or	r20, r30
    1774:	22 0f       	add	r18, r18
    1776:	33 1f       	adc	r19, r19
    1778:	22 95       	swap	r18
    177a:	32 95       	swap	r19
    177c:	30 7f       	andi	r19, 0xF0	; 240
    177e:	32 27       	eor	r19, r18
    1780:	20 7f       	andi	r18, 0xF0	; 240
    1782:	32 27       	eor	r19, r18
    1784:	82 0f       	add	r24, r18
    1786:	93 1f       	adc	r25, r19
    1788:	80 55       	subi	r24, 0x50	; 80
    178a:	9d 4f       	sbci	r25, 0xFD	; 253
    178c:	fc 01       	movw	r30, r24
    178e:	40 83       	st	Z, r20
    1790:	89 89       	ldd	r24, Y+17	; 0x11
    1792:	9a 89       	ldd	r25, Y+18	; 0x12
    1794:	01 96       	adiw	r24, 0x01	; 1
    1796:	9a 8b       	std	Y+18, r25	; 0x12
    1798:	89 8b       	std	Y+17, r24	; 0x11
    179a:	89 89       	ldd	r24, Y+17	; 0x11
    179c:	9a 89       	ldd	r25, Y+18	; 0x12
    179e:	04 97       	sbiw	r24, 0x04	; 4
    17a0:	0c f4       	brge	.+2      	; 0x17a4 <__stack+0x6a5>
    17a2:	99 ce       	rjmp	.-718    	; 0x14d6 <__stack+0x3d7>
    17a4:	00 00       	nop
    17a6:	62 96       	adiw	r28, 0x12	; 18
    17a8:	0f b6       	in	r0, 0x3f	; 63
    17aa:	f8 94       	cli
    17ac:	de bf       	out	0x3e, r29	; 62
    17ae:	0f be       	out	0x3f, r0	; 63
    17b0:	cd bf       	out	0x3d, r28	; 61
    17b2:	df 91       	pop	r29
    17b4:	cf 91       	pop	r28
    17b6:	ff 91       	pop	r31
    17b8:	ef 91       	pop	r30
    17ba:	bf 91       	pop	r27
    17bc:	af 91       	pop	r26
    17be:	9f 91       	pop	r25
    17c0:	8f 91       	pop	r24
    17c2:	7f 91       	pop	r23
    17c4:	6f 91       	pop	r22
    17c6:	5f 91       	pop	r21
    17c8:	4f 91       	pop	r20
    17ca:	3f 91       	pop	r19
    17cc:	2f 91       	pop	r18
    17ce:	0f 90       	pop	r0
    17d0:	00 92 5b 00 	sts	0x005B, r0	; 0x80005b <__TEXT_REGION_LENGTH__+0x7e005b>
    17d4:	0f 90       	pop	r0
    17d6:	00 92 5f 00 	sts	0x005F, r0	; 0x80005f <__TEXT_REGION_LENGTH__+0x7e005f>
    17da:	0f 90       	pop	r0
    17dc:	1f 90       	pop	r1
    17de:	18 95       	reti

000017e0 <__vector_7>:
    17e0:	1f 92       	push	r1
    17e2:	0f 92       	push	r0
    17e4:	00 90 5f 00 	lds	r0, 0x005F	; 0x80005f <__TEXT_REGION_LENGTH__+0x7e005f>
    17e8:	0f 92       	push	r0
    17ea:	11 24       	eor	r1, r1
    17ec:	00 90 5b 00 	lds	r0, 0x005B	; 0x80005b <__TEXT_REGION_LENGTH__+0x7e005b>
    17f0:	0f 92       	push	r0
    17f2:	2f 93       	push	r18
    17f4:	3f 93       	push	r19
    17f6:	4f 93       	push	r20
    17f8:	5f 93       	push	r21
    17fa:	6f 93       	push	r22
    17fc:	7f 93       	push	r23
    17fe:	8f 93       	push	r24
    1800:	9f 93       	push	r25
    1802:	af 93       	push	r26
    1804:	bf 93       	push	r27
    1806:	ef 93       	push	r30
    1808:	ff 93       	push	r31
    180a:	cf 93       	push	r28
    180c:	df 93       	push	r29
    180e:	cd b7       	in	r28, 0x3d	; 61
    1810:	de b7       	in	r29, 0x3e	; 62
    1812:	26 97       	sbiw	r28, 0x06	; 6
    1814:	de bf       	out	0x3e, r29	; 62
    1816:	cd bf       	out	0x3d, r28	; 61
    1818:	1a 82       	std	Y+2, r1	; 0x02
    181a:	19 82       	std	Y+1, r1	; 0x01
    181c:	20 c0       	rjmp	.+64     	; 0x185e <__vector_7+0x7e>
    181e:	1c 82       	std	Y+4, r1	; 0x04
    1820:	1b 82       	std	Y+3, r1	; 0x03
    1822:	14 c0       	rjmp	.+40     	; 0x184c <__vector_7+0x6c>
    1824:	89 81       	ldd	r24, Y+1	; 0x01
    1826:	9a 81       	ldd	r25, Y+2	; 0x02
    1828:	9c 01       	movw	r18, r24
    182a:	22 0f       	add	r18, r18
    182c:	33 1f       	adc	r19, r19
    182e:	22 0f       	add	r18, r18
    1830:	33 1f       	adc	r19, r19
    1832:	8b 81       	ldd	r24, Y+3	; 0x03
    1834:	9c 81       	ldd	r25, Y+4	; 0x04
    1836:	82 0f       	add	r24, r18
    1838:	93 1f       	adc	r25, r19
    183a:	80 50       	subi	r24, 0x00	; 0
    183c:	9f 4f       	sbci	r25, 0xFF	; 255
    183e:	fc 01       	movw	r30, r24
    1840:	10 82       	st	Z, r1
    1842:	8b 81       	ldd	r24, Y+3	; 0x03
    1844:	9c 81       	ldd	r25, Y+4	; 0x04
    1846:	01 96       	adiw	r24, 0x01	; 1
    1848:	9c 83       	std	Y+4, r25	; 0x04
    184a:	8b 83       	std	Y+3, r24	; 0x03
    184c:	8b 81       	ldd	r24, Y+3	; 0x03
    184e:	9c 81       	ldd	r25, Y+4	; 0x04
    1850:	04 97       	sbiw	r24, 0x04	; 4
    1852:	44 f3       	brlt	.-48     	; 0x1824 <__vector_7+0x44>
    1854:	89 81       	ldd	r24, Y+1	; 0x01
    1856:	9a 81       	ldd	r25, Y+2	; 0x02
    1858:	01 96       	adiw	r24, 0x01	; 1
    185a:	9a 83       	std	Y+2, r25	; 0x02
    185c:	89 83       	std	Y+1, r24	; 0x01
    185e:	89 81       	ldd	r24, Y+1	; 0x01
    1860:	9a 81       	ldd	r25, Y+2	; 0x02
    1862:	0c 97       	sbiw	r24, 0x0c	; 12
    1864:	e4 f2       	brlt	.-72     	; 0x181e <__vector_7+0x3e>
    1866:	1e 82       	std	Y+6, r1	; 0x06
    1868:	1d 82       	std	Y+5, r1	; 0x05
    186a:	cb c0       	rjmp	.+406    	; 0x1a02 <__vector_7+0x222>
    186c:	80 91 74 08 	lds	r24, 0x0874	; 0x800874 <cur_col>
    1870:	28 2f       	mov	r18, r24
    1872:	30 e0       	ldi	r19, 0x00	; 0
    1874:	8d 81       	ldd	r24, Y+5	; 0x05
    1876:	9e 81       	ldd	r25, Y+6	; 0x06
    1878:	a9 01       	movw	r20, r18
    187a:	48 1b       	sub	r20, r24
    187c:	59 0b       	sbc	r21, r25
    187e:	ca 01       	movw	r24, r20
    1880:	20 91 76 08 	lds	r18, 0x0876	; 0x800876 <shape>
    1884:	62 2f       	mov	r22, r18
    1886:	70 e0       	ldi	r23, 0x00	; 0
    1888:	20 91 75 08 	lds	r18, 0x0875	; 0x800875 <pattern>
    188c:	22 2f       	mov	r18, r18
    188e:	30 e0       	ldi	r19, 0x00	; 0
    1890:	4c e8       	ldi	r20, 0x8C	; 140
    1892:	50 e0       	ldi	r21, 0x00	; 0
    1894:	66 0f       	add	r22, r22
    1896:	77 1f       	adc	r23, r23
    1898:	66 0f       	add	r22, r22
    189a:	77 1f       	adc	r23, r23
    189c:	26 0f       	add	r18, r22
    189e:	37 1f       	adc	r19, r23
    18a0:	22 95       	swap	r18
    18a2:	32 95       	swap	r19
    18a4:	30 7f       	andi	r19, 0xF0	; 240
    18a6:	32 27       	eor	r19, r18
    18a8:	20 7f       	andi	r18, 0xF0	; 240
    18aa:	32 27       	eor	r19, r18
    18ac:	42 0f       	add	r20, r18
    18ae:	53 1f       	adc	r21, r19
    18b0:	2d 81       	ldd	r18, Y+5	; 0x05
    18b2:	3e 81       	ldd	r19, Y+6	; 0x06
    18b4:	24 0f       	add	r18, r20
    18b6:	35 1f       	adc	r19, r21
    18b8:	f9 01       	movw	r30, r18
    18ba:	24 91       	lpm	r18, Z
    18bc:	88 0f       	add	r24, r24
    18be:	99 1f       	adc	r25, r25
    18c0:	88 0f       	add	r24, r24
    18c2:	99 1f       	adc	r25, r25
    18c4:	80 50       	subi	r24, 0x00	; 0
    18c6:	9f 4f       	sbci	r25, 0xFF	; 255
    18c8:	fc 01       	movw	r30, r24
    18ca:	20 83       	st	Z, r18
    18cc:	80 91 74 08 	lds	r24, 0x0874	; 0x800874 <cur_col>
    18d0:	28 2f       	mov	r18, r24
    18d2:	30 e0       	ldi	r19, 0x00	; 0
    18d4:	8d 81       	ldd	r24, Y+5	; 0x05
    18d6:	9e 81       	ldd	r25, Y+6	; 0x06
    18d8:	a9 01       	movw	r20, r18
    18da:	48 1b       	sub	r20, r24
    18dc:	59 0b       	sbc	r21, r25
    18de:	ca 01       	movw	r24, r20
    18e0:	20 91 76 08 	lds	r18, 0x0876	; 0x800876 <shape>
    18e4:	e2 2f       	mov	r30, r18
    18e6:	f0 e0       	ldi	r31, 0x00	; 0
    18e8:	20 91 75 08 	lds	r18, 0x0875	; 0x800875 <pattern>
    18ec:	42 2f       	mov	r20, r18
    18ee:	50 e0       	ldi	r21, 0x00	; 0
    18f0:	2d 81       	ldd	r18, Y+5	; 0x05
    18f2:	3e 81       	ldd	r19, Y+6	; 0x06
    18f4:	2c 5f       	subi	r18, 0xFC	; 252
    18f6:	3f 4f       	sbci	r19, 0xFF	; 255
    18f8:	6c e8       	ldi	r22, 0x8C	; 140
    18fa:	70 e0       	ldi	r23, 0x00	; 0
    18fc:	ee 0f       	add	r30, r30
    18fe:	ff 1f       	adc	r31, r31
    1900:	ee 0f       	add	r30, r30
    1902:	ff 1f       	adc	r31, r31
    1904:	4e 0f       	add	r20, r30
    1906:	5f 1f       	adc	r21, r31
    1908:	42 95       	swap	r20
    190a:	52 95       	swap	r21
    190c:	50 7f       	andi	r21, 0xF0	; 240
    190e:	54 27       	eor	r21, r20
    1910:	40 7f       	andi	r20, 0xF0	; 240
    1912:	54 27       	eor	r21, r20
    1914:	46 0f       	add	r20, r22
    1916:	57 1f       	adc	r21, r23
    1918:	24 0f       	add	r18, r20
    191a:	35 1f       	adc	r19, r21
    191c:	f9 01       	movw	r30, r18
    191e:	24 91       	lpm	r18, Z
    1920:	88 0f       	add	r24, r24
    1922:	99 1f       	adc	r25, r25
    1924:	88 0f       	add	r24, r24
    1926:	99 1f       	adc	r25, r25
    1928:	8f 5f       	subi	r24, 0xFF	; 255
    192a:	9e 4f       	sbci	r25, 0xFE	; 254
    192c:	fc 01       	movw	r30, r24
    192e:	20 83       	st	Z, r18
    1930:	80 91 74 08 	lds	r24, 0x0874	; 0x800874 <cur_col>
    1934:	28 2f       	mov	r18, r24
    1936:	30 e0       	ldi	r19, 0x00	; 0
    1938:	8d 81       	ldd	r24, Y+5	; 0x05
    193a:	9e 81       	ldd	r25, Y+6	; 0x06
    193c:	a9 01       	movw	r20, r18
    193e:	48 1b       	sub	r20, r24
    1940:	59 0b       	sbc	r21, r25
    1942:	ca 01       	movw	r24, r20
    1944:	20 91 76 08 	lds	r18, 0x0876	; 0x800876 <shape>
    1948:	e2 2f       	mov	r30, r18
    194a:	f0 e0       	ldi	r31, 0x00	; 0
    194c:	20 91 75 08 	lds	r18, 0x0875	; 0x800875 <pattern>
    1950:	42 2f       	mov	r20, r18
    1952:	50 e0       	ldi	r21, 0x00	; 0
    1954:	2d 81       	ldd	r18, Y+5	; 0x05
    1956:	3e 81       	ldd	r19, Y+6	; 0x06
    1958:	28 5f       	subi	r18, 0xF8	; 248
    195a:	3f 4f       	sbci	r19, 0xFF	; 255
    195c:	6c e8       	ldi	r22, 0x8C	; 140
    195e:	70 e0       	ldi	r23, 0x00	; 0
    1960:	ee 0f       	add	r30, r30
    1962:	ff 1f       	adc	r31, r31
    1964:	ee 0f       	add	r30, r30
    1966:	ff 1f       	adc	r31, r31
    1968:	4e 0f       	add	r20, r30
    196a:	5f 1f       	adc	r21, r31
    196c:	42 95       	swap	r20
    196e:	52 95       	swap	r21
    1970:	50 7f       	andi	r21, 0xF0	; 240
    1972:	54 27       	eor	r21, r20
    1974:	40 7f       	andi	r20, 0xF0	; 240
    1976:	54 27       	eor	r21, r20
    1978:	46 0f       	add	r20, r22
    197a:	57 1f       	adc	r21, r23
    197c:	24 0f       	add	r18, r20
    197e:	35 1f       	adc	r19, r21
    1980:	f9 01       	movw	r30, r18
    1982:	24 91       	lpm	r18, Z
    1984:	88 0f       	add	r24, r24
    1986:	99 1f       	adc	r25, r25
    1988:	88 0f       	add	r24, r24
    198a:	99 1f       	adc	r25, r25
    198c:	8e 5f       	subi	r24, 0xFE	; 254
    198e:	9e 4f       	sbci	r25, 0xFE	; 254
    1990:	fc 01       	movw	r30, r24
    1992:	20 83       	st	Z, r18
    1994:	80 91 74 08 	lds	r24, 0x0874	; 0x800874 <cur_col>
    1998:	28 2f       	mov	r18, r24
    199a:	30 e0       	ldi	r19, 0x00	; 0
    199c:	8d 81       	ldd	r24, Y+5	; 0x05
    199e:	9e 81       	ldd	r25, Y+6	; 0x06
    19a0:	a9 01       	movw	r20, r18
    19a2:	48 1b       	sub	r20, r24
    19a4:	59 0b       	sbc	r21, r25
    19a6:	ca 01       	movw	r24, r20
    19a8:	20 91 76 08 	lds	r18, 0x0876	; 0x800876 <shape>
    19ac:	e2 2f       	mov	r30, r18
    19ae:	f0 e0       	ldi	r31, 0x00	; 0
    19b0:	20 91 75 08 	lds	r18, 0x0875	; 0x800875 <pattern>
    19b4:	42 2f       	mov	r20, r18
    19b6:	50 e0       	ldi	r21, 0x00	; 0
    19b8:	2d 81       	ldd	r18, Y+5	; 0x05
    19ba:	3e 81       	ldd	r19, Y+6	; 0x06
    19bc:	24 5f       	subi	r18, 0xF4	; 244
    19be:	3f 4f       	sbci	r19, 0xFF	; 255
    19c0:	6c e8       	ldi	r22, 0x8C	; 140
    19c2:	70 e0       	ldi	r23, 0x00	; 0
    19c4:	ee 0f       	add	r30, r30
    19c6:	ff 1f       	adc	r31, r31
    19c8:	ee 0f       	add	r30, r30
    19ca:	ff 1f       	adc	r31, r31
    19cc:	4e 0f       	add	r20, r30
    19ce:	5f 1f       	adc	r21, r31
    19d0:	42 95       	swap	r20
    19d2:	52 95       	swap	r21
    19d4:	50 7f       	andi	r21, 0xF0	; 240
    19d6:	54 27       	eor	r21, r20
    19d8:	40 7f       	andi	r20, 0xF0	; 240
    19da:	54 27       	eor	r21, r20
    19dc:	46 0f       	add	r20, r22
    19de:	57 1f       	adc	r21, r23
    19e0:	24 0f       	add	r18, r20
    19e2:	35 1f       	adc	r19, r21
    19e4:	f9 01       	movw	r30, r18
    19e6:	24 91       	lpm	r18, Z
    19e8:	88 0f       	add	r24, r24
    19ea:	99 1f       	adc	r25, r25
    19ec:	88 0f       	add	r24, r24
    19ee:	99 1f       	adc	r25, r25
    19f0:	8d 5f       	subi	r24, 0xFD	; 253
    19f2:	9e 4f       	sbci	r25, 0xFE	; 254
    19f4:	fc 01       	movw	r30, r24
    19f6:	20 83       	st	Z, r18
    19f8:	8d 81       	ldd	r24, Y+5	; 0x05
    19fa:	9e 81       	ldd	r25, Y+6	; 0x06
    19fc:	01 96       	adiw	r24, 0x01	; 1
    19fe:	9e 83       	std	Y+6, r25	; 0x06
    1a00:	8d 83       	std	Y+5, r24	; 0x05
    1a02:	8d 81       	ldd	r24, Y+5	; 0x05
    1a04:	9e 81       	ldd	r25, Y+6	; 0x06
    1a06:	04 97       	sbiw	r24, 0x04	; 4
    1a08:	0c f4       	brge	.+2      	; 0x1a0c <__vector_7+0x22c>
    1a0a:	30 cf       	rjmp	.-416    	; 0x186c <__vector_7+0x8c>
    1a0c:	05 c0       	rjmp	.+10     	; 0x1a18 <__vector_7+0x238>
    1a0e:	80 91 73 08 	lds	r24, 0x0873	; 0x800873 <cur_line>
    1a12:	8f 5f       	subi	r24, 0xFF	; 255
    1a14:	80 93 73 08 	sts	0x0873, r24	; 0x800873 <cur_line>
    1a18:	0e 94 d1 1c 	call	0x39a2	; 0x39a2 <Collision>
    1a1c:	88 23       	and	r24, r24
    1a1e:	b9 f3       	breq	.-18     	; 0x1a0e <__vector_7+0x22e>
    1a20:	80 91 73 08 	lds	r24, 0x0873	; 0x800873 <cur_line>
    1a24:	81 50       	subi	r24, 0x01	; 1
    1a26:	80 93 73 08 	sts	0x0873, r24	; 0x800873 <cur_line>
    1a2a:	00 00       	nop
    1a2c:	26 96       	adiw	r28, 0x06	; 6
    1a2e:	0f b6       	in	r0, 0x3f	; 63
    1a30:	f8 94       	cli
    1a32:	de bf       	out	0x3e, r29	; 62
    1a34:	0f be       	out	0x3f, r0	; 63
    1a36:	cd bf       	out	0x3d, r28	; 61
    1a38:	df 91       	pop	r29
    1a3a:	cf 91       	pop	r28
    1a3c:	ff 91       	pop	r31
    1a3e:	ef 91       	pop	r30
    1a40:	bf 91       	pop	r27
    1a42:	af 91       	pop	r26
    1a44:	9f 91       	pop	r25
    1a46:	8f 91       	pop	r24
    1a48:	7f 91       	pop	r23
    1a4a:	6f 91       	pop	r22
    1a4c:	5f 91       	pop	r21
    1a4e:	4f 91       	pop	r20
    1a50:	3f 91       	pop	r19
    1a52:	2f 91       	pop	r18
    1a54:	0f 90       	pop	r0
    1a56:	00 92 5b 00 	sts	0x005B, r0	; 0x80005b <__TEXT_REGION_LENGTH__+0x7e005b>
    1a5a:	0f 90       	pop	r0
    1a5c:	00 92 5f 00 	sts	0x005F, r0	; 0x80005f <__TEXT_REGION_LENGTH__+0x7e005f>
    1a60:	0f 90       	pop	r0
    1a62:	1f 90       	pop	r1
    1a64:	18 95       	reti

00001a66 <__vector_8>:
    1a66:	1f 92       	push	r1
    1a68:	0f 92       	push	r0
    1a6a:	00 90 5f 00 	lds	r0, 0x005F	; 0x80005f <__TEXT_REGION_LENGTH__+0x7e005f>
    1a6e:	0f 92       	push	r0
    1a70:	11 24       	eor	r1, r1
    1a72:	00 90 5b 00 	lds	r0, 0x005B	; 0x80005b <__TEXT_REGION_LENGTH__+0x7e005b>
    1a76:	0f 92       	push	r0
    1a78:	2f 93       	push	r18
    1a7a:	3f 93       	push	r19
    1a7c:	4f 93       	push	r20
    1a7e:	5f 93       	push	r21
    1a80:	6f 93       	push	r22
    1a82:	7f 93       	push	r23
    1a84:	8f 93       	push	r24
    1a86:	9f 93       	push	r25
    1a88:	af 93       	push	r26
    1a8a:	bf 93       	push	r27
    1a8c:	ef 93       	push	r30
    1a8e:	ff 93       	push	r31
    1a90:	cf 93       	push	r28
    1a92:	df 93       	push	r29
    1a94:	cd b7       	in	r28, 0x3d	; 61
    1a96:	de b7       	in	r29, 0x3e	; 62
    1a98:	62 97       	sbiw	r28, 0x12	; 18
    1a9a:	de bf       	out	0x3e, r29	; 62
    1a9c:	cd bf       	out	0x3d, r28	; 61
    1a9e:	1a 82       	std	Y+2, r1	; 0x02
    1aa0:	19 82       	std	Y+1, r1	; 0x01
    1aa2:	37 c0       	rjmp	.+110    	; 0x1b12 <__vector_8+0xac>
    1aa4:	1c 82       	std	Y+4, r1	; 0x04
    1aa6:	1b 82       	std	Y+3, r1	; 0x03
    1aa8:	2b c0       	rjmp	.+86     	; 0x1b00 <__vector_8+0x9a>
    1aaa:	89 81       	ldd	r24, Y+1	; 0x01
    1aac:	9a 81       	ldd	r25, Y+2	; 0x02
    1aae:	9c 01       	movw	r18, r24
    1ab0:	22 0f       	add	r18, r18
    1ab2:	33 1f       	adc	r19, r19
    1ab4:	22 95       	swap	r18
    1ab6:	32 95       	swap	r19
    1ab8:	30 7f       	andi	r19, 0xF0	; 240
    1aba:	32 27       	eor	r19, r18
    1abc:	20 7f       	andi	r18, 0xF0	; 240
    1abe:	32 27       	eor	r19, r18
    1ac0:	8b 81       	ldd	r24, Y+3	; 0x03
    1ac2:	9c 81       	ldd	r25, Y+4	; 0x04
    1ac4:	82 0f       	add	r24, r18
    1ac6:	93 1f       	adc	r25, r19
    1ac8:	80 5d       	subi	r24, 0xD0	; 208
    1aca:	9e 4f       	sbci	r25, 0xFE	; 254
    1acc:	dc 01       	movw	r26, r24
    1ace:	4c 91       	ld	r20, X
    1ad0:	89 81       	ldd	r24, Y+1	; 0x01
    1ad2:	9a 81       	ldd	r25, Y+2	; 0x02
    1ad4:	9c 01       	movw	r18, r24
    1ad6:	22 0f       	add	r18, r18
    1ad8:	33 1f       	adc	r19, r19
    1ada:	22 95       	swap	r18
    1adc:	32 95       	swap	r19
    1ade:	30 7f       	andi	r19, 0xF0	; 240
    1ae0:	32 27       	eor	r19, r18
    1ae2:	20 7f       	andi	r18, 0xF0	; 240
    1ae4:	32 27       	eor	r19, r18
    1ae6:	8b 81       	ldd	r24, Y+3	; 0x03
    1ae8:	9c 81       	ldd	r25, Y+4	; 0x04
    1aea:	82 0f       	add	r24, r18
    1aec:	93 1f       	adc	r25, r19
    1aee:	80 55       	subi	r24, 0x50	; 80
    1af0:	9d 4f       	sbci	r25, 0xFD	; 253
    1af2:	fc 01       	movw	r30, r24
    1af4:	40 83       	st	Z, r20
    1af6:	8b 81       	ldd	r24, Y+3	; 0x03
    1af8:	9c 81       	ldd	r25, Y+4	; 0x04
    1afa:	01 96       	adiw	r24, 0x01	; 1
    1afc:	9c 83       	std	Y+4, r25	; 0x04
    1afe:	8b 83       	std	Y+3, r24	; 0x03
    1b00:	8b 81       	ldd	r24, Y+3	; 0x03
    1b02:	9c 81       	ldd	r25, Y+4	; 0x04
    1b04:	80 97       	sbiw	r24, 0x20	; 32
    1b06:	8c f2       	brlt	.-94     	; 0x1aaa <__vector_8+0x44>
    1b08:	89 81       	ldd	r24, Y+1	; 0x01
    1b0a:	9a 81       	ldd	r25, Y+2	; 0x02
    1b0c:	01 96       	adiw	r24, 0x01	; 1
    1b0e:	9a 83       	std	Y+2, r25	; 0x02
    1b10:	89 83       	std	Y+1, r24	; 0x01
    1b12:	89 81       	ldd	r24, Y+1	; 0x01
    1b14:	9a 81       	ldd	r25, Y+2	; 0x02
    1b16:	0c 97       	sbiw	r24, 0x0c	; 12
    1b18:	2c f2       	brlt	.-118    	; 0x1aa4 <__vector_8+0x3e>
    1b1a:	80 91 74 08 	lds	r24, 0x0874	; 0x800874 <cur_col>
    1b1e:	8b 30       	cpi	r24, 0x0B	; 11
    1b20:	28 f4       	brcc	.+10     	; 0x1b2c <__vector_8+0xc6>
    1b22:	80 91 74 08 	lds	r24, 0x0874	; 0x800874 <cur_col>
    1b26:	8f 5f       	subi	r24, 0xFF	; 255
    1b28:	80 93 74 08 	sts	0x0874, r24	; 0x800874 <cur_col>
    1b2c:	1e 82       	std	Y+6, r1	; 0x06
    1b2e:	1d 82       	std	Y+5, r1	; 0x05
    1b30:	20 c0       	rjmp	.+64     	; 0x1b72 <__vector_8+0x10c>
    1b32:	18 86       	std	Y+8, r1	; 0x08
    1b34:	1f 82       	std	Y+7, r1	; 0x07
    1b36:	14 c0       	rjmp	.+40     	; 0x1b60 <__vector_8+0xfa>
    1b38:	8d 81       	ldd	r24, Y+5	; 0x05
    1b3a:	9e 81       	ldd	r25, Y+6	; 0x06
    1b3c:	9c 01       	movw	r18, r24
    1b3e:	22 0f       	add	r18, r18
    1b40:	33 1f       	adc	r19, r19
    1b42:	22 0f       	add	r18, r18
    1b44:	33 1f       	adc	r19, r19
    1b46:	8f 81       	ldd	r24, Y+7	; 0x07
    1b48:	98 85       	ldd	r25, Y+8	; 0x08
    1b4a:	82 0f       	add	r24, r18
    1b4c:	93 1f       	adc	r25, r19
    1b4e:	80 50       	subi	r24, 0x00	; 0
    1b50:	9f 4f       	sbci	r25, 0xFF	; 255
    1b52:	dc 01       	movw	r26, r24
    1b54:	1c 92       	st	X, r1
    1b56:	8f 81       	ldd	r24, Y+7	; 0x07
    1b58:	98 85       	ldd	r25, Y+8	; 0x08
    1b5a:	01 96       	adiw	r24, 0x01	; 1
    1b5c:	98 87       	std	Y+8, r25	; 0x08
    1b5e:	8f 83       	std	Y+7, r24	; 0x07
    1b60:	8f 81       	ldd	r24, Y+7	; 0x07
    1b62:	98 85       	ldd	r25, Y+8	; 0x08
    1b64:	04 97       	sbiw	r24, 0x04	; 4
    1b66:	44 f3       	brlt	.-48     	; 0x1b38 <__vector_8+0xd2>
    1b68:	8d 81       	ldd	r24, Y+5	; 0x05
    1b6a:	9e 81       	ldd	r25, Y+6	; 0x06
    1b6c:	01 96       	adiw	r24, 0x01	; 1
    1b6e:	9e 83       	std	Y+6, r25	; 0x06
    1b70:	8d 83       	std	Y+5, r24	; 0x05
    1b72:	8d 81       	ldd	r24, Y+5	; 0x05
    1b74:	9e 81       	ldd	r25, Y+6	; 0x06
    1b76:	0c 97       	sbiw	r24, 0x0c	; 12
    1b78:	e4 f2       	brlt	.-72     	; 0x1b32 <__vector_8+0xcc>
    1b7a:	1a 86       	std	Y+10, r1	; 0x0a
    1b7c:	19 86       	std	Y+9, r1	; 0x09
    1b7e:	cb c0       	rjmp	.+406    	; 0x1d16 <__vector_8+0x2b0>
    1b80:	80 91 74 08 	lds	r24, 0x0874	; 0x800874 <cur_col>
    1b84:	28 2f       	mov	r18, r24
    1b86:	30 e0       	ldi	r19, 0x00	; 0
    1b88:	89 85       	ldd	r24, Y+9	; 0x09
    1b8a:	9a 85       	ldd	r25, Y+10	; 0x0a
    1b8c:	f9 01       	movw	r30, r18
    1b8e:	e8 1b       	sub	r30, r24
    1b90:	f9 0b       	sbc	r31, r25
    1b92:	cf 01       	movw	r24, r30
    1b94:	20 91 76 08 	lds	r18, 0x0876	; 0x800876 <shape>
    1b98:	62 2f       	mov	r22, r18
    1b9a:	70 e0       	ldi	r23, 0x00	; 0
    1b9c:	20 91 75 08 	lds	r18, 0x0875	; 0x800875 <pattern>
    1ba0:	22 2f       	mov	r18, r18
    1ba2:	30 e0       	ldi	r19, 0x00	; 0
    1ba4:	4c e8       	ldi	r20, 0x8C	; 140
    1ba6:	50 e0       	ldi	r21, 0x00	; 0
    1ba8:	66 0f       	add	r22, r22
    1baa:	77 1f       	adc	r23, r23
    1bac:	66 0f       	add	r22, r22
    1bae:	77 1f       	adc	r23, r23
    1bb0:	26 0f       	add	r18, r22
    1bb2:	37 1f       	adc	r19, r23
    1bb4:	22 95       	swap	r18
    1bb6:	32 95       	swap	r19
    1bb8:	30 7f       	andi	r19, 0xF0	; 240
    1bba:	32 27       	eor	r19, r18
    1bbc:	20 7f       	andi	r18, 0xF0	; 240
    1bbe:	32 27       	eor	r19, r18
    1bc0:	42 0f       	add	r20, r18
    1bc2:	53 1f       	adc	r21, r19
    1bc4:	29 85       	ldd	r18, Y+9	; 0x09
    1bc6:	3a 85       	ldd	r19, Y+10	; 0x0a
    1bc8:	24 0f       	add	r18, r20
    1bca:	35 1f       	adc	r19, r21
    1bcc:	f9 01       	movw	r30, r18
    1bce:	24 91       	lpm	r18, Z
    1bd0:	88 0f       	add	r24, r24
    1bd2:	99 1f       	adc	r25, r25
    1bd4:	88 0f       	add	r24, r24
    1bd6:	99 1f       	adc	r25, r25
    1bd8:	80 50       	subi	r24, 0x00	; 0
    1bda:	9f 4f       	sbci	r25, 0xFF	; 255
    1bdc:	dc 01       	movw	r26, r24
    1bde:	2c 93       	st	X, r18
    1be0:	80 91 74 08 	lds	r24, 0x0874	; 0x800874 <cur_col>
    1be4:	28 2f       	mov	r18, r24
    1be6:	30 e0       	ldi	r19, 0x00	; 0
    1be8:	89 85       	ldd	r24, Y+9	; 0x09
    1bea:	9a 85       	ldd	r25, Y+10	; 0x0a
    1bec:	f9 01       	movw	r30, r18
    1bee:	e8 1b       	sub	r30, r24
    1bf0:	f9 0b       	sbc	r31, r25
    1bf2:	cf 01       	movw	r24, r30
    1bf4:	20 91 76 08 	lds	r18, 0x0876	; 0x800876 <shape>
    1bf8:	e2 2f       	mov	r30, r18
    1bfa:	f0 e0       	ldi	r31, 0x00	; 0
    1bfc:	20 91 75 08 	lds	r18, 0x0875	; 0x800875 <pattern>
    1c00:	42 2f       	mov	r20, r18
    1c02:	50 e0       	ldi	r21, 0x00	; 0
    1c04:	29 85       	ldd	r18, Y+9	; 0x09
    1c06:	3a 85       	ldd	r19, Y+10	; 0x0a
    1c08:	2c 5f       	subi	r18, 0xFC	; 252
    1c0a:	3f 4f       	sbci	r19, 0xFF	; 255
    1c0c:	6c e8       	ldi	r22, 0x8C	; 140
    1c0e:	70 e0       	ldi	r23, 0x00	; 0
    1c10:	ee 0f       	add	r30, r30
    1c12:	ff 1f       	adc	r31, r31
    1c14:	ee 0f       	add	r30, r30
    1c16:	ff 1f       	adc	r31, r31
    1c18:	4e 0f       	add	r20, r30
    1c1a:	5f 1f       	adc	r21, r31
    1c1c:	42 95       	swap	r20
    1c1e:	52 95       	swap	r21
    1c20:	50 7f       	andi	r21, 0xF0	; 240
    1c22:	54 27       	eor	r21, r20
    1c24:	40 7f       	andi	r20, 0xF0	; 240
    1c26:	54 27       	eor	r21, r20
    1c28:	46 0f       	add	r20, r22
    1c2a:	57 1f       	adc	r21, r23
    1c2c:	24 0f       	add	r18, r20
    1c2e:	35 1f       	adc	r19, r21
    1c30:	f9 01       	movw	r30, r18
    1c32:	24 91       	lpm	r18, Z
    1c34:	88 0f       	add	r24, r24
    1c36:	99 1f       	adc	r25, r25
    1c38:	88 0f       	add	r24, r24
    1c3a:	99 1f       	adc	r25, r25
    1c3c:	8f 5f       	subi	r24, 0xFF	; 255
    1c3e:	9e 4f       	sbci	r25, 0xFE	; 254
    1c40:	dc 01       	movw	r26, r24
    1c42:	2c 93       	st	X, r18
    1c44:	80 91 74 08 	lds	r24, 0x0874	; 0x800874 <cur_col>
    1c48:	28 2f       	mov	r18, r24
    1c4a:	30 e0       	ldi	r19, 0x00	; 0
    1c4c:	89 85       	ldd	r24, Y+9	; 0x09
    1c4e:	9a 85       	ldd	r25, Y+10	; 0x0a
    1c50:	f9 01       	movw	r30, r18
    1c52:	e8 1b       	sub	r30, r24
    1c54:	f9 0b       	sbc	r31, r25
    1c56:	cf 01       	movw	r24, r30
    1c58:	20 91 76 08 	lds	r18, 0x0876	; 0x800876 <shape>
    1c5c:	e2 2f       	mov	r30, r18
    1c5e:	f0 e0       	ldi	r31, 0x00	; 0
    1c60:	20 91 75 08 	lds	r18, 0x0875	; 0x800875 <pattern>
    1c64:	42 2f       	mov	r20, r18
    1c66:	50 e0       	ldi	r21, 0x00	; 0
    1c68:	29 85       	ldd	r18, Y+9	; 0x09
    1c6a:	3a 85       	ldd	r19, Y+10	; 0x0a
    1c6c:	28 5f       	subi	r18, 0xF8	; 248
    1c6e:	3f 4f       	sbci	r19, 0xFF	; 255
    1c70:	6c e8       	ldi	r22, 0x8C	; 140
    1c72:	70 e0       	ldi	r23, 0x00	; 0
    1c74:	ee 0f       	add	r30, r30
    1c76:	ff 1f       	adc	r31, r31
    1c78:	ee 0f       	add	r30, r30
    1c7a:	ff 1f       	adc	r31, r31
    1c7c:	4e 0f       	add	r20, r30
    1c7e:	5f 1f       	adc	r21, r31
    1c80:	42 95       	swap	r20
    1c82:	52 95       	swap	r21
    1c84:	50 7f       	andi	r21, 0xF0	; 240
    1c86:	54 27       	eor	r21, r20
    1c88:	40 7f       	andi	r20, 0xF0	; 240
    1c8a:	54 27       	eor	r21, r20
    1c8c:	46 0f       	add	r20, r22
    1c8e:	57 1f       	adc	r21, r23
    1c90:	24 0f       	add	r18, r20
    1c92:	35 1f       	adc	r19, r21
    1c94:	f9 01       	movw	r30, r18
    1c96:	24 91       	lpm	r18, Z
    1c98:	88 0f       	add	r24, r24
    1c9a:	99 1f       	adc	r25, r25
    1c9c:	88 0f       	add	r24, r24
    1c9e:	99 1f       	adc	r25, r25
    1ca0:	8e 5f       	subi	r24, 0xFE	; 254
    1ca2:	9e 4f       	sbci	r25, 0xFE	; 254
    1ca4:	dc 01       	movw	r26, r24
    1ca6:	2c 93       	st	X, r18
    1ca8:	80 91 74 08 	lds	r24, 0x0874	; 0x800874 <cur_col>
    1cac:	28 2f       	mov	r18, r24
    1cae:	30 e0       	ldi	r19, 0x00	; 0
    1cb0:	89 85       	ldd	r24, Y+9	; 0x09
    1cb2:	9a 85       	ldd	r25, Y+10	; 0x0a
    1cb4:	f9 01       	movw	r30, r18
    1cb6:	e8 1b       	sub	r30, r24
    1cb8:	f9 0b       	sbc	r31, r25
    1cba:	cf 01       	movw	r24, r30
    1cbc:	20 91 76 08 	lds	r18, 0x0876	; 0x800876 <shape>
    1cc0:	e2 2f       	mov	r30, r18
    1cc2:	f0 e0       	ldi	r31, 0x00	; 0
    1cc4:	20 91 75 08 	lds	r18, 0x0875	; 0x800875 <pattern>
    1cc8:	42 2f       	mov	r20, r18
    1cca:	50 e0       	ldi	r21, 0x00	; 0
    1ccc:	29 85       	ldd	r18, Y+9	; 0x09
    1cce:	3a 85       	ldd	r19, Y+10	; 0x0a
    1cd0:	24 5f       	subi	r18, 0xF4	; 244
    1cd2:	3f 4f       	sbci	r19, 0xFF	; 255
    1cd4:	6c e8       	ldi	r22, 0x8C	; 140
    1cd6:	70 e0       	ldi	r23, 0x00	; 0
    1cd8:	ee 0f       	add	r30, r30
    1cda:	ff 1f       	adc	r31, r31
    1cdc:	ee 0f       	add	r30, r30
    1cde:	ff 1f       	adc	r31, r31
    1ce0:	4e 0f       	add	r20, r30
    1ce2:	5f 1f       	adc	r21, r31
    1ce4:	42 95       	swap	r20
    1ce6:	52 95       	swap	r21
    1ce8:	50 7f       	andi	r21, 0xF0	; 240
    1cea:	54 27       	eor	r21, r20
    1cec:	40 7f       	andi	r20, 0xF0	; 240
    1cee:	54 27       	eor	r21, r20
    1cf0:	46 0f       	add	r20, r22
    1cf2:	57 1f       	adc	r21, r23
    1cf4:	24 0f       	add	r18, r20
    1cf6:	35 1f       	adc	r19, r21
    1cf8:	f9 01       	movw	r30, r18
    1cfa:	24 91       	lpm	r18, Z
    1cfc:	88 0f       	add	r24, r24
    1cfe:	99 1f       	adc	r25, r25
    1d00:	88 0f       	add	r24, r24
    1d02:	99 1f       	adc	r25, r25
    1d04:	8d 5f       	subi	r24, 0xFD	; 253
    1d06:	9e 4f       	sbci	r25, 0xFE	; 254
    1d08:	dc 01       	movw	r26, r24
    1d0a:	2c 93       	st	X, r18
    1d0c:	89 85       	ldd	r24, Y+9	; 0x09
    1d0e:	9a 85       	ldd	r25, Y+10	; 0x0a
    1d10:	01 96       	adiw	r24, 0x01	; 1
    1d12:	9a 87       	std	Y+10, r25	; 0x0a
    1d14:	89 87       	std	Y+9, r24	; 0x09
    1d16:	89 85       	ldd	r24, Y+9	; 0x09
    1d18:	9a 85       	ldd	r25, Y+10	; 0x0a
    1d1a:	04 97       	sbiw	r24, 0x04	; 4
    1d1c:	0c f4       	brge	.+2      	; 0x1d20 <__vector_8+0x2ba>
    1d1e:	30 cf       	rjmp	.-416    	; 0x1b80 <__vector_8+0x11a>
    1d20:	0e 94 d1 1c 	call	0x39a2	; 0x39a2 <Collision>
    1d24:	81 30       	cpi	r24, 0x01	; 1
    1d26:	29 f4       	brne	.+10     	; 0x1d32 <__vector_8+0x2cc>
    1d28:	80 91 74 08 	lds	r24, 0x0874	; 0x800874 <cur_col>
    1d2c:	81 50       	subi	r24, 0x01	; 1
    1d2e:	80 93 74 08 	sts	0x0874, r24	; 0x800874 <cur_col>
    1d32:	1c 86       	std	Y+12, r1	; 0x0c
    1d34:	1b 86       	std	Y+11, r1	; 0x0b
    1d36:	20 c0       	rjmp	.+64     	; 0x1d78 <__vector_8+0x312>
    1d38:	1e 86       	std	Y+14, r1	; 0x0e
    1d3a:	1d 86       	std	Y+13, r1	; 0x0d
    1d3c:	14 c0       	rjmp	.+40     	; 0x1d66 <__vector_8+0x300>
    1d3e:	8b 85       	ldd	r24, Y+11	; 0x0b
    1d40:	9c 85       	ldd	r25, Y+12	; 0x0c
    1d42:	9c 01       	movw	r18, r24
    1d44:	22 0f       	add	r18, r18
    1d46:	33 1f       	adc	r19, r19
    1d48:	22 0f       	add	r18, r18
    1d4a:	33 1f       	adc	r19, r19
    1d4c:	8d 85       	ldd	r24, Y+13	; 0x0d
    1d4e:	9e 85       	ldd	r25, Y+14	; 0x0e
    1d50:	82 0f       	add	r24, r18
    1d52:	93 1f       	adc	r25, r19
    1d54:	80 50       	subi	r24, 0x00	; 0
    1d56:	9f 4f       	sbci	r25, 0xFF	; 255
    1d58:	fc 01       	movw	r30, r24
    1d5a:	10 82       	st	Z, r1
    1d5c:	8d 85       	ldd	r24, Y+13	; 0x0d
    1d5e:	9e 85       	ldd	r25, Y+14	; 0x0e
    1d60:	01 96       	adiw	r24, 0x01	; 1
    1d62:	9e 87       	std	Y+14, r25	; 0x0e
    1d64:	8d 87       	std	Y+13, r24	; 0x0d
    1d66:	8d 85       	ldd	r24, Y+13	; 0x0d
    1d68:	9e 85       	ldd	r25, Y+14	; 0x0e
    1d6a:	04 97       	sbiw	r24, 0x04	; 4
    1d6c:	44 f3       	brlt	.-48     	; 0x1d3e <__vector_8+0x2d8>
    1d6e:	8b 85       	ldd	r24, Y+11	; 0x0b
    1d70:	9c 85       	ldd	r25, Y+12	; 0x0c
    1d72:	01 96       	adiw	r24, 0x01	; 1
    1d74:	9c 87       	std	Y+12, r25	; 0x0c
    1d76:	8b 87       	std	Y+11, r24	; 0x0b
    1d78:	8b 85       	ldd	r24, Y+11	; 0x0b
    1d7a:	9c 85       	ldd	r25, Y+12	; 0x0c
    1d7c:	0c 97       	sbiw	r24, 0x0c	; 12
    1d7e:	e4 f2       	brlt	.-72     	; 0x1d38 <__vector_8+0x2d2>
    1d80:	18 8a       	std	Y+16, r1	; 0x10
    1d82:	1f 86       	std	Y+15, r1	; 0x0f
    1d84:	cb c0       	rjmp	.+406    	; 0x1f1c <__vector_8+0x4b6>
    1d86:	80 91 74 08 	lds	r24, 0x0874	; 0x800874 <cur_col>
    1d8a:	28 2f       	mov	r18, r24
    1d8c:	30 e0       	ldi	r19, 0x00	; 0
    1d8e:	8f 85       	ldd	r24, Y+15	; 0x0f
    1d90:	98 89       	ldd	r25, Y+16	; 0x10
    1d92:	a9 01       	movw	r20, r18
    1d94:	48 1b       	sub	r20, r24
    1d96:	59 0b       	sbc	r21, r25
    1d98:	ca 01       	movw	r24, r20
    1d9a:	20 91 76 08 	lds	r18, 0x0876	; 0x800876 <shape>
    1d9e:	62 2f       	mov	r22, r18
    1da0:	70 e0       	ldi	r23, 0x00	; 0
    1da2:	20 91 75 08 	lds	r18, 0x0875	; 0x800875 <pattern>
    1da6:	22 2f       	mov	r18, r18
    1da8:	30 e0       	ldi	r19, 0x00	; 0
    1daa:	4c e8       	ldi	r20, 0x8C	; 140
    1dac:	50 e0       	ldi	r21, 0x00	; 0
    1dae:	66 0f       	add	r22, r22
    1db0:	77 1f       	adc	r23, r23
    1db2:	66 0f       	add	r22, r22
    1db4:	77 1f       	adc	r23, r23
    1db6:	26 0f       	add	r18, r22
    1db8:	37 1f       	adc	r19, r23
    1dba:	22 95       	swap	r18
    1dbc:	32 95       	swap	r19
    1dbe:	30 7f       	andi	r19, 0xF0	; 240
    1dc0:	32 27       	eor	r19, r18
    1dc2:	20 7f       	andi	r18, 0xF0	; 240
    1dc4:	32 27       	eor	r19, r18
    1dc6:	42 0f       	add	r20, r18
    1dc8:	53 1f       	adc	r21, r19
    1dca:	2f 85       	ldd	r18, Y+15	; 0x0f
    1dcc:	38 89       	ldd	r19, Y+16	; 0x10
    1dce:	24 0f       	add	r18, r20
    1dd0:	35 1f       	adc	r19, r21
    1dd2:	f9 01       	movw	r30, r18
    1dd4:	24 91       	lpm	r18, Z
    1dd6:	88 0f       	add	r24, r24
    1dd8:	99 1f       	adc	r25, r25
    1dda:	88 0f       	add	r24, r24
    1ddc:	99 1f       	adc	r25, r25
    1dde:	80 50       	subi	r24, 0x00	; 0
    1de0:	9f 4f       	sbci	r25, 0xFF	; 255
    1de2:	dc 01       	movw	r26, r24
    1de4:	2c 93       	st	X, r18
    1de6:	80 91 74 08 	lds	r24, 0x0874	; 0x800874 <cur_col>
    1dea:	28 2f       	mov	r18, r24
    1dec:	30 e0       	ldi	r19, 0x00	; 0
    1dee:	8f 85       	ldd	r24, Y+15	; 0x0f
    1df0:	98 89       	ldd	r25, Y+16	; 0x10
    1df2:	f9 01       	movw	r30, r18
    1df4:	e8 1b       	sub	r30, r24
    1df6:	f9 0b       	sbc	r31, r25
    1df8:	cf 01       	movw	r24, r30
    1dfa:	20 91 76 08 	lds	r18, 0x0876	; 0x800876 <shape>
    1dfe:	e2 2f       	mov	r30, r18
    1e00:	f0 e0       	ldi	r31, 0x00	; 0
    1e02:	20 91 75 08 	lds	r18, 0x0875	; 0x800875 <pattern>
    1e06:	42 2f       	mov	r20, r18
    1e08:	50 e0       	ldi	r21, 0x00	; 0
    1e0a:	2f 85       	ldd	r18, Y+15	; 0x0f
    1e0c:	38 89       	ldd	r19, Y+16	; 0x10
    1e0e:	2c 5f       	subi	r18, 0xFC	; 252
    1e10:	3f 4f       	sbci	r19, 0xFF	; 255
    1e12:	6c e8       	ldi	r22, 0x8C	; 140
    1e14:	70 e0       	ldi	r23, 0x00	; 0
    1e16:	ee 0f       	add	r30, r30
    1e18:	ff 1f       	adc	r31, r31
    1e1a:	ee 0f       	add	r30, r30
    1e1c:	ff 1f       	adc	r31, r31
    1e1e:	4e 0f       	add	r20, r30
    1e20:	5f 1f       	adc	r21, r31
    1e22:	42 95       	swap	r20
    1e24:	52 95       	swap	r21
    1e26:	50 7f       	andi	r21, 0xF0	; 240
    1e28:	54 27       	eor	r21, r20
    1e2a:	40 7f       	andi	r20, 0xF0	; 240
    1e2c:	54 27       	eor	r21, r20
    1e2e:	46 0f       	add	r20, r22
    1e30:	57 1f       	adc	r21, r23
    1e32:	24 0f       	add	r18, r20
    1e34:	35 1f       	adc	r19, r21
    1e36:	f9 01       	movw	r30, r18
    1e38:	24 91       	lpm	r18, Z
    1e3a:	88 0f       	add	r24, r24
    1e3c:	99 1f       	adc	r25, r25
    1e3e:	88 0f       	add	r24, r24
    1e40:	99 1f       	adc	r25, r25
    1e42:	8f 5f       	subi	r24, 0xFF	; 255
    1e44:	9e 4f       	sbci	r25, 0xFE	; 254
    1e46:	dc 01       	movw	r26, r24
    1e48:	2c 93       	st	X, r18
    1e4a:	80 91 74 08 	lds	r24, 0x0874	; 0x800874 <cur_col>
    1e4e:	28 2f       	mov	r18, r24
    1e50:	30 e0       	ldi	r19, 0x00	; 0
    1e52:	8f 85       	ldd	r24, Y+15	; 0x0f
    1e54:	98 89       	ldd	r25, Y+16	; 0x10
    1e56:	f9 01       	movw	r30, r18
    1e58:	e8 1b       	sub	r30, r24
    1e5a:	f9 0b       	sbc	r31, r25
    1e5c:	cf 01       	movw	r24, r30
    1e5e:	20 91 76 08 	lds	r18, 0x0876	; 0x800876 <shape>
    1e62:	e2 2f       	mov	r30, r18
    1e64:	f0 e0       	ldi	r31, 0x00	; 0
    1e66:	20 91 75 08 	lds	r18, 0x0875	; 0x800875 <pattern>
    1e6a:	42 2f       	mov	r20, r18
    1e6c:	50 e0       	ldi	r21, 0x00	; 0
    1e6e:	2f 85       	ldd	r18, Y+15	; 0x0f
    1e70:	38 89       	ldd	r19, Y+16	; 0x10
    1e72:	28 5f       	subi	r18, 0xF8	; 248
    1e74:	3f 4f       	sbci	r19, 0xFF	; 255
    1e76:	6c e8       	ldi	r22, 0x8C	; 140
    1e78:	70 e0       	ldi	r23, 0x00	; 0
    1e7a:	ee 0f       	add	r30, r30
    1e7c:	ff 1f       	adc	r31, r31
    1e7e:	ee 0f       	add	r30, r30
    1e80:	ff 1f       	adc	r31, r31
    1e82:	4e 0f       	add	r20, r30
    1e84:	5f 1f       	adc	r21, r31
    1e86:	42 95       	swap	r20
    1e88:	52 95       	swap	r21
    1e8a:	50 7f       	andi	r21, 0xF0	; 240
    1e8c:	54 27       	eor	r21, r20
    1e8e:	40 7f       	andi	r20, 0xF0	; 240
    1e90:	54 27       	eor	r21, r20
    1e92:	46 0f       	add	r20, r22
    1e94:	57 1f       	adc	r21, r23
    1e96:	24 0f       	add	r18, r20
    1e98:	35 1f       	adc	r19, r21
    1e9a:	f9 01       	movw	r30, r18
    1e9c:	24 91       	lpm	r18, Z
    1e9e:	88 0f       	add	r24, r24
    1ea0:	99 1f       	adc	r25, r25
    1ea2:	88 0f       	add	r24, r24
    1ea4:	99 1f       	adc	r25, r25
    1ea6:	8e 5f       	subi	r24, 0xFE	; 254
    1ea8:	9e 4f       	sbci	r25, 0xFE	; 254
    1eaa:	dc 01       	movw	r26, r24
    1eac:	2c 93       	st	X, r18
    1eae:	80 91 74 08 	lds	r24, 0x0874	; 0x800874 <cur_col>
    1eb2:	28 2f       	mov	r18, r24
    1eb4:	30 e0       	ldi	r19, 0x00	; 0
    1eb6:	8f 85       	ldd	r24, Y+15	; 0x0f
    1eb8:	98 89       	ldd	r25, Y+16	; 0x10
    1eba:	f9 01       	movw	r30, r18
    1ebc:	e8 1b       	sub	r30, r24
    1ebe:	f9 0b       	sbc	r31, r25
    1ec0:	cf 01       	movw	r24, r30
    1ec2:	20 91 76 08 	lds	r18, 0x0876	; 0x800876 <shape>
    1ec6:	e2 2f       	mov	r30, r18
    1ec8:	f0 e0       	ldi	r31, 0x00	; 0
    1eca:	20 91 75 08 	lds	r18, 0x0875	; 0x800875 <pattern>
    1ece:	42 2f       	mov	r20, r18
    1ed0:	50 e0       	ldi	r21, 0x00	; 0
    1ed2:	2f 85       	ldd	r18, Y+15	; 0x0f
    1ed4:	38 89       	ldd	r19, Y+16	; 0x10
    1ed6:	24 5f       	subi	r18, 0xF4	; 244
    1ed8:	3f 4f       	sbci	r19, 0xFF	; 255
    1eda:	6c e8       	ldi	r22, 0x8C	; 140
    1edc:	70 e0       	ldi	r23, 0x00	; 0
    1ede:	ee 0f       	add	r30, r30
    1ee0:	ff 1f       	adc	r31, r31
    1ee2:	ee 0f       	add	r30, r30
    1ee4:	ff 1f       	adc	r31, r31
    1ee6:	4e 0f       	add	r20, r30
    1ee8:	5f 1f       	adc	r21, r31
    1eea:	42 95       	swap	r20
    1eec:	52 95       	swap	r21
    1eee:	50 7f       	andi	r21, 0xF0	; 240
    1ef0:	54 27       	eor	r21, r20
    1ef2:	40 7f       	andi	r20, 0xF0	; 240
    1ef4:	54 27       	eor	r21, r20
    1ef6:	46 0f       	add	r20, r22
    1ef8:	57 1f       	adc	r21, r23
    1efa:	24 0f       	add	r18, r20
    1efc:	35 1f       	adc	r19, r21
    1efe:	f9 01       	movw	r30, r18
    1f00:	24 91       	lpm	r18, Z
    1f02:	88 0f       	add	r24, r24
    1f04:	99 1f       	adc	r25, r25
    1f06:	88 0f       	add	r24, r24
    1f08:	99 1f       	adc	r25, r25
    1f0a:	8d 5f       	subi	r24, 0xFD	; 253
    1f0c:	9e 4f       	sbci	r25, 0xFE	; 254
    1f0e:	dc 01       	movw	r26, r24
    1f10:	2c 93       	st	X, r18
    1f12:	8f 85       	ldd	r24, Y+15	; 0x0f
    1f14:	98 89       	ldd	r25, Y+16	; 0x10
    1f16:	01 96       	adiw	r24, 0x01	; 1
    1f18:	98 8b       	std	Y+16, r25	; 0x10
    1f1a:	8f 87       	std	Y+15, r24	; 0x0f
    1f1c:	8f 85       	ldd	r24, Y+15	; 0x0f
    1f1e:	98 89       	ldd	r25, Y+16	; 0x10
    1f20:	04 97       	sbiw	r24, 0x04	; 4
    1f22:	0c f4       	brge	.+2      	; 0x1f26 <__vector_8+0x4c0>
    1f24:	30 cf       	rjmp	.-416    	; 0x1d86 <__vector_8+0x320>
    1f26:	1a 8a       	std	Y+18, r1	; 0x12
    1f28:	19 8a       	std	Y+17, r1	; 0x11
    1f2a:	2a c1       	rjmp	.+596    	; 0x2180 <__vector_8+0x71a>
    1f2c:	80 91 74 08 	lds	r24, 0x0874	; 0x800874 <cur_col>
    1f30:	28 2f       	mov	r18, r24
    1f32:	30 e0       	ldi	r19, 0x00	; 0
    1f34:	89 89       	ldd	r24, Y+17	; 0x11
    1f36:	9a 89       	ldd	r25, Y+18	; 0x12
    1f38:	28 1b       	sub	r18, r24
    1f3a:	39 0b       	sbc	r19, r25
    1f3c:	80 91 73 08 	lds	r24, 0x0873	; 0x800873 <cur_line>
    1f40:	88 2f       	mov	r24, r24
    1f42:	90 e0       	ldi	r25, 0x00	; 0
    1f44:	40 91 74 08 	lds	r20, 0x0874	; 0x800874 <cur_col>
    1f48:	64 2f       	mov	r22, r20
    1f4a:	70 e0       	ldi	r23, 0x00	; 0
    1f4c:	49 89       	ldd	r20, Y+17	; 0x11
    1f4e:	5a 89       	ldd	r21, Y+18	; 0x12
    1f50:	64 1b       	sub	r22, r20
    1f52:	75 0b       	sbc	r23, r21
    1f54:	40 91 73 08 	lds	r20, 0x0873	; 0x800873 <cur_line>
    1f58:	44 2f       	mov	r20, r20
    1f5a:	50 e0       	ldi	r21, 0x00	; 0
    1f5c:	66 0f       	add	r22, r22
    1f5e:	77 1f       	adc	r23, r23
    1f60:	62 95       	swap	r22
    1f62:	72 95       	swap	r23
    1f64:	70 7f       	andi	r23, 0xF0	; 240
    1f66:	76 27       	eor	r23, r22
    1f68:	60 7f       	andi	r22, 0xF0	; 240
    1f6a:	76 27       	eor	r23, r22
    1f6c:	46 0f       	add	r20, r22
    1f6e:	57 1f       	adc	r21, r23
    1f70:	40 55       	subi	r20, 0x50	; 80
    1f72:	5d 4f       	sbci	r21, 0xFD	; 253
    1f74:	da 01       	movw	r26, r20
    1f76:	ec 91       	ld	r30, X
    1f78:	40 91 74 08 	lds	r20, 0x0874	; 0x800874 <cur_col>
    1f7c:	64 2f       	mov	r22, r20
    1f7e:	70 e0       	ldi	r23, 0x00	; 0
    1f80:	49 89       	ldd	r20, Y+17	; 0x11
    1f82:	5a 89       	ldd	r21, Y+18	; 0x12
    1f84:	db 01       	movw	r26, r22
    1f86:	a4 1b       	sub	r26, r20
    1f88:	b5 0b       	sbc	r27, r21
    1f8a:	ad 01       	movw	r20, r26
    1f8c:	44 0f       	add	r20, r20
    1f8e:	55 1f       	adc	r21, r21
    1f90:	44 0f       	add	r20, r20
    1f92:	55 1f       	adc	r21, r21
    1f94:	40 50       	subi	r20, 0x00	; 0
    1f96:	5f 4f       	sbci	r21, 0xFF	; 255
    1f98:	da 01       	movw	r26, r20
    1f9a:	4c 91       	ld	r20, X
    1f9c:	4e 2b       	or	r20, r30
    1f9e:	22 0f       	add	r18, r18
    1fa0:	33 1f       	adc	r19, r19
    1fa2:	22 95       	swap	r18
    1fa4:	32 95       	swap	r19
    1fa6:	30 7f       	andi	r19, 0xF0	; 240
    1fa8:	32 27       	eor	r19, r18
    1faa:	20 7f       	andi	r18, 0xF0	; 240
    1fac:	32 27       	eor	r19, r18
    1fae:	82 0f       	add	r24, r18
    1fb0:	93 1f       	adc	r25, r19
    1fb2:	80 55       	subi	r24, 0x50	; 80
    1fb4:	9d 4f       	sbci	r25, 0xFD	; 253
    1fb6:	fc 01       	movw	r30, r24
    1fb8:	40 83       	st	Z, r20
    1fba:	80 91 74 08 	lds	r24, 0x0874	; 0x800874 <cur_col>
    1fbe:	28 2f       	mov	r18, r24
    1fc0:	30 e0       	ldi	r19, 0x00	; 0
    1fc2:	89 89       	ldd	r24, Y+17	; 0x11
    1fc4:	9a 89       	ldd	r25, Y+18	; 0x12
    1fc6:	28 1b       	sub	r18, r24
    1fc8:	39 0b       	sbc	r19, r25
    1fca:	80 91 73 08 	lds	r24, 0x0873	; 0x800873 <cur_line>
    1fce:	88 2f       	mov	r24, r24
    1fd0:	90 e0       	ldi	r25, 0x00	; 0
    1fd2:	01 96       	adiw	r24, 0x01	; 1
    1fd4:	40 91 74 08 	lds	r20, 0x0874	; 0x800874 <cur_col>
    1fd8:	64 2f       	mov	r22, r20
    1fda:	70 e0       	ldi	r23, 0x00	; 0
    1fdc:	49 89       	ldd	r20, Y+17	; 0x11
    1fde:	5a 89       	ldd	r21, Y+18	; 0x12
    1fe0:	64 1b       	sub	r22, r20
    1fe2:	75 0b       	sbc	r23, r21
    1fe4:	40 91 73 08 	lds	r20, 0x0873	; 0x800873 <cur_line>
    1fe8:	44 2f       	mov	r20, r20
    1fea:	50 e0       	ldi	r21, 0x00	; 0
    1fec:	4f 5f       	subi	r20, 0xFF	; 255
    1fee:	5f 4f       	sbci	r21, 0xFF	; 255
    1ff0:	66 0f       	add	r22, r22
    1ff2:	77 1f       	adc	r23, r23
    1ff4:	62 95       	swap	r22
    1ff6:	72 95       	swap	r23
    1ff8:	70 7f       	andi	r23, 0xF0	; 240
    1ffa:	76 27       	eor	r23, r22
    1ffc:	60 7f       	andi	r22, 0xF0	; 240
    1ffe:	76 27       	eor	r23, r22
    2000:	46 0f       	add	r20, r22
    2002:	57 1f       	adc	r21, r23
    2004:	40 55       	subi	r20, 0x50	; 80
    2006:	5d 4f       	sbci	r21, 0xFD	; 253
    2008:	da 01       	movw	r26, r20
    200a:	ec 91       	ld	r30, X
    200c:	40 91 74 08 	lds	r20, 0x0874	; 0x800874 <cur_col>
    2010:	64 2f       	mov	r22, r20
    2012:	70 e0       	ldi	r23, 0x00	; 0
    2014:	49 89       	ldd	r20, Y+17	; 0x11
    2016:	5a 89       	ldd	r21, Y+18	; 0x12
    2018:	db 01       	movw	r26, r22
    201a:	a4 1b       	sub	r26, r20
    201c:	b5 0b       	sbc	r27, r21
    201e:	ad 01       	movw	r20, r26
    2020:	44 0f       	add	r20, r20
    2022:	55 1f       	adc	r21, r21
    2024:	44 0f       	add	r20, r20
    2026:	55 1f       	adc	r21, r21
    2028:	4f 5f       	subi	r20, 0xFF	; 255
    202a:	5e 4f       	sbci	r21, 0xFE	; 254
    202c:	da 01       	movw	r26, r20
    202e:	4c 91       	ld	r20, X
    2030:	4e 2b       	or	r20, r30
    2032:	22 0f       	add	r18, r18
    2034:	33 1f       	adc	r19, r19
    2036:	22 95       	swap	r18
    2038:	32 95       	swap	r19
    203a:	30 7f       	andi	r19, 0xF0	; 240
    203c:	32 27       	eor	r19, r18
    203e:	20 7f       	andi	r18, 0xF0	; 240
    2040:	32 27       	eor	r19, r18
    2042:	82 0f       	add	r24, r18
    2044:	93 1f       	adc	r25, r19
    2046:	80 55       	subi	r24, 0x50	; 80
    2048:	9d 4f       	sbci	r25, 0xFD	; 253
    204a:	fc 01       	movw	r30, r24
    204c:	40 83       	st	Z, r20
    204e:	80 91 74 08 	lds	r24, 0x0874	; 0x800874 <cur_col>
    2052:	28 2f       	mov	r18, r24
    2054:	30 e0       	ldi	r19, 0x00	; 0
    2056:	89 89       	ldd	r24, Y+17	; 0x11
    2058:	9a 89       	ldd	r25, Y+18	; 0x12
    205a:	28 1b       	sub	r18, r24
    205c:	39 0b       	sbc	r19, r25
    205e:	80 91 73 08 	lds	r24, 0x0873	; 0x800873 <cur_line>
    2062:	88 2f       	mov	r24, r24
    2064:	90 e0       	ldi	r25, 0x00	; 0
    2066:	02 96       	adiw	r24, 0x02	; 2
    2068:	40 91 74 08 	lds	r20, 0x0874	; 0x800874 <cur_col>
    206c:	64 2f       	mov	r22, r20
    206e:	70 e0       	ldi	r23, 0x00	; 0
    2070:	49 89       	ldd	r20, Y+17	; 0x11
    2072:	5a 89       	ldd	r21, Y+18	; 0x12
    2074:	64 1b       	sub	r22, r20
    2076:	75 0b       	sbc	r23, r21
    2078:	40 91 73 08 	lds	r20, 0x0873	; 0x800873 <cur_line>
    207c:	44 2f       	mov	r20, r20
    207e:	50 e0       	ldi	r21, 0x00	; 0
    2080:	4e 5f       	subi	r20, 0xFE	; 254
    2082:	5f 4f       	sbci	r21, 0xFF	; 255
    2084:	66 0f       	add	r22, r22
    2086:	77 1f       	adc	r23, r23
    2088:	62 95       	swap	r22
    208a:	72 95       	swap	r23
    208c:	70 7f       	andi	r23, 0xF0	; 240
    208e:	76 27       	eor	r23, r22
    2090:	60 7f       	andi	r22, 0xF0	; 240
    2092:	76 27       	eor	r23, r22
    2094:	46 0f       	add	r20, r22
    2096:	57 1f       	adc	r21, r23
    2098:	40 55       	subi	r20, 0x50	; 80
    209a:	5d 4f       	sbci	r21, 0xFD	; 253
    209c:	da 01       	movw	r26, r20
    209e:	ec 91       	ld	r30, X
    20a0:	40 91 74 08 	lds	r20, 0x0874	; 0x800874 <cur_col>
    20a4:	64 2f       	mov	r22, r20
    20a6:	70 e0       	ldi	r23, 0x00	; 0
    20a8:	49 89       	ldd	r20, Y+17	; 0x11
    20aa:	5a 89       	ldd	r21, Y+18	; 0x12
    20ac:	db 01       	movw	r26, r22
    20ae:	a4 1b       	sub	r26, r20
    20b0:	b5 0b       	sbc	r27, r21
    20b2:	ad 01       	movw	r20, r26
    20b4:	44 0f       	add	r20, r20
    20b6:	55 1f       	adc	r21, r21
    20b8:	44 0f       	add	r20, r20
    20ba:	55 1f       	adc	r21, r21
    20bc:	4e 5f       	subi	r20, 0xFE	; 254
    20be:	5e 4f       	sbci	r21, 0xFE	; 254
    20c0:	da 01       	movw	r26, r20
    20c2:	4c 91       	ld	r20, X
    20c4:	4e 2b       	or	r20, r30
    20c6:	22 0f       	add	r18, r18
    20c8:	33 1f       	adc	r19, r19
    20ca:	22 95       	swap	r18
    20cc:	32 95       	swap	r19
    20ce:	30 7f       	andi	r19, 0xF0	; 240
    20d0:	32 27       	eor	r19, r18
    20d2:	20 7f       	andi	r18, 0xF0	; 240
    20d4:	32 27       	eor	r19, r18
    20d6:	82 0f       	add	r24, r18
    20d8:	93 1f       	adc	r25, r19
    20da:	80 55       	subi	r24, 0x50	; 80
    20dc:	9d 4f       	sbci	r25, 0xFD	; 253
    20de:	fc 01       	movw	r30, r24
    20e0:	40 83       	st	Z, r20
    20e2:	80 91 74 08 	lds	r24, 0x0874	; 0x800874 <cur_col>
    20e6:	28 2f       	mov	r18, r24
    20e8:	30 e0       	ldi	r19, 0x00	; 0
    20ea:	89 89       	ldd	r24, Y+17	; 0x11
    20ec:	9a 89       	ldd	r25, Y+18	; 0x12
    20ee:	28 1b       	sub	r18, r24
    20f0:	39 0b       	sbc	r19, r25
    20f2:	80 91 73 08 	lds	r24, 0x0873	; 0x800873 <cur_line>
    20f6:	88 2f       	mov	r24, r24
    20f8:	90 e0       	ldi	r25, 0x00	; 0
    20fa:	03 96       	adiw	r24, 0x03	; 3
    20fc:	40 91 74 08 	lds	r20, 0x0874	; 0x800874 <cur_col>
    2100:	64 2f       	mov	r22, r20
    2102:	70 e0       	ldi	r23, 0x00	; 0
    2104:	49 89       	ldd	r20, Y+17	; 0x11
    2106:	5a 89       	ldd	r21, Y+18	; 0x12
    2108:	64 1b       	sub	r22, r20
    210a:	75 0b       	sbc	r23, r21
    210c:	40 91 73 08 	lds	r20, 0x0873	; 0x800873 <cur_line>
    2110:	44 2f       	mov	r20, r20
    2112:	50 e0       	ldi	r21, 0x00	; 0
    2114:	4d 5f       	subi	r20, 0xFD	; 253
    2116:	5f 4f       	sbci	r21, 0xFF	; 255
    2118:	66 0f       	add	r22, r22
    211a:	77 1f       	adc	r23, r23
    211c:	62 95       	swap	r22
    211e:	72 95       	swap	r23
    2120:	70 7f       	andi	r23, 0xF0	; 240
    2122:	76 27       	eor	r23, r22
    2124:	60 7f       	andi	r22, 0xF0	; 240
    2126:	76 27       	eor	r23, r22
    2128:	46 0f       	add	r20, r22
    212a:	57 1f       	adc	r21, r23
    212c:	40 55       	subi	r20, 0x50	; 80
    212e:	5d 4f       	sbci	r21, 0xFD	; 253
    2130:	da 01       	movw	r26, r20
    2132:	ec 91       	ld	r30, X
    2134:	40 91 74 08 	lds	r20, 0x0874	; 0x800874 <cur_col>
    2138:	64 2f       	mov	r22, r20
    213a:	70 e0       	ldi	r23, 0x00	; 0
    213c:	49 89       	ldd	r20, Y+17	; 0x11
    213e:	5a 89       	ldd	r21, Y+18	; 0x12
    2140:	db 01       	movw	r26, r22
    2142:	a4 1b       	sub	r26, r20
    2144:	b5 0b       	sbc	r27, r21
    2146:	ad 01       	movw	r20, r26
    2148:	44 0f       	add	r20, r20
    214a:	55 1f       	adc	r21, r21
    214c:	44 0f       	add	r20, r20
    214e:	55 1f       	adc	r21, r21
    2150:	4d 5f       	subi	r20, 0xFD	; 253
    2152:	5e 4f       	sbci	r21, 0xFE	; 254
    2154:	da 01       	movw	r26, r20
    2156:	4c 91       	ld	r20, X
    2158:	4e 2b       	or	r20, r30
    215a:	22 0f       	add	r18, r18
    215c:	33 1f       	adc	r19, r19
    215e:	22 95       	swap	r18
    2160:	32 95       	swap	r19
    2162:	30 7f       	andi	r19, 0xF0	; 240
    2164:	32 27       	eor	r19, r18
    2166:	20 7f       	andi	r18, 0xF0	; 240
    2168:	32 27       	eor	r19, r18
    216a:	82 0f       	add	r24, r18
    216c:	93 1f       	adc	r25, r19
    216e:	80 55       	subi	r24, 0x50	; 80
    2170:	9d 4f       	sbci	r25, 0xFD	; 253
    2172:	fc 01       	movw	r30, r24
    2174:	40 83       	st	Z, r20
    2176:	89 89       	ldd	r24, Y+17	; 0x11
    2178:	9a 89       	ldd	r25, Y+18	; 0x12
    217a:	01 96       	adiw	r24, 0x01	; 1
    217c:	9a 8b       	std	Y+18, r25	; 0x12
    217e:	89 8b       	std	Y+17, r24	; 0x11
    2180:	89 89       	ldd	r24, Y+17	; 0x11
    2182:	9a 89       	ldd	r25, Y+18	; 0x12
    2184:	04 97       	sbiw	r24, 0x04	; 4
    2186:	0c f4       	brge	.+2      	; 0x218a <__vector_8+0x724>
    2188:	d1 ce       	rjmp	.-606    	; 0x1f2c <__vector_8+0x4c6>
    218a:	00 00       	nop
    218c:	62 96       	adiw	r28, 0x12	; 18
    218e:	0f b6       	in	r0, 0x3f	; 63
    2190:	f8 94       	cli
    2192:	de bf       	out	0x3e, r29	; 62
    2194:	0f be       	out	0x3f, r0	; 63
    2196:	cd bf       	out	0x3d, r28	; 61
    2198:	df 91       	pop	r29
    219a:	cf 91       	pop	r28
    219c:	ff 91       	pop	r31
    219e:	ef 91       	pop	r30
    21a0:	bf 91       	pop	r27
    21a2:	af 91       	pop	r26
    21a4:	9f 91       	pop	r25
    21a6:	8f 91       	pop	r24
    21a8:	7f 91       	pop	r23
    21aa:	6f 91       	pop	r22
    21ac:	5f 91       	pop	r21
    21ae:	4f 91       	pop	r20
    21b0:	3f 91       	pop	r19
    21b2:	2f 91       	pop	r18
    21b4:	0f 90       	pop	r0
    21b6:	00 92 5b 00 	sts	0x005B, r0	; 0x80005b <__TEXT_REGION_LENGTH__+0x7e005b>
    21ba:	0f 90       	pop	r0
    21bc:	00 92 5f 00 	sts	0x005F, r0	; 0x80005f <__TEXT_REGION_LENGTH__+0x7e005f>
    21c0:	0f 90       	pop	r0
    21c2:	1f 90       	pop	r1
    21c4:	18 95       	reti

000021c6 <__vector_4>:
    21c6:	1f 92       	push	r1
    21c8:	0f 92       	push	r0
    21ca:	00 90 5f 00 	lds	r0, 0x005F	; 0x80005f <__TEXT_REGION_LENGTH__+0x7e005f>
    21ce:	0f 92       	push	r0
    21d0:	11 24       	eor	r1, r1
    21d2:	cf 93       	push	r28
    21d4:	df 93       	push	r29
    21d6:	cd b7       	in	r28, 0x3d	; 61
    21d8:	de b7       	in	r29, 0x3e	; 62
    21da:	00 00       	nop
    21dc:	df 91       	pop	r29
    21de:	cf 91       	pop	r28
    21e0:	0f 90       	pop	r0
    21e2:	00 92 5f 00 	sts	0x005F, r0	; 0x80005f <__TEXT_REGION_LENGTH__+0x7e005f>
    21e6:	0f 90       	pop	r0
    21e8:	1f 90       	pop	r1
    21ea:	18 95       	reti

000021ec <__vector_12>:
    21ec:	1f 92       	push	r1
    21ee:	0f 92       	push	r0
    21f0:	00 90 5f 00 	lds	r0, 0x005F	; 0x80005f <__TEXT_REGION_LENGTH__+0x7e005f>
    21f4:	0f 92       	push	r0
    21f6:	11 24       	eor	r1, r1
    21f8:	00 90 5b 00 	lds	r0, 0x005B	; 0x80005b <__TEXT_REGION_LENGTH__+0x7e005b>
    21fc:	0f 92       	push	r0
    21fe:	2f 93       	push	r18
    2200:	3f 93       	push	r19
    2202:	4f 93       	push	r20
    2204:	5f 93       	push	r21
    2206:	6f 93       	push	r22
    2208:	7f 93       	push	r23
    220a:	8f 93       	push	r24
    220c:	9f 93       	push	r25
    220e:	af 93       	push	r26
    2210:	bf 93       	push	r27
    2212:	ef 93       	push	r30
    2214:	ff 93       	push	r31
    2216:	cf 93       	push	r28
    2218:	df 93       	push	r29
    221a:	cd b7       	in	r28, 0x3d	; 61
    221c:	de b7       	in	r29, 0x3e	; 62
    221e:	60 97       	sbiw	r28, 0x10	; 16
    2220:	de bf       	out	0x3e, r29	; 62
    2222:	cd bf       	out	0x3d, r28	; 61
    2224:	80 91 30 04 	lds	r24, 0x0430	; 0x800430 <new_block>
    2228:	88 23       	and	r24, r24
    222a:	09 f0       	breq	.+2      	; 0x222e <__vector_12+0x42>
    222c:	97 c3       	rjmp	.+1838   	; 0x295c <__vector_12+0x770>
    222e:	1a 82       	std	Y+2, r1	; 0x02
    2230:	19 82       	std	Y+1, r1	; 0x01
    2232:	37 c0       	rjmp	.+110    	; 0x22a2 <__vector_12+0xb6>
    2234:	1c 82       	std	Y+4, r1	; 0x04
    2236:	1b 82       	std	Y+3, r1	; 0x03
    2238:	2b c0       	rjmp	.+86     	; 0x2290 <__vector_12+0xa4>
    223a:	89 81       	ldd	r24, Y+1	; 0x01
    223c:	9a 81       	ldd	r25, Y+2	; 0x02
    223e:	9c 01       	movw	r18, r24
    2240:	22 0f       	add	r18, r18
    2242:	33 1f       	adc	r19, r19
    2244:	22 95       	swap	r18
    2246:	32 95       	swap	r19
    2248:	30 7f       	andi	r19, 0xF0	; 240
    224a:	32 27       	eor	r19, r18
    224c:	20 7f       	andi	r18, 0xF0	; 240
    224e:	32 27       	eor	r19, r18
    2250:	8b 81       	ldd	r24, Y+3	; 0x03
    2252:	9c 81       	ldd	r25, Y+4	; 0x04
    2254:	82 0f       	add	r24, r18
    2256:	93 1f       	adc	r25, r19
    2258:	80 5d       	subi	r24, 0xD0	; 208
    225a:	9e 4f       	sbci	r25, 0xFE	; 254
    225c:	dc 01       	movw	r26, r24
    225e:	4c 91       	ld	r20, X
    2260:	89 81       	ldd	r24, Y+1	; 0x01
    2262:	9a 81       	ldd	r25, Y+2	; 0x02
    2264:	9c 01       	movw	r18, r24
    2266:	22 0f       	add	r18, r18
    2268:	33 1f       	adc	r19, r19
    226a:	22 95       	swap	r18
    226c:	32 95       	swap	r19
    226e:	30 7f       	andi	r19, 0xF0	; 240
    2270:	32 27       	eor	r19, r18
    2272:	20 7f       	andi	r18, 0xF0	; 240
    2274:	32 27       	eor	r19, r18
    2276:	8b 81       	ldd	r24, Y+3	; 0x03
    2278:	9c 81       	ldd	r25, Y+4	; 0x04
    227a:	82 0f       	add	r24, r18
    227c:	93 1f       	adc	r25, r19
    227e:	80 55       	subi	r24, 0x50	; 80
    2280:	9d 4f       	sbci	r25, 0xFD	; 253
    2282:	fc 01       	movw	r30, r24
    2284:	40 83       	st	Z, r20
    2286:	8b 81       	ldd	r24, Y+3	; 0x03
    2288:	9c 81       	ldd	r25, Y+4	; 0x04
    228a:	01 96       	adiw	r24, 0x01	; 1
    228c:	9c 83       	std	Y+4, r25	; 0x04
    228e:	8b 83       	std	Y+3, r24	; 0x03
    2290:	8b 81       	ldd	r24, Y+3	; 0x03
    2292:	9c 81       	ldd	r25, Y+4	; 0x04
    2294:	80 97       	sbiw	r24, 0x20	; 32
    2296:	8c f2       	brlt	.-94     	; 0x223a <__vector_12+0x4e>
    2298:	89 81       	ldd	r24, Y+1	; 0x01
    229a:	9a 81       	ldd	r25, Y+2	; 0x02
    229c:	01 96       	adiw	r24, 0x01	; 1
    229e:	9a 83       	std	Y+2, r25	; 0x02
    22a0:	89 83       	std	Y+1, r24	; 0x01
    22a2:	89 81       	ldd	r24, Y+1	; 0x01
    22a4:	9a 81       	ldd	r25, Y+2	; 0x02
    22a6:	0c 97       	sbiw	r24, 0x0c	; 12
    22a8:	2c f2       	brlt	.-118    	; 0x2234 <__vector_12+0x48>
    22aa:	80 91 73 08 	lds	r24, 0x0873	; 0x800873 <cur_line>
    22ae:	8f 5f       	subi	r24, 0xFF	; 255
    22b0:	80 93 73 08 	sts	0x0873, r24	; 0x800873 <cur_line>
    22b4:	0e 94 d1 1c 	call	0x39a2	; 0x39a2 <Collision>
    22b8:	81 30       	cpi	r24, 0x01	; 1
    22ba:	09 f0       	breq	.+2      	; 0x22be <__vector_12+0xd2>
    22bc:	72 c1       	rjmp	.+740    	; 0x25a2 <__vector_12+0x3b6>
    22be:	80 91 73 08 	lds	r24, 0x0873	; 0x800873 <cur_line>
    22c2:	81 50       	subi	r24, 0x01	; 1
    22c4:	80 93 73 08 	sts	0x0873, r24	; 0x800873 <cur_line>
    22c8:	1e 82       	std	Y+6, r1	; 0x06
    22ca:	1d 82       	std	Y+5, r1	; 0x05
    22cc:	62 c1       	rjmp	.+708    	; 0x2592 <__vector_12+0x3a6>
    22ce:	80 91 74 08 	lds	r24, 0x0874	; 0x800874 <cur_col>
    22d2:	28 2f       	mov	r18, r24
    22d4:	30 e0       	ldi	r19, 0x00	; 0
    22d6:	8d 81       	ldd	r24, Y+5	; 0x05
    22d8:	9e 81       	ldd	r25, Y+6	; 0x06
    22da:	a9 01       	movw	r20, r18
    22dc:	48 1b       	sub	r20, r24
    22de:	59 0b       	sbc	r21, r25
    22e0:	ca 01       	movw	r24, r20
    22e2:	18 16       	cp	r1, r24
    22e4:	19 06       	cpc	r1, r25
    22e6:	0c f0       	brlt	.+2      	; 0x22ea <__vector_12+0xfe>
    22e8:	47 c0       	rjmp	.+142    	; 0x2378 <__vector_12+0x18c>
    22ea:	80 91 74 08 	lds	r24, 0x0874	; 0x800874 <cur_col>
    22ee:	28 2f       	mov	r18, r24
    22f0:	30 e0       	ldi	r19, 0x00	; 0
    22f2:	8d 81       	ldd	r24, Y+5	; 0x05
    22f4:	9e 81       	ldd	r25, Y+6	; 0x06
    22f6:	28 1b       	sub	r18, r24
    22f8:	39 0b       	sbc	r19, r25
    22fa:	80 91 73 08 	lds	r24, 0x0873	; 0x800873 <cur_line>
    22fe:	88 2f       	mov	r24, r24
    2300:	90 e0       	ldi	r25, 0x00	; 0
    2302:	40 91 74 08 	lds	r20, 0x0874	; 0x800874 <cur_col>
    2306:	64 2f       	mov	r22, r20
    2308:	70 e0       	ldi	r23, 0x00	; 0
    230a:	4d 81       	ldd	r20, Y+5	; 0x05
    230c:	5e 81       	ldd	r21, Y+6	; 0x06
    230e:	64 1b       	sub	r22, r20
    2310:	75 0b       	sbc	r23, r21
    2312:	40 91 73 08 	lds	r20, 0x0873	; 0x800873 <cur_line>
    2316:	44 2f       	mov	r20, r20
    2318:	50 e0       	ldi	r21, 0x00	; 0
    231a:	66 0f       	add	r22, r22
    231c:	77 1f       	adc	r23, r23
    231e:	62 95       	swap	r22
    2320:	72 95       	swap	r23
    2322:	70 7f       	andi	r23, 0xF0	; 240
    2324:	76 27       	eor	r23, r22
    2326:	60 7f       	andi	r22, 0xF0	; 240
    2328:	76 27       	eor	r23, r22
    232a:	46 0f       	add	r20, r22
    232c:	57 1f       	adc	r21, r23
    232e:	40 5d       	subi	r20, 0xD0	; 208
    2330:	5e 4f       	sbci	r21, 0xFE	; 254
    2332:	da 01       	movw	r26, r20
    2334:	ec 91       	ld	r30, X
    2336:	40 91 74 08 	lds	r20, 0x0874	; 0x800874 <cur_col>
    233a:	64 2f       	mov	r22, r20
    233c:	70 e0       	ldi	r23, 0x00	; 0
    233e:	4d 81       	ldd	r20, Y+5	; 0x05
    2340:	5e 81       	ldd	r21, Y+6	; 0x06
    2342:	db 01       	movw	r26, r22
    2344:	a4 1b       	sub	r26, r20
    2346:	b5 0b       	sbc	r27, r21
    2348:	ad 01       	movw	r20, r26
    234a:	44 0f       	add	r20, r20
    234c:	55 1f       	adc	r21, r21
    234e:	44 0f       	add	r20, r20
    2350:	55 1f       	adc	r21, r21
    2352:	40 50       	subi	r20, 0x00	; 0
    2354:	5f 4f       	sbci	r21, 0xFF	; 255
    2356:	da 01       	movw	r26, r20
    2358:	4c 91       	ld	r20, X
    235a:	4e 2b       	or	r20, r30
    235c:	22 0f       	add	r18, r18
    235e:	33 1f       	adc	r19, r19
    2360:	22 95       	swap	r18
    2362:	32 95       	swap	r19
    2364:	30 7f       	andi	r19, 0xF0	; 240
    2366:	32 27       	eor	r19, r18
    2368:	20 7f       	andi	r18, 0xF0	; 240
    236a:	32 27       	eor	r19, r18
    236c:	82 0f       	add	r24, r18
    236e:	93 1f       	adc	r25, r19
    2370:	80 5d       	subi	r24, 0xD0	; 208
    2372:	9e 4f       	sbci	r25, 0xFE	; 254
    2374:	fc 01       	movw	r30, r24
    2376:	40 83       	st	Z, r20
    2378:	80 91 74 08 	lds	r24, 0x0874	; 0x800874 <cur_col>
    237c:	28 2f       	mov	r18, r24
    237e:	30 e0       	ldi	r19, 0x00	; 0
    2380:	8d 81       	ldd	r24, Y+5	; 0x05
    2382:	9e 81       	ldd	r25, Y+6	; 0x06
    2384:	a9 01       	movw	r20, r18
    2386:	48 1b       	sub	r20, r24
    2388:	59 0b       	sbc	r21, r25
    238a:	ca 01       	movw	r24, r20
    238c:	18 16       	cp	r1, r24
    238e:	19 06       	cpc	r1, r25
    2390:	0c f0       	brlt	.+2      	; 0x2394 <__vector_12+0x1a8>
    2392:	4a c0       	rjmp	.+148    	; 0x2428 <__vector_12+0x23c>
    2394:	80 91 74 08 	lds	r24, 0x0874	; 0x800874 <cur_col>
    2398:	28 2f       	mov	r18, r24
    239a:	30 e0       	ldi	r19, 0x00	; 0
    239c:	8d 81       	ldd	r24, Y+5	; 0x05
    239e:	9e 81       	ldd	r25, Y+6	; 0x06
    23a0:	28 1b       	sub	r18, r24
    23a2:	39 0b       	sbc	r19, r25
    23a4:	80 91 73 08 	lds	r24, 0x0873	; 0x800873 <cur_line>
    23a8:	88 2f       	mov	r24, r24
    23aa:	90 e0       	ldi	r25, 0x00	; 0
    23ac:	01 96       	adiw	r24, 0x01	; 1
    23ae:	40 91 74 08 	lds	r20, 0x0874	; 0x800874 <cur_col>
    23b2:	64 2f       	mov	r22, r20
    23b4:	70 e0       	ldi	r23, 0x00	; 0
    23b6:	4d 81       	ldd	r20, Y+5	; 0x05
    23b8:	5e 81       	ldd	r21, Y+6	; 0x06
    23ba:	64 1b       	sub	r22, r20
    23bc:	75 0b       	sbc	r23, r21
    23be:	40 91 73 08 	lds	r20, 0x0873	; 0x800873 <cur_line>
    23c2:	44 2f       	mov	r20, r20
    23c4:	50 e0       	ldi	r21, 0x00	; 0
    23c6:	4f 5f       	subi	r20, 0xFF	; 255
    23c8:	5f 4f       	sbci	r21, 0xFF	; 255
    23ca:	66 0f       	add	r22, r22
    23cc:	77 1f       	adc	r23, r23
    23ce:	62 95       	swap	r22
    23d0:	72 95       	swap	r23
    23d2:	70 7f       	andi	r23, 0xF0	; 240
    23d4:	76 27       	eor	r23, r22
    23d6:	60 7f       	andi	r22, 0xF0	; 240
    23d8:	76 27       	eor	r23, r22
    23da:	46 0f       	add	r20, r22
    23dc:	57 1f       	adc	r21, r23
    23de:	40 5d       	subi	r20, 0xD0	; 208
    23e0:	5e 4f       	sbci	r21, 0xFE	; 254
    23e2:	da 01       	movw	r26, r20
    23e4:	ec 91       	ld	r30, X
    23e6:	40 91 74 08 	lds	r20, 0x0874	; 0x800874 <cur_col>
    23ea:	64 2f       	mov	r22, r20
    23ec:	70 e0       	ldi	r23, 0x00	; 0
    23ee:	4d 81       	ldd	r20, Y+5	; 0x05
    23f0:	5e 81       	ldd	r21, Y+6	; 0x06
    23f2:	db 01       	movw	r26, r22
    23f4:	a4 1b       	sub	r26, r20
    23f6:	b5 0b       	sbc	r27, r21
    23f8:	ad 01       	movw	r20, r26
    23fa:	44 0f       	add	r20, r20
    23fc:	55 1f       	adc	r21, r21
    23fe:	44 0f       	add	r20, r20
    2400:	55 1f       	adc	r21, r21
    2402:	4f 5f       	subi	r20, 0xFF	; 255
    2404:	5e 4f       	sbci	r21, 0xFE	; 254
    2406:	da 01       	movw	r26, r20
    2408:	4c 91       	ld	r20, X
    240a:	4e 2b       	or	r20, r30
    240c:	22 0f       	add	r18, r18
    240e:	33 1f       	adc	r19, r19
    2410:	22 95       	swap	r18
    2412:	32 95       	swap	r19
    2414:	30 7f       	andi	r19, 0xF0	; 240
    2416:	32 27       	eor	r19, r18
    2418:	20 7f       	andi	r18, 0xF0	; 240
    241a:	32 27       	eor	r19, r18
    241c:	82 0f       	add	r24, r18
    241e:	93 1f       	adc	r25, r19
    2420:	80 5d       	subi	r24, 0xD0	; 208
    2422:	9e 4f       	sbci	r25, 0xFE	; 254
    2424:	fc 01       	movw	r30, r24
    2426:	40 83       	st	Z, r20
    2428:	80 91 74 08 	lds	r24, 0x0874	; 0x800874 <cur_col>
    242c:	28 2f       	mov	r18, r24
    242e:	30 e0       	ldi	r19, 0x00	; 0
    2430:	8d 81       	ldd	r24, Y+5	; 0x05
    2432:	9e 81       	ldd	r25, Y+6	; 0x06
    2434:	a9 01       	movw	r20, r18
    2436:	48 1b       	sub	r20, r24
    2438:	59 0b       	sbc	r21, r25
    243a:	ca 01       	movw	r24, r20
    243c:	18 16       	cp	r1, r24
    243e:	19 06       	cpc	r1, r25
    2440:	0c f0       	brlt	.+2      	; 0x2444 <__vector_12+0x258>
    2442:	4a c0       	rjmp	.+148    	; 0x24d8 <__vector_12+0x2ec>
    2444:	80 91 74 08 	lds	r24, 0x0874	; 0x800874 <cur_col>
    2448:	28 2f       	mov	r18, r24
    244a:	30 e0       	ldi	r19, 0x00	; 0
    244c:	8d 81       	ldd	r24, Y+5	; 0x05
    244e:	9e 81       	ldd	r25, Y+6	; 0x06
    2450:	28 1b       	sub	r18, r24
    2452:	39 0b       	sbc	r19, r25
    2454:	80 91 73 08 	lds	r24, 0x0873	; 0x800873 <cur_line>
    2458:	88 2f       	mov	r24, r24
    245a:	90 e0       	ldi	r25, 0x00	; 0
    245c:	02 96       	adiw	r24, 0x02	; 2
    245e:	40 91 74 08 	lds	r20, 0x0874	; 0x800874 <cur_col>
    2462:	64 2f       	mov	r22, r20
    2464:	70 e0       	ldi	r23, 0x00	; 0
    2466:	4d 81       	ldd	r20, Y+5	; 0x05
    2468:	5e 81       	ldd	r21, Y+6	; 0x06
    246a:	64 1b       	sub	r22, r20
    246c:	75 0b       	sbc	r23, r21
    246e:	40 91 73 08 	lds	r20, 0x0873	; 0x800873 <cur_line>
    2472:	44 2f       	mov	r20, r20
    2474:	50 e0       	ldi	r21, 0x00	; 0
    2476:	4e 5f       	subi	r20, 0xFE	; 254
    2478:	5f 4f       	sbci	r21, 0xFF	; 255
    247a:	66 0f       	add	r22, r22
    247c:	77 1f       	adc	r23, r23
    247e:	62 95       	swap	r22
    2480:	72 95       	swap	r23
    2482:	70 7f       	andi	r23, 0xF0	; 240
    2484:	76 27       	eor	r23, r22
    2486:	60 7f       	andi	r22, 0xF0	; 240
    2488:	76 27       	eor	r23, r22
    248a:	46 0f       	add	r20, r22
    248c:	57 1f       	adc	r21, r23
    248e:	40 5d       	subi	r20, 0xD0	; 208
    2490:	5e 4f       	sbci	r21, 0xFE	; 254
    2492:	da 01       	movw	r26, r20
    2494:	ec 91       	ld	r30, X
    2496:	40 91 74 08 	lds	r20, 0x0874	; 0x800874 <cur_col>
    249a:	64 2f       	mov	r22, r20
    249c:	70 e0       	ldi	r23, 0x00	; 0
    249e:	4d 81       	ldd	r20, Y+5	; 0x05
    24a0:	5e 81       	ldd	r21, Y+6	; 0x06
    24a2:	db 01       	movw	r26, r22
    24a4:	a4 1b       	sub	r26, r20
    24a6:	b5 0b       	sbc	r27, r21
    24a8:	ad 01       	movw	r20, r26
    24aa:	44 0f       	add	r20, r20
    24ac:	55 1f       	adc	r21, r21
    24ae:	44 0f       	add	r20, r20
    24b0:	55 1f       	adc	r21, r21
    24b2:	4e 5f       	subi	r20, 0xFE	; 254
    24b4:	5e 4f       	sbci	r21, 0xFE	; 254
    24b6:	da 01       	movw	r26, r20
    24b8:	4c 91       	ld	r20, X
    24ba:	4e 2b       	or	r20, r30
    24bc:	22 0f       	add	r18, r18
    24be:	33 1f       	adc	r19, r19
    24c0:	22 95       	swap	r18
    24c2:	32 95       	swap	r19
    24c4:	30 7f       	andi	r19, 0xF0	; 240
    24c6:	32 27       	eor	r19, r18
    24c8:	20 7f       	andi	r18, 0xF0	; 240
    24ca:	32 27       	eor	r19, r18
    24cc:	82 0f       	add	r24, r18
    24ce:	93 1f       	adc	r25, r19
    24d0:	80 5d       	subi	r24, 0xD0	; 208
    24d2:	9e 4f       	sbci	r25, 0xFE	; 254
    24d4:	fc 01       	movw	r30, r24
    24d6:	40 83       	st	Z, r20
    24d8:	80 91 74 08 	lds	r24, 0x0874	; 0x800874 <cur_col>
    24dc:	28 2f       	mov	r18, r24
    24de:	30 e0       	ldi	r19, 0x00	; 0
    24e0:	8d 81       	ldd	r24, Y+5	; 0x05
    24e2:	9e 81       	ldd	r25, Y+6	; 0x06
    24e4:	a9 01       	movw	r20, r18
    24e6:	48 1b       	sub	r20, r24
    24e8:	59 0b       	sbc	r21, r25
    24ea:	ca 01       	movw	r24, r20
    24ec:	18 16       	cp	r1, r24
    24ee:	19 06       	cpc	r1, r25
    24f0:	0c f0       	brlt	.+2      	; 0x24f4 <__vector_12+0x308>
    24f2:	4a c0       	rjmp	.+148    	; 0x2588 <__vector_12+0x39c>
    24f4:	80 91 74 08 	lds	r24, 0x0874	; 0x800874 <cur_col>
    24f8:	28 2f       	mov	r18, r24
    24fa:	30 e0       	ldi	r19, 0x00	; 0
    24fc:	8d 81       	ldd	r24, Y+5	; 0x05
    24fe:	9e 81       	ldd	r25, Y+6	; 0x06
    2500:	28 1b       	sub	r18, r24
    2502:	39 0b       	sbc	r19, r25
    2504:	80 91 73 08 	lds	r24, 0x0873	; 0x800873 <cur_line>
    2508:	88 2f       	mov	r24, r24
    250a:	90 e0       	ldi	r25, 0x00	; 0
    250c:	03 96       	adiw	r24, 0x03	; 3
    250e:	40 91 74 08 	lds	r20, 0x0874	; 0x800874 <cur_col>
    2512:	64 2f       	mov	r22, r20
    2514:	70 e0       	ldi	r23, 0x00	; 0
    2516:	4d 81       	ldd	r20, Y+5	; 0x05
    2518:	5e 81       	ldd	r21, Y+6	; 0x06
    251a:	64 1b       	sub	r22, r20
    251c:	75 0b       	sbc	r23, r21
    251e:	40 91 73 08 	lds	r20, 0x0873	; 0x800873 <cur_line>
    2522:	44 2f       	mov	r20, r20
    2524:	50 e0       	ldi	r21, 0x00	; 0
    2526:	4d 5f       	subi	r20, 0xFD	; 253
    2528:	5f 4f       	sbci	r21, 0xFF	; 255
    252a:	66 0f       	add	r22, r22
    252c:	77 1f       	adc	r23, r23
    252e:	62 95       	swap	r22
    2530:	72 95       	swap	r23
    2532:	70 7f       	andi	r23, 0xF0	; 240
    2534:	76 27       	eor	r23, r22
    2536:	60 7f       	andi	r22, 0xF0	; 240
    2538:	76 27       	eor	r23, r22
    253a:	46 0f       	add	r20, r22
    253c:	57 1f       	adc	r21, r23
    253e:	40 5d       	subi	r20, 0xD0	; 208
    2540:	5e 4f       	sbci	r21, 0xFE	; 254
    2542:	da 01       	movw	r26, r20
    2544:	ec 91       	ld	r30, X
    2546:	40 91 74 08 	lds	r20, 0x0874	; 0x800874 <cur_col>
    254a:	64 2f       	mov	r22, r20
    254c:	70 e0       	ldi	r23, 0x00	; 0
    254e:	4d 81       	ldd	r20, Y+5	; 0x05
    2550:	5e 81       	ldd	r21, Y+6	; 0x06
    2552:	db 01       	movw	r26, r22
    2554:	a4 1b       	sub	r26, r20
    2556:	b5 0b       	sbc	r27, r21
    2558:	ad 01       	movw	r20, r26
    255a:	44 0f       	add	r20, r20
    255c:	55 1f       	adc	r21, r21
    255e:	44 0f       	add	r20, r20
    2560:	55 1f       	adc	r21, r21
    2562:	4d 5f       	subi	r20, 0xFD	; 253
    2564:	5e 4f       	sbci	r21, 0xFE	; 254
    2566:	da 01       	movw	r26, r20
    2568:	4c 91       	ld	r20, X
    256a:	4e 2b       	or	r20, r30
    256c:	22 0f       	add	r18, r18
    256e:	33 1f       	adc	r19, r19
    2570:	22 95       	swap	r18
    2572:	32 95       	swap	r19
    2574:	30 7f       	andi	r19, 0xF0	; 240
    2576:	32 27       	eor	r19, r18
    2578:	20 7f       	andi	r18, 0xF0	; 240
    257a:	32 27       	eor	r19, r18
    257c:	82 0f       	add	r24, r18
    257e:	93 1f       	adc	r25, r19
    2580:	80 5d       	subi	r24, 0xD0	; 208
    2582:	9e 4f       	sbci	r25, 0xFE	; 254
    2584:	fc 01       	movw	r30, r24
    2586:	40 83       	st	Z, r20
    2588:	8d 81       	ldd	r24, Y+5	; 0x05
    258a:	9e 81       	ldd	r25, Y+6	; 0x06
    258c:	01 96       	adiw	r24, 0x01	; 1
    258e:	9e 83       	std	Y+6, r25	; 0x06
    2590:	8d 83       	std	Y+5, r24	; 0x05
    2592:	8d 81       	ldd	r24, Y+5	; 0x05
    2594:	9e 81       	ldd	r25, Y+6	; 0x06
    2596:	04 97       	sbiw	r24, 0x04	; 4
    2598:	0c f4       	brge	.+2      	; 0x259c <__vector_12+0x3b0>
    259a:	99 ce       	rjmp	.-718    	; 0x22ce <__vector_12+0xe2>
    259c:	81 e0       	ldi	r24, 0x01	; 1
    259e:	80 93 30 04 	sts	0x0430, r24	; 0x800430 <new_block>
    25a2:	18 86       	std	Y+8, r1	; 0x08
    25a4:	1f 82       	std	Y+7, r1	; 0x07
    25a6:	37 c0       	rjmp	.+110    	; 0x2616 <__vector_12+0x42a>
    25a8:	1a 86       	std	Y+10, r1	; 0x0a
    25aa:	19 86       	std	Y+9, r1	; 0x09
    25ac:	2b c0       	rjmp	.+86     	; 0x2604 <__vector_12+0x418>
    25ae:	8f 81       	ldd	r24, Y+7	; 0x07
    25b0:	98 85       	ldd	r25, Y+8	; 0x08
    25b2:	9c 01       	movw	r18, r24
    25b4:	22 0f       	add	r18, r18
    25b6:	33 1f       	adc	r19, r19
    25b8:	22 95       	swap	r18
    25ba:	32 95       	swap	r19
    25bc:	30 7f       	andi	r19, 0xF0	; 240
    25be:	32 27       	eor	r19, r18
    25c0:	20 7f       	andi	r18, 0xF0	; 240
    25c2:	32 27       	eor	r19, r18
    25c4:	89 85       	ldd	r24, Y+9	; 0x09
    25c6:	9a 85       	ldd	r25, Y+10	; 0x0a
    25c8:	82 0f       	add	r24, r18
    25ca:	93 1f       	adc	r25, r19
    25cc:	80 5d       	subi	r24, 0xD0	; 208
    25ce:	9e 4f       	sbci	r25, 0xFE	; 254
    25d0:	dc 01       	movw	r26, r24
    25d2:	4c 91       	ld	r20, X
    25d4:	8f 81       	ldd	r24, Y+7	; 0x07
    25d6:	98 85       	ldd	r25, Y+8	; 0x08
    25d8:	9c 01       	movw	r18, r24
    25da:	22 0f       	add	r18, r18
    25dc:	33 1f       	adc	r19, r19
    25de:	22 95       	swap	r18
    25e0:	32 95       	swap	r19
    25e2:	30 7f       	andi	r19, 0xF0	; 240
    25e4:	32 27       	eor	r19, r18
    25e6:	20 7f       	andi	r18, 0xF0	; 240
    25e8:	32 27       	eor	r19, r18
    25ea:	89 85       	ldd	r24, Y+9	; 0x09
    25ec:	9a 85       	ldd	r25, Y+10	; 0x0a
    25ee:	82 0f       	add	r24, r18
    25f0:	93 1f       	adc	r25, r19
    25f2:	80 55       	subi	r24, 0x50	; 80
    25f4:	9d 4f       	sbci	r25, 0xFD	; 253
    25f6:	fc 01       	movw	r30, r24
    25f8:	40 83       	st	Z, r20
    25fa:	89 85       	ldd	r24, Y+9	; 0x09
    25fc:	9a 85       	ldd	r25, Y+10	; 0x0a
    25fe:	01 96       	adiw	r24, 0x01	; 1
    2600:	9a 87       	std	Y+10, r25	; 0x0a
    2602:	89 87       	std	Y+9, r24	; 0x09
    2604:	89 85       	ldd	r24, Y+9	; 0x09
    2606:	9a 85       	ldd	r25, Y+10	; 0x0a
    2608:	80 97       	sbiw	r24, 0x20	; 32
    260a:	8c f2       	brlt	.-94     	; 0x25ae <__vector_12+0x3c2>
    260c:	8f 81       	ldd	r24, Y+7	; 0x07
    260e:	98 85       	ldd	r25, Y+8	; 0x08
    2610:	01 96       	adiw	r24, 0x01	; 1
    2612:	98 87       	std	Y+8, r25	; 0x08
    2614:	8f 83       	std	Y+7, r24	; 0x07
    2616:	8f 81       	ldd	r24, Y+7	; 0x07
    2618:	98 85       	ldd	r25, Y+8	; 0x08
    261a:	0c 97       	sbiw	r24, 0x0c	; 12
    261c:	2c f2       	brlt	.-118    	; 0x25a8 <__vector_12+0x3bc>
    261e:	1c 86       	std	Y+12, r1	; 0x0c
    2620:	1b 86       	std	Y+11, r1	; 0x0b
    2622:	62 c1       	rjmp	.+708    	; 0x28e8 <__vector_12+0x6fc>
    2624:	80 91 74 08 	lds	r24, 0x0874	; 0x800874 <cur_col>
    2628:	28 2f       	mov	r18, r24
    262a:	30 e0       	ldi	r19, 0x00	; 0
    262c:	8b 85       	ldd	r24, Y+11	; 0x0b
    262e:	9c 85       	ldd	r25, Y+12	; 0x0c
    2630:	a9 01       	movw	r20, r18
    2632:	48 1b       	sub	r20, r24
    2634:	59 0b       	sbc	r21, r25
    2636:	ca 01       	movw	r24, r20
    2638:	18 16       	cp	r1, r24
    263a:	19 06       	cpc	r1, r25
    263c:	0c f0       	brlt	.+2      	; 0x2640 <__vector_12+0x454>
    263e:	47 c0       	rjmp	.+142    	; 0x26ce <__vector_12+0x4e2>
    2640:	80 91 74 08 	lds	r24, 0x0874	; 0x800874 <cur_col>
    2644:	28 2f       	mov	r18, r24
    2646:	30 e0       	ldi	r19, 0x00	; 0
    2648:	8b 85       	ldd	r24, Y+11	; 0x0b
    264a:	9c 85       	ldd	r25, Y+12	; 0x0c
    264c:	28 1b       	sub	r18, r24
    264e:	39 0b       	sbc	r19, r25
    2650:	80 91 73 08 	lds	r24, 0x0873	; 0x800873 <cur_line>
    2654:	88 2f       	mov	r24, r24
    2656:	90 e0       	ldi	r25, 0x00	; 0
    2658:	40 91 74 08 	lds	r20, 0x0874	; 0x800874 <cur_col>
    265c:	64 2f       	mov	r22, r20
    265e:	70 e0       	ldi	r23, 0x00	; 0
    2660:	4b 85       	ldd	r20, Y+11	; 0x0b
    2662:	5c 85       	ldd	r21, Y+12	; 0x0c
    2664:	64 1b       	sub	r22, r20
    2666:	75 0b       	sbc	r23, r21
    2668:	40 91 73 08 	lds	r20, 0x0873	; 0x800873 <cur_line>
    266c:	44 2f       	mov	r20, r20
    266e:	50 e0       	ldi	r21, 0x00	; 0
    2670:	66 0f       	add	r22, r22
    2672:	77 1f       	adc	r23, r23
    2674:	62 95       	swap	r22
    2676:	72 95       	swap	r23
    2678:	70 7f       	andi	r23, 0xF0	; 240
    267a:	76 27       	eor	r23, r22
    267c:	60 7f       	andi	r22, 0xF0	; 240
    267e:	76 27       	eor	r23, r22
    2680:	46 0f       	add	r20, r22
    2682:	57 1f       	adc	r21, r23
    2684:	40 55       	subi	r20, 0x50	; 80
    2686:	5d 4f       	sbci	r21, 0xFD	; 253
    2688:	da 01       	movw	r26, r20
    268a:	ec 91       	ld	r30, X
    268c:	40 91 74 08 	lds	r20, 0x0874	; 0x800874 <cur_col>
    2690:	64 2f       	mov	r22, r20
    2692:	70 e0       	ldi	r23, 0x00	; 0
    2694:	4b 85       	ldd	r20, Y+11	; 0x0b
    2696:	5c 85       	ldd	r21, Y+12	; 0x0c
    2698:	db 01       	movw	r26, r22
    269a:	a4 1b       	sub	r26, r20
    269c:	b5 0b       	sbc	r27, r21
    269e:	ad 01       	movw	r20, r26
    26a0:	44 0f       	add	r20, r20
    26a2:	55 1f       	adc	r21, r21
    26a4:	44 0f       	add	r20, r20
    26a6:	55 1f       	adc	r21, r21
    26a8:	40 50       	subi	r20, 0x00	; 0
    26aa:	5f 4f       	sbci	r21, 0xFF	; 255
    26ac:	da 01       	movw	r26, r20
    26ae:	4c 91       	ld	r20, X
    26b0:	4e 2b       	or	r20, r30
    26b2:	22 0f       	add	r18, r18
    26b4:	33 1f       	adc	r19, r19
    26b6:	22 95       	swap	r18
    26b8:	32 95       	swap	r19
    26ba:	30 7f       	andi	r19, 0xF0	; 240
    26bc:	32 27       	eor	r19, r18
    26be:	20 7f       	andi	r18, 0xF0	; 240
    26c0:	32 27       	eor	r19, r18
    26c2:	82 0f       	add	r24, r18
    26c4:	93 1f       	adc	r25, r19
    26c6:	80 55       	subi	r24, 0x50	; 80
    26c8:	9d 4f       	sbci	r25, 0xFD	; 253
    26ca:	fc 01       	movw	r30, r24
    26cc:	40 83       	st	Z, r20
    26ce:	80 91 74 08 	lds	r24, 0x0874	; 0x800874 <cur_col>
    26d2:	28 2f       	mov	r18, r24
    26d4:	30 e0       	ldi	r19, 0x00	; 0
    26d6:	8b 85       	ldd	r24, Y+11	; 0x0b
    26d8:	9c 85       	ldd	r25, Y+12	; 0x0c
    26da:	a9 01       	movw	r20, r18
    26dc:	48 1b       	sub	r20, r24
    26de:	59 0b       	sbc	r21, r25
    26e0:	ca 01       	movw	r24, r20
    26e2:	18 16       	cp	r1, r24
    26e4:	19 06       	cpc	r1, r25
    26e6:	0c f0       	brlt	.+2      	; 0x26ea <__vector_12+0x4fe>
    26e8:	4a c0       	rjmp	.+148    	; 0x277e <__vector_12+0x592>
    26ea:	80 91 74 08 	lds	r24, 0x0874	; 0x800874 <cur_col>
    26ee:	28 2f       	mov	r18, r24
    26f0:	30 e0       	ldi	r19, 0x00	; 0
    26f2:	8b 85       	ldd	r24, Y+11	; 0x0b
    26f4:	9c 85       	ldd	r25, Y+12	; 0x0c
    26f6:	28 1b       	sub	r18, r24
    26f8:	39 0b       	sbc	r19, r25
    26fa:	80 91 73 08 	lds	r24, 0x0873	; 0x800873 <cur_line>
    26fe:	88 2f       	mov	r24, r24
    2700:	90 e0       	ldi	r25, 0x00	; 0
    2702:	01 96       	adiw	r24, 0x01	; 1
    2704:	40 91 74 08 	lds	r20, 0x0874	; 0x800874 <cur_col>
    2708:	64 2f       	mov	r22, r20
    270a:	70 e0       	ldi	r23, 0x00	; 0
    270c:	4b 85       	ldd	r20, Y+11	; 0x0b
    270e:	5c 85       	ldd	r21, Y+12	; 0x0c
    2710:	64 1b       	sub	r22, r20
    2712:	75 0b       	sbc	r23, r21
    2714:	40 91 73 08 	lds	r20, 0x0873	; 0x800873 <cur_line>
    2718:	44 2f       	mov	r20, r20
    271a:	50 e0       	ldi	r21, 0x00	; 0
    271c:	4f 5f       	subi	r20, 0xFF	; 255
    271e:	5f 4f       	sbci	r21, 0xFF	; 255
    2720:	66 0f       	add	r22, r22
    2722:	77 1f       	adc	r23, r23
    2724:	62 95       	swap	r22
    2726:	72 95       	swap	r23
    2728:	70 7f       	andi	r23, 0xF0	; 240
    272a:	76 27       	eor	r23, r22
    272c:	60 7f       	andi	r22, 0xF0	; 240
    272e:	76 27       	eor	r23, r22
    2730:	46 0f       	add	r20, r22
    2732:	57 1f       	adc	r21, r23
    2734:	40 55       	subi	r20, 0x50	; 80
    2736:	5d 4f       	sbci	r21, 0xFD	; 253
    2738:	da 01       	movw	r26, r20
    273a:	ec 91       	ld	r30, X
    273c:	40 91 74 08 	lds	r20, 0x0874	; 0x800874 <cur_col>
    2740:	64 2f       	mov	r22, r20
    2742:	70 e0       	ldi	r23, 0x00	; 0
    2744:	4b 85       	ldd	r20, Y+11	; 0x0b
    2746:	5c 85       	ldd	r21, Y+12	; 0x0c
    2748:	db 01       	movw	r26, r22
    274a:	a4 1b       	sub	r26, r20
    274c:	b5 0b       	sbc	r27, r21
    274e:	ad 01       	movw	r20, r26
    2750:	44 0f       	add	r20, r20
    2752:	55 1f       	adc	r21, r21
    2754:	44 0f       	add	r20, r20
    2756:	55 1f       	adc	r21, r21
    2758:	4f 5f       	subi	r20, 0xFF	; 255
    275a:	5e 4f       	sbci	r21, 0xFE	; 254
    275c:	da 01       	movw	r26, r20
    275e:	4c 91       	ld	r20, X
    2760:	4e 2b       	or	r20, r30
    2762:	22 0f       	add	r18, r18
    2764:	33 1f       	adc	r19, r19
    2766:	22 95       	swap	r18
    2768:	32 95       	swap	r19
    276a:	30 7f       	andi	r19, 0xF0	; 240
    276c:	32 27       	eor	r19, r18
    276e:	20 7f       	andi	r18, 0xF0	; 240
    2770:	32 27       	eor	r19, r18
    2772:	82 0f       	add	r24, r18
    2774:	93 1f       	adc	r25, r19
    2776:	80 55       	subi	r24, 0x50	; 80
    2778:	9d 4f       	sbci	r25, 0xFD	; 253
    277a:	fc 01       	movw	r30, r24
    277c:	40 83       	st	Z, r20
    277e:	80 91 74 08 	lds	r24, 0x0874	; 0x800874 <cur_col>
    2782:	28 2f       	mov	r18, r24
    2784:	30 e0       	ldi	r19, 0x00	; 0
    2786:	8b 85       	ldd	r24, Y+11	; 0x0b
    2788:	9c 85       	ldd	r25, Y+12	; 0x0c
    278a:	a9 01       	movw	r20, r18
    278c:	48 1b       	sub	r20, r24
    278e:	59 0b       	sbc	r21, r25
    2790:	ca 01       	movw	r24, r20
    2792:	18 16       	cp	r1, r24
    2794:	19 06       	cpc	r1, r25
    2796:	0c f0       	brlt	.+2      	; 0x279a <__vector_12+0x5ae>
    2798:	4a c0       	rjmp	.+148    	; 0x282e <__vector_12+0x642>
    279a:	80 91 74 08 	lds	r24, 0x0874	; 0x800874 <cur_col>
    279e:	28 2f       	mov	r18, r24
    27a0:	30 e0       	ldi	r19, 0x00	; 0
    27a2:	8b 85       	ldd	r24, Y+11	; 0x0b
    27a4:	9c 85       	ldd	r25, Y+12	; 0x0c
    27a6:	28 1b       	sub	r18, r24
    27a8:	39 0b       	sbc	r19, r25
    27aa:	80 91 73 08 	lds	r24, 0x0873	; 0x800873 <cur_line>
    27ae:	88 2f       	mov	r24, r24
    27b0:	90 e0       	ldi	r25, 0x00	; 0
    27b2:	02 96       	adiw	r24, 0x02	; 2
    27b4:	40 91 74 08 	lds	r20, 0x0874	; 0x800874 <cur_col>
    27b8:	64 2f       	mov	r22, r20
    27ba:	70 e0       	ldi	r23, 0x00	; 0
    27bc:	4b 85       	ldd	r20, Y+11	; 0x0b
    27be:	5c 85       	ldd	r21, Y+12	; 0x0c
    27c0:	64 1b       	sub	r22, r20
    27c2:	75 0b       	sbc	r23, r21
    27c4:	40 91 73 08 	lds	r20, 0x0873	; 0x800873 <cur_line>
    27c8:	44 2f       	mov	r20, r20
    27ca:	50 e0       	ldi	r21, 0x00	; 0
    27cc:	4e 5f       	subi	r20, 0xFE	; 254
    27ce:	5f 4f       	sbci	r21, 0xFF	; 255
    27d0:	66 0f       	add	r22, r22
    27d2:	77 1f       	adc	r23, r23
    27d4:	62 95       	swap	r22
    27d6:	72 95       	swap	r23
    27d8:	70 7f       	andi	r23, 0xF0	; 240
    27da:	76 27       	eor	r23, r22
    27dc:	60 7f       	andi	r22, 0xF0	; 240
    27de:	76 27       	eor	r23, r22
    27e0:	46 0f       	add	r20, r22
    27e2:	57 1f       	adc	r21, r23
    27e4:	40 55       	subi	r20, 0x50	; 80
    27e6:	5d 4f       	sbci	r21, 0xFD	; 253
    27e8:	da 01       	movw	r26, r20
    27ea:	ec 91       	ld	r30, X
    27ec:	40 91 74 08 	lds	r20, 0x0874	; 0x800874 <cur_col>
    27f0:	64 2f       	mov	r22, r20
    27f2:	70 e0       	ldi	r23, 0x00	; 0
    27f4:	4b 85       	ldd	r20, Y+11	; 0x0b
    27f6:	5c 85       	ldd	r21, Y+12	; 0x0c
    27f8:	db 01       	movw	r26, r22
    27fa:	a4 1b       	sub	r26, r20
    27fc:	b5 0b       	sbc	r27, r21
    27fe:	ad 01       	movw	r20, r26
    2800:	44 0f       	add	r20, r20
    2802:	55 1f       	adc	r21, r21
    2804:	44 0f       	add	r20, r20
    2806:	55 1f       	adc	r21, r21
    2808:	4e 5f       	subi	r20, 0xFE	; 254
    280a:	5e 4f       	sbci	r21, 0xFE	; 254
    280c:	da 01       	movw	r26, r20
    280e:	4c 91       	ld	r20, X
    2810:	4e 2b       	or	r20, r30
    2812:	22 0f       	add	r18, r18
    2814:	33 1f       	adc	r19, r19
    2816:	22 95       	swap	r18
    2818:	32 95       	swap	r19
    281a:	30 7f       	andi	r19, 0xF0	; 240
    281c:	32 27       	eor	r19, r18
    281e:	20 7f       	andi	r18, 0xF0	; 240
    2820:	32 27       	eor	r19, r18
    2822:	82 0f       	add	r24, r18
    2824:	93 1f       	adc	r25, r19
    2826:	80 55       	subi	r24, 0x50	; 80
    2828:	9d 4f       	sbci	r25, 0xFD	; 253
    282a:	fc 01       	movw	r30, r24
    282c:	40 83       	st	Z, r20
    282e:	80 91 74 08 	lds	r24, 0x0874	; 0x800874 <cur_col>
    2832:	28 2f       	mov	r18, r24
    2834:	30 e0       	ldi	r19, 0x00	; 0
    2836:	8b 85       	ldd	r24, Y+11	; 0x0b
    2838:	9c 85       	ldd	r25, Y+12	; 0x0c
    283a:	a9 01       	movw	r20, r18
    283c:	48 1b       	sub	r20, r24
    283e:	59 0b       	sbc	r21, r25
    2840:	ca 01       	movw	r24, r20
    2842:	18 16       	cp	r1, r24
    2844:	19 06       	cpc	r1, r25
    2846:	0c f0       	brlt	.+2      	; 0x284a <__vector_12+0x65e>
    2848:	4a c0       	rjmp	.+148    	; 0x28de <__vector_12+0x6f2>
    284a:	80 91 74 08 	lds	r24, 0x0874	; 0x800874 <cur_col>
    284e:	28 2f       	mov	r18, r24
    2850:	30 e0       	ldi	r19, 0x00	; 0
    2852:	8b 85       	ldd	r24, Y+11	; 0x0b
    2854:	9c 85       	ldd	r25, Y+12	; 0x0c
    2856:	28 1b       	sub	r18, r24
    2858:	39 0b       	sbc	r19, r25
    285a:	80 91 73 08 	lds	r24, 0x0873	; 0x800873 <cur_line>
    285e:	88 2f       	mov	r24, r24
    2860:	90 e0       	ldi	r25, 0x00	; 0
    2862:	03 96       	adiw	r24, 0x03	; 3
    2864:	40 91 74 08 	lds	r20, 0x0874	; 0x800874 <cur_col>
    2868:	64 2f       	mov	r22, r20
    286a:	70 e0       	ldi	r23, 0x00	; 0
    286c:	4b 85       	ldd	r20, Y+11	; 0x0b
    286e:	5c 85       	ldd	r21, Y+12	; 0x0c
    2870:	64 1b       	sub	r22, r20
    2872:	75 0b       	sbc	r23, r21
    2874:	40 91 73 08 	lds	r20, 0x0873	; 0x800873 <cur_line>
    2878:	44 2f       	mov	r20, r20
    287a:	50 e0       	ldi	r21, 0x00	; 0
    287c:	4d 5f       	subi	r20, 0xFD	; 253
    287e:	5f 4f       	sbci	r21, 0xFF	; 255
    2880:	66 0f       	add	r22, r22
    2882:	77 1f       	adc	r23, r23
    2884:	62 95       	swap	r22
    2886:	72 95       	swap	r23
    2888:	70 7f       	andi	r23, 0xF0	; 240
    288a:	76 27       	eor	r23, r22
    288c:	60 7f       	andi	r22, 0xF0	; 240
    288e:	76 27       	eor	r23, r22
    2890:	46 0f       	add	r20, r22
    2892:	57 1f       	adc	r21, r23
    2894:	40 55       	subi	r20, 0x50	; 80
    2896:	5d 4f       	sbci	r21, 0xFD	; 253
    2898:	da 01       	movw	r26, r20
    289a:	ec 91       	ld	r30, X
    289c:	40 91 74 08 	lds	r20, 0x0874	; 0x800874 <cur_col>
    28a0:	64 2f       	mov	r22, r20
    28a2:	70 e0       	ldi	r23, 0x00	; 0
    28a4:	4b 85       	ldd	r20, Y+11	; 0x0b
    28a6:	5c 85       	ldd	r21, Y+12	; 0x0c
    28a8:	db 01       	movw	r26, r22
    28aa:	a4 1b       	sub	r26, r20
    28ac:	b5 0b       	sbc	r27, r21
    28ae:	ad 01       	movw	r20, r26
    28b0:	44 0f       	add	r20, r20
    28b2:	55 1f       	adc	r21, r21
    28b4:	44 0f       	add	r20, r20
    28b6:	55 1f       	adc	r21, r21
    28b8:	4d 5f       	subi	r20, 0xFD	; 253
    28ba:	5e 4f       	sbci	r21, 0xFE	; 254
    28bc:	da 01       	movw	r26, r20
    28be:	4c 91       	ld	r20, X
    28c0:	4e 2b       	or	r20, r30
    28c2:	22 0f       	add	r18, r18
    28c4:	33 1f       	adc	r19, r19
    28c6:	22 95       	swap	r18
    28c8:	32 95       	swap	r19
    28ca:	30 7f       	andi	r19, 0xF0	; 240
    28cc:	32 27       	eor	r19, r18
    28ce:	20 7f       	andi	r18, 0xF0	; 240
    28d0:	32 27       	eor	r19, r18
    28d2:	82 0f       	add	r24, r18
    28d4:	93 1f       	adc	r25, r19
    28d6:	80 55       	subi	r24, 0x50	; 80
    28d8:	9d 4f       	sbci	r25, 0xFD	; 253
    28da:	fc 01       	movw	r30, r24
    28dc:	40 83       	st	Z, r20
    28de:	8b 85       	ldd	r24, Y+11	; 0x0b
    28e0:	9c 85       	ldd	r25, Y+12	; 0x0c
    28e2:	01 96       	adiw	r24, 0x01	; 1
    28e4:	9c 87       	std	Y+12, r25	; 0x0c
    28e6:	8b 87       	std	Y+11, r24	; 0x0b
    28e8:	8b 85       	ldd	r24, Y+11	; 0x0b
    28ea:	9c 85       	ldd	r25, Y+12	; 0x0c
    28ec:	04 97       	sbiw	r24, 0x04	; 4
    28ee:	0c f4       	brge	.+2      	; 0x28f2 <__vector_12+0x706>
    28f0:	99 ce       	rjmp	.-718    	; 0x2624 <__vector_12+0x438>
    28f2:	1e 86       	std	Y+14, r1	; 0x0e
    28f4:	1d 86       	std	Y+13, r1	; 0x0d
    28f6:	13 c0       	rjmp	.+38     	; 0x291e <__vector_12+0x732>
    28f8:	8d 85       	ldd	r24, Y+13	; 0x0d
    28fa:	9e 85       	ldd	r25, Y+14	; 0x0e
    28fc:	80 55       	subi	r24, 0x50	; 80
    28fe:	9d 4f       	sbci	r25, 0xFD	; 253
    2900:	21 e0       	ldi	r18, 0x01	; 1
    2902:	dc 01       	movw	r26, r24
    2904:	2c 93       	st	X, r18
    2906:	8d 85       	ldd	r24, Y+13	; 0x0d
    2908:	9e 85       	ldd	r25, Y+14	; 0x0e
    290a:	80 5f       	subi	r24, 0xF0	; 240
    290c:	9b 4f       	sbci	r25, 0xFB	; 251
    290e:	21 e0       	ldi	r18, 0x01	; 1
    2910:	fc 01       	movw	r30, r24
    2912:	20 83       	st	Z, r18
    2914:	8d 85       	ldd	r24, Y+13	; 0x0d
    2916:	9e 85       	ldd	r25, Y+14	; 0x0e
    2918:	01 96       	adiw	r24, 0x01	; 1
    291a:	9e 87       	std	Y+14, r25	; 0x0e
    291c:	8d 87       	std	Y+13, r24	; 0x0d
    291e:	8d 85       	ldd	r24, Y+13	; 0x0d
    2920:	9e 85       	ldd	r25, Y+14	; 0x0e
    2922:	4f 97       	sbiw	r24, 0x1f	; 31
    2924:	4c f3       	brlt	.-46     	; 0x28f8 <__vector_12+0x70c>
    2926:	18 8a       	std	Y+16, r1	; 0x10
    2928:	1f 86       	std	Y+15, r1	; 0x0f
    292a:	14 c0       	rjmp	.+40     	; 0x2954 <__vector_12+0x768>
    292c:	8f 85       	ldd	r24, Y+15	; 0x0f
    292e:	98 89       	ldd	r25, Y+16	; 0x10
    2930:	88 0f       	add	r24, r24
    2932:	99 1f       	adc	r25, r25
    2934:	82 95       	swap	r24
    2936:	92 95       	swap	r25
    2938:	90 7f       	andi	r25, 0xF0	; 240
    293a:	98 27       	eor	r25, r24
    293c:	80 7f       	andi	r24, 0xF0	; 240
    293e:	98 27       	eor	r25, r24
    2940:	81 53       	subi	r24, 0x31	; 49
    2942:	9d 4f       	sbci	r25, 0xFD	; 253
    2944:	21 e0       	ldi	r18, 0x01	; 1
    2946:	dc 01       	movw	r26, r24
    2948:	2c 93       	st	X, r18
    294a:	8f 85       	ldd	r24, Y+15	; 0x0f
    294c:	98 89       	ldd	r25, Y+16	; 0x10
    294e:	01 96       	adiw	r24, 0x01	; 1
    2950:	98 8b       	std	Y+16, r25	; 0x10
    2952:	8f 87       	std	Y+15, r24	; 0x0f
    2954:	8f 85       	ldd	r24, Y+15	; 0x0f
    2956:	98 89       	ldd	r25, Y+16	; 0x10
    2958:	0c 97       	sbiw	r24, 0x0c	; 12
    295a:	44 f3       	brlt	.-48     	; 0x292c <__vector_12+0x740>
    295c:	00 00       	nop
    295e:	60 96       	adiw	r28, 0x10	; 16
    2960:	0f b6       	in	r0, 0x3f	; 63
    2962:	f8 94       	cli
    2964:	de bf       	out	0x3e, r29	; 62
    2966:	0f be       	out	0x3f, r0	; 63
    2968:	cd bf       	out	0x3d, r28	; 61
    296a:	df 91       	pop	r29
    296c:	cf 91       	pop	r28
    296e:	ff 91       	pop	r31
    2970:	ef 91       	pop	r30
    2972:	bf 91       	pop	r27
    2974:	af 91       	pop	r26
    2976:	9f 91       	pop	r25
    2978:	8f 91       	pop	r24
    297a:	7f 91       	pop	r23
    297c:	6f 91       	pop	r22
    297e:	5f 91       	pop	r21
    2980:	4f 91       	pop	r20
    2982:	3f 91       	pop	r19
    2984:	2f 91       	pop	r18
    2986:	0f 90       	pop	r0
    2988:	00 92 5b 00 	sts	0x005B, r0	; 0x80005b <__TEXT_REGION_LENGTH__+0x7e005b>
    298c:	0f 90       	pop	r0
    298e:	00 92 5f 00 	sts	0x005F, r0	; 0x80005f <__TEXT_REGION_LENGTH__+0x7e005f>
    2992:	0f 90       	pop	r0
    2994:	1f 90       	pop	r1
    2996:	18 95       	reti

00002998 <clear_screen>:
    2998:	cf 93       	push	r28
    299a:	df 93       	push	r29
    299c:	00 d0       	rcall	.+0      	; 0x299e <clear_screen+0x6>
    299e:	1f 92       	push	r1
    29a0:	cd b7       	in	r28, 0x3d	; 61
    29a2:	de b7       	in	r29, 0x3e	; 62
    29a4:	1b 82       	std	Y+3, r1	; 0x03
    29a6:	1a 82       	std	Y+2, r1	; 0x02
    29a8:	0b c0       	rjmp	.+22     	; 0x29c0 <clear_screen+0x28>
    29aa:	8a 81       	ldd	r24, Y+2	; 0x02
    29ac:	9b 81       	ldd	r25, Y+3	; 0x03
    29ae:	8d 58       	subi	r24, 0x8D	; 141
    29b0:	9b 4f       	sbci	r25, 0xFB	; 251
    29b2:	fc 01       	movw	r30, r24
    29b4:	10 82       	st	Z, r1
    29b6:	8a 81       	ldd	r24, Y+2	; 0x02
    29b8:	9b 81       	ldd	r25, Y+3	; 0x03
    29ba:	01 96       	adiw	r24, 0x01	; 1
    29bc:	9b 83       	std	Y+3, r25	; 0x03
    29be:	8a 83       	std	Y+2, r24	; 0x02
    29c0:	8a 81       	ldd	r24, Y+2	; 0x02
    29c2:	9b 81       	ldd	r25, Y+3	; 0x03
    29c4:	81 15       	cp	r24, r1
    29c6:	94 40       	sbci	r25, 0x04	; 4
    29c8:	84 f3       	brlt	.-32     	; 0x29aa <clear_screen+0x12>
    29ca:	19 82       	std	Y+1, r1	; 0x01
    29cc:	14 c0       	rjmp	.+40     	; 0x29f6 <clear_screen+0x5e>
    29ce:	89 81       	ldd	r24, Y+1	; 0x01
    29d0:	0e 94 f4 02 	call	0x5e8	; 0x5e8 <ssd1306_set_page_start>
    29d4:	89 81       	ldd	r24, Y+1	; 0x01
    29d6:	88 2f       	mov	r24, r24
    29d8:	90 e0       	ldi	r25, 0x00	; 0
    29da:	96 95       	lsr	r25
    29dc:	98 2f       	mov	r25, r24
    29de:	88 27       	eor	r24, r24
    29e0:	97 95       	ror	r25
    29e2:	87 95       	ror	r24
    29e4:	8d 58       	subi	r24, 0x8D	; 141
    29e6:	9b 4f       	sbci	r25, 0xFB	; 251
    29e8:	60 e8       	ldi	r22, 0x80	; 128
    29ea:	70 e0       	ldi	r23, 0x00	; 0
    29ec:	0e 94 72 02 	call	0x4e4	; 0x4e4 <ssd1306_data>
    29f0:	89 81       	ldd	r24, Y+1	; 0x01
    29f2:	8f 5f       	subi	r24, 0xFF	; 255
    29f4:	89 83       	std	Y+1, r24	; 0x01
    29f6:	89 81       	ldd	r24, Y+1	; 0x01
    29f8:	88 30       	cpi	r24, 0x08	; 8
    29fa:	48 f3       	brcs	.-46     	; 0x29ce <clear_screen+0x36>
    29fc:	80 e0       	ldi	r24, 0x00	; 0
    29fe:	0e 94 07 03 	call	0x60e	; 0x60e <ssd1306_set_column_addr>
    2a02:	00 00       	nop
    2a04:	0f 90       	pop	r0
    2a06:	0f 90       	pop	r0
    2a08:	0f 90       	pop	r0
    2a0a:	df 91       	pop	r29
    2a0c:	cf 91       	pop	r28
    2a0e:	08 95       	ret

00002a10 <draw_map>:
    2a10:	cf 93       	push	r28
    2a12:	df 93       	push	r29
    2a14:	cd b7       	in	r28, 0x3d	; 61
    2a16:	de b7       	in	r29, 0x3e	; 62
    2a18:	c5 50       	subi	r28, 0x05	; 5
    2a1a:	d3 40       	sbci	r29, 0x03	; 3
    2a1c:	0f b6       	in	r0, 0x3f	; 63
    2a1e:	f8 94       	cli
    2a20:	de bf       	out	0x3e, r29	; 62
    2a22:	0f be       	out	0x3f, r0	; 63
    2a24:	cd bf       	out	0x3d, r28	; 61
    2a26:	20 e0       	ldi	r18, 0x00	; 0
    2a28:	33 e0       	ldi	r19, 0x03	; 3
    2a2a:	ce 01       	movw	r24, r28
    2a2c:	06 96       	adiw	r24, 0x06	; 6
    2a2e:	fc 01       	movw	r30, r24
    2a30:	a9 01       	movw	r20, r18
    2a32:	11 92       	st	Z+, r1
    2a34:	41 50       	subi	r20, 0x01	; 1
    2a36:	50 40       	sbci	r21, 0x00	; 0
    2a38:	e1 f7       	brne	.-8      	; 0x2a32 <draw_map+0x22>
    2a3a:	1a 82       	std	Y+2, r1	; 0x02
    2a3c:	19 82       	std	Y+1, r1	; 0x01
    2a3e:	e8 c1       	rjmp	.+976    	; 0x2e10 <draw_map+0x400>
    2a40:	1c 82       	std	Y+4, r1	; 0x04
    2a42:	1b 82       	std	Y+3, r1	; 0x03
    2a44:	db c1       	rjmp	.+950    	; 0x2dfc <draw_map+0x3ec>
    2a46:	89 81       	ldd	r24, Y+1	; 0x01
    2a48:	9a 81       	ldd	r25, Y+2	; 0x02
    2a4a:	9c 01       	movw	r18, r24
    2a4c:	22 0f       	add	r18, r18
    2a4e:	33 1f       	adc	r19, r19
    2a50:	22 95       	swap	r18
    2a52:	32 95       	swap	r19
    2a54:	30 7f       	andi	r19, 0xF0	; 240
    2a56:	32 27       	eor	r19, r18
    2a58:	20 7f       	andi	r18, 0xF0	; 240
    2a5a:	32 27       	eor	r19, r18
    2a5c:	8b 81       	ldd	r24, Y+3	; 0x03
    2a5e:	9c 81       	ldd	r25, Y+4	; 0x04
    2a60:	82 0f       	add	r24, r18
    2a62:	93 1f       	adc	r25, r19
    2a64:	80 55       	subi	r24, 0x50	; 80
    2a66:	9d 4f       	sbci	r25, 0xFD	; 253
    2a68:	fc 01       	movw	r30, r24
    2a6a:	80 81       	ld	r24, Z
    2a6c:	81 30       	cpi	r24, 0x01	; 1
    2a6e:	09 f0       	breq	.+2      	; 0x2a72 <draw_map+0x62>
    2a70:	c0 c1       	rjmp	.+896    	; 0x2df2 <draw_map+0x3e2>
    2a72:	89 81       	ldd	r24, Y+1	; 0x01
    2a74:	9a 81       	ldd	r25, Y+2	; 0x02
    2a76:	81 70       	andi	r24, 0x01	; 1
    2a78:	99 27       	eor	r25, r25
    2a7a:	89 2b       	or	r24, r25
    2a7c:	09 f0       	breq	.+2      	; 0x2a80 <draw_map+0x70>
    2a7e:	dd c0       	rjmp	.+442    	; 0x2c3a <draw_map+0x22a>
    2a80:	89 81       	ldd	r24, Y+1	; 0x01
    2a82:	9a 81       	ldd	r25, Y+2	; 0x02
    2a84:	99 23       	and	r25, r25
    2a86:	0c f4       	brge	.+2      	; 0x2a8a <draw_map+0x7a>
    2a88:	01 96       	adiw	r24, 0x01	; 1
    2a8a:	95 95       	asr	r25
    2a8c:	87 95       	ror	r24
    2a8e:	2b 81       	ldd	r18, Y+3	; 0x03
    2a90:	3c 81       	ldd	r19, Y+4	; 0x04
    2a92:	22 0f       	add	r18, r18
    2a94:	33 1f       	adc	r19, r19
    2a96:	22 0f       	add	r18, r18
    2a98:	33 1f       	adc	r19, r19
    2a9a:	4b 81       	ldd	r20, Y+3	; 0x03
    2a9c:	5c 81       	ldd	r21, Y+4	; 0x04
    2a9e:	44 0f       	add	r20, r20
    2aa0:	55 1f       	adc	r21, r21
    2aa2:	44 0f       	add	r20, r20
    2aa4:	55 1f       	adc	r21, r21
    2aa6:	bc 01       	movw	r22, r24
    2aa8:	76 95       	lsr	r23
    2aaa:	76 2f       	mov	r23, r22
    2aac:	66 27       	eor	r22, r22
    2aae:	77 95       	ror	r23
    2ab0:	67 95       	ror	r22
    2ab2:	fe 01       	movw	r30, r28
    2ab4:	31 96       	adiw	r30, 0x01	; 1
    2ab6:	6e 0f       	add	r22, r30
    2ab8:	7f 1f       	adc	r23, r31
    2aba:	46 0f       	add	r20, r22
    2abc:	57 1f       	adc	r21, r23
    2abe:	4b 5f       	subi	r20, 0xFB	; 251
    2ac0:	5f 4f       	sbci	r21, 0xFF	; 255
    2ac2:	fa 01       	movw	r30, r20
    2ac4:	40 81       	ld	r20, Z
    2ac6:	64 2f       	mov	r22, r20
    2ac8:	6f 60       	ori	r22, 0x0F	; 15
    2aca:	96 95       	lsr	r25
    2acc:	98 2f       	mov	r25, r24
    2ace:	88 27       	eor	r24, r24
    2ad0:	97 95       	ror	r25
    2ad2:	87 95       	ror	r24
    2ad4:	ae 01       	movw	r20, r28
    2ad6:	4f 5f       	subi	r20, 0xFF	; 255
    2ad8:	5f 4f       	sbci	r21, 0xFF	; 255
    2ada:	84 0f       	add	r24, r20
    2adc:	95 1f       	adc	r25, r21
    2ade:	82 0f       	add	r24, r18
    2ae0:	93 1f       	adc	r25, r19
    2ae2:	05 96       	adiw	r24, 0x05	; 5
    2ae4:	fc 01       	movw	r30, r24
    2ae6:	60 83       	st	Z, r22
    2ae8:	89 81       	ldd	r24, Y+1	; 0x01
    2aea:	9a 81       	ldd	r25, Y+2	; 0x02
    2aec:	99 23       	and	r25, r25
    2aee:	0c f4       	brge	.+2      	; 0x2af2 <draw_map+0xe2>
    2af0:	01 96       	adiw	r24, 0x01	; 1
    2af2:	95 95       	asr	r25
    2af4:	87 95       	ror	r24
    2af6:	2b 81       	ldd	r18, Y+3	; 0x03
    2af8:	3c 81       	ldd	r19, Y+4	; 0x04
    2afa:	22 0f       	add	r18, r18
    2afc:	33 1f       	adc	r19, r19
    2afe:	22 0f       	add	r18, r18
    2b00:	33 1f       	adc	r19, r19
    2b02:	2f 5f       	subi	r18, 0xFF	; 255
    2b04:	3f 4f       	sbci	r19, 0xFF	; 255
    2b06:	4b 81       	ldd	r20, Y+3	; 0x03
    2b08:	5c 81       	ldd	r21, Y+4	; 0x04
    2b0a:	44 0f       	add	r20, r20
    2b0c:	55 1f       	adc	r21, r21
    2b0e:	44 0f       	add	r20, r20
    2b10:	55 1f       	adc	r21, r21
    2b12:	4f 5f       	subi	r20, 0xFF	; 255
    2b14:	5f 4f       	sbci	r21, 0xFF	; 255
    2b16:	bc 01       	movw	r22, r24
    2b18:	76 95       	lsr	r23
    2b1a:	76 2f       	mov	r23, r22
    2b1c:	66 27       	eor	r22, r22
    2b1e:	77 95       	ror	r23
    2b20:	67 95       	ror	r22
    2b22:	fe 01       	movw	r30, r28
    2b24:	31 96       	adiw	r30, 0x01	; 1
    2b26:	6e 0f       	add	r22, r30
    2b28:	7f 1f       	adc	r23, r31
    2b2a:	46 0f       	add	r20, r22
    2b2c:	57 1f       	adc	r21, r23
    2b2e:	4b 5f       	subi	r20, 0xFB	; 251
    2b30:	5f 4f       	sbci	r21, 0xFF	; 255
    2b32:	fa 01       	movw	r30, r20
    2b34:	40 81       	ld	r20, Z
    2b36:	64 2f       	mov	r22, r20
    2b38:	6f 60       	ori	r22, 0x0F	; 15
    2b3a:	96 95       	lsr	r25
    2b3c:	98 2f       	mov	r25, r24
    2b3e:	88 27       	eor	r24, r24
    2b40:	97 95       	ror	r25
    2b42:	87 95       	ror	r24
    2b44:	ae 01       	movw	r20, r28
    2b46:	4f 5f       	subi	r20, 0xFF	; 255
    2b48:	5f 4f       	sbci	r21, 0xFF	; 255
    2b4a:	84 0f       	add	r24, r20
    2b4c:	95 1f       	adc	r25, r21
    2b4e:	82 0f       	add	r24, r18
    2b50:	93 1f       	adc	r25, r19
    2b52:	05 96       	adiw	r24, 0x05	; 5
    2b54:	fc 01       	movw	r30, r24
    2b56:	60 83       	st	Z, r22
    2b58:	89 81       	ldd	r24, Y+1	; 0x01
    2b5a:	9a 81       	ldd	r25, Y+2	; 0x02
    2b5c:	99 23       	and	r25, r25
    2b5e:	0c f4       	brge	.+2      	; 0x2b62 <draw_map+0x152>
    2b60:	01 96       	adiw	r24, 0x01	; 1
    2b62:	95 95       	asr	r25
    2b64:	87 95       	ror	r24
    2b66:	2b 81       	ldd	r18, Y+3	; 0x03
    2b68:	3c 81       	ldd	r19, Y+4	; 0x04
    2b6a:	22 0f       	add	r18, r18
    2b6c:	33 1f       	adc	r19, r19
    2b6e:	22 0f       	add	r18, r18
    2b70:	33 1f       	adc	r19, r19
    2b72:	2e 5f       	subi	r18, 0xFE	; 254
    2b74:	3f 4f       	sbci	r19, 0xFF	; 255
    2b76:	4b 81       	ldd	r20, Y+3	; 0x03
    2b78:	5c 81       	ldd	r21, Y+4	; 0x04
    2b7a:	44 0f       	add	r20, r20
    2b7c:	55 1f       	adc	r21, r21
    2b7e:	44 0f       	add	r20, r20
    2b80:	55 1f       	adc	r21, r21
    2b82:	4e 5f       	subi	r20, 0xFE	; 254
    2b84:	5f 4f       	sbci	r21, 0xFF	; 255
    2b86:	bc 01       	movw	r22, r24
    2b88:	76 95       	lsr	r23
    2b8a:	76 2f       	mov	r23, r22
    2b8c:	66 27       	eor	r22, r22
    2b8e:	77 95       	ror	r23
    2b90:	67 95       	ror	r22
    2b92:	fe 01       	movw	r30, r28
    2b94:	31 96       	adiw	r30, 0x01	; 1
    2b96:	6e 0f       	add	r22, r30
    2b98:	7f 1f       	adc	r23, r31
    2b9a:	46 0f       	add	r20, r22
    2b9c:	57 1f       	adc	r21, r23
    2b9e:	4b 5f       	subi	r20, 0xFB	; 251
    2ba0:	5f 4f       	sbci	r21, 0xFF	; 255
    2ba2:	fa 01       	movw	r30, r20
    2ba4:	40 81       	ld	r20, Z
    2ba6:	64 2f       	mov	r22, r20
    2ba8:	6f 60       	ori	r22, 0x0F	; 15
    2baa:	96 95       	lsr	r25
    2bac:	98 2f       	mov	r25, r24
    2bae:	88 27       	eor	r24, r24
    2bb0:	97 95       	ror	r25
    2bb2:	87 95       	ror	r24
    2bb4:	ae 01       	movw	r20, r28
    2bb6:	4f 5f       	subi	r20, 0xFF	; 255
    2bb8:	5f 4f       	sbci	r21, 0xFF	; 255
    2bba:	84 0f       	add	r24, r20
    2bbc:	95 1f       	adc	r25, r21
    2bbe:	82 0f       	add	r24, r18
    2bc0:	93 1f       	adc	r25, r19
    2bc2:	05 96       	adiw	r24, 0x05	; 5
    2bc4:	fc 01       	movw	r30, r24
    2bc6:	60 83       	st	Z, r22
    2bc8:	89 81       	ldd	r24, Y+1	; 0x01
    2bca:	9a 81       	ldd	r25, Y+2	; 0x02
    2bcc:	99 23       	and	r25, r25
    2bce:	0c f4       	brge	.+2      	; 0x2bd2 <draw_map+0x1c2>
    2bd0:	01 96       	adiw	r24, 0x01	; 1
    2bd2:	95 95       	asr	r25
    2bd4:	87 95       	ror	r24
    2bd6:	2b 81       	ldd	r18, Y+3	; 0x03
    2bd8:	3c 81       	ldd	r19, Y+4	; 0x04
    2bda:	22 0f       	add	r18, r18
    2bdc:	33 1f       	adc	r19, r19
    2bde:	22 0f       	add	r18, r18
    2be0:	33 1f       	adc	r19, r19
    2be2:	2d 5f       	subi	r18, 0xFD	; 253
    2be4:	3f 4f       	sbci	r19, 0xFF	; 255
    2be6:	4b 81       	ldd	r20, Y+3	; 0x03
    2be8:	5c 81       	ldd	r21, Y+4	; 0x04
    2bea:	44 0f       	add	r20, r20
    2bec:	55 1f       	adc	r21, r21
    2bee:	44 0f       	add	r20, r20
    2bf0:	55 1f       	adc	r21, r21
    2bf2:	4d 5f       	subi	r20, 0xFD	; 253
    2bf4:	5f 4f       	sbci	r21, 0xFF	; 255
    2bf6:	bc 01       	movw	r22, r24
    2bf8:	76 95       	lsr	r23
    2bfa:	76 2f       	mov	r23, r22
    2bfc:	66 27       	eor	r22, r22
    2bfe:	77 95       	ror	r23
    2c00:	67 95       	ror	r22
    2c02:	fe 01       	movw	r30, r28
    2c04:	31 96       	adiw	r30, 0x01	; 1
    2c06:	6e 0f       	add	r22, r30
    2c08:	7f 1f       	adc	r23, r31
    2c0a:	46 0f       	add	r20, r22
    2c0c:	57 1f       	adc	r21, r23
    2c0e:	4b 5f       	subi	r20, 0xFB	; 251
    2c10:	5f 4f       	sbci	r21, 0xFF	; 255
    2c12:	fa 01       	movw	r30, r20
    2c14:	40 81       	ld	r20, Z
    2c16:	64 2f       	mov	r22, r20
    2c18:	6f 60       	ori	r22, 0x0F	; 15
    2c1a:	96 95       	lsr	r25
    2c1c:	98 2f       	mov	r25, r24
    2c1e:	88 27       	eor	r24, r24
    2c20:	97 95       	ror	r25
    2c22:	87 95       	ror	r24
    2c24:	ae 01       	movw	r20, r28
    2c26:	4f 5f       	subi	r20, 0xFF	; 255
    2c28:	5f 4f       	sbci	r21, 0xFF	; 255
    2c2a:	84 0f       	add	r24, r20
    2c2c:	95 1f       	adc	r25, r21
    2c2e:	82 0f       	add	r24, r18
    2c30:	93 1f       	adc	r25, r19
    2c32:	05 96       	adiw	r24, 0x05	; 5
    2c34:	fc 01       	movw	r30, r24
    2c36:	60 83       	st	Z, r22
    2c38:	dc c0       	rjmp	.+440    	; 0x2df2 <draw_map+0x3e2>
    2c3a:	89 81       	ldd	r24, Y+1	; 0x01
    2c3c:	9a 81       	ldd	r25, Y+2	; 0x02
    2c3e:	99 23       	and	r25, r25
    2c40:	0c f4       	brge	.+2      	; 0x2c44 <draw_map+0x234>
    2c42:	01 96       	adiw	r24, 0x01	; 1
    2c44:	95 95       	asr	r25
    2c46:	87 95       	ror	r24
    2c48:	2b 81       	ldd	r18, Y+3	; 0x03
    2c4a:	3c 81       	ldd	r19, Y+4	; 0x04
    2c4c:	22 0f       	add	r18, r18
    2c4e:	33 1f       	adc	r19, r19
    2c50:	22 0f       	add	r18, r18
    2c52:	33 1f       	adc	r19, r19
    2c54:	4b 81       	ldd	r20, Y+3	; 0x03
    2c56:	5c 81       	ldd	r21, Y+4	; 0x04
    2c58:	44 0f       	add	r20, r20
    2c5a:	55 1f       	adc	r21, r21
    2c5c:	44 0f       	add	r20, r20
    2c5e:	55 1f       	adc	r21, r21
    2c60:	bc 01       	movw	r22, r24
    2c62:	76 95       	lsr	r23
    2c64:	76 2f       	mov	r23, r22
    2c66:	66 27       	eor	r22, r22
    2c68:	77 95       	ror	r23
    2c6a:	67 95       	ror	r22
    2c6c:	fe 01       	movw	r30, r28
    2c6e:	31 96       	adiw	r30, 0x01	; 1
    2c70:	6e 0f       	add	r22, r30
    2c72:	7f 1f       	adc	r23, r31
    2c74:	46 0f       	add	r20, r22
    2c76:	57 1f       	adc	r21, r23
    2c78:	4b 5f       	subi	r20, 0xFB	; 251
    2c7a:	5f 4f       	sbci	r21, 0xFF	; 255
    2c7c:	fa 01       	movw	r30, r20
    2c7e:	40 81       	ld	r20, Z
    2c80:	64 2f       	mov	r22, r20
    2c82:	60 6f       	ori	r22, 0xF0	; 240
    2c84:	96 95       	lsr	r25
    2c86:	98 2f       	mov	r25, r24
    2c88:	88 27       	eor	r24, r24
    2c8a:	97 95       	ror	r25
    2c8c:	87 95       	ror	r24
    2c8e:	ae 01       	movw	r20, r28
    2c90:	4f 5f       	subi	r20, 0xFF	; 255
    2c92:	5f 4f       	sbci	r21, 0xFF	; 255
    2c94:	84 0f       	add	r24, r20
    2c96:	95 1f       	adc	r25, r21
    2c98:	82 0f       	add	r24, r18
    2c9a:	93 1f       	adc	r25, r19
    2c9c:	05 96       	adiw	r24, 0x05	; 5
    2c9e:	fc 01       	movw	r30, r24
    2ca0:	60 83       	st	Z, r22
    2ca2:	89 81       	ldd	r24, Y+1	; 0x01
    2ca4:	9a 81       	ldd	r25, Y+2	; 0x02
    2ca6:	99 23       	and	r25, r25
    2ca8:	0c f4       	brge	.+2      	; 0x2cac <draw_map+0x29c>
    2caa:	01 96       	adiw	r24, 0x01	; 1
    2cac:	95 95       	asr	r25
    2cae:	87 95       	ror	r24
    2cb0:	2b 81       	ldd	r18, Y+3	; 0x03
    2cb2:	3c 81       	ldd	r19, Y+4	; 0x04
    2cb4:	22 0f       	add	r18, r18
    2cb6:	33 1f       	adc	r19, r19
    2cb8:	22 0f       	add	r18, r18
    2cba:	33 1f       	adc	r19, r19
    2cbc:	2f 5f       	subi	r18, 0xFF	; 255
    2cbe:	3f 4f       	sbci	r19, 0xFF	; 255
    2cc0:	4b 81       	ldd	r20, Y+3	; 0x03
    2cc2:	5c 81       	ldd	r21, Y+4	; 0x04
    2cc4:	44 0f       	add	r20, r20
    2cc6:	55 1f       	adc	r21, r21
    2cc8:	44 0f       	add	r20, r20
    2cca:	55 1f       	adc	r21, r21
    2ccc:	4f 5f       	subi	r20, 0xFF	; 255
    2cce:	5f 4f       	sbci	r21, 0xFF	; 255
    2cd0:	bc 01       	movw	r22, r24
    2cd2:	76 95       	lsr	r23
    2cd4:	76 2f       	mov	r23, r22
    2cd6:	66 27       	eor	r22, r22
    2cd8:	77 95       	ror	r23
    2cda:	67 95       	ror	r22
    2cdc:	fe 01       	movw	r30, r28
    2cde:	31 96       	adiw	r30, 0x01	; 1
    2ce0:	6e 0f       	add	r22, r30
    2ce2:	7f 1f       	adc	r23, r31
    2ce4:	46 0f       	add	r20, r22
    2ce6:	57 1f       	adc	r21, r23
    2ce8:	4b 5f       	subi	r20, 0xFB	; 251
    2cea:	5f 4f       	sbci	r21, 0xFF	; 255
    2cec:	fa 01       	movw	r30, r20
    2cee:	40 81       	ld	r20, Z
    2cf0:	64 2f       	mov	r22, r20
    2cf2:	60 6f       	ori	r22, 0xF0	; 240
    2cf4:	96 95       	lsr	r25
    2cf6:	98 2f       	mov	r25, r24
    2cf8:	88 27       	eor	r24, r24
    2cfa:	97 95       	ror	r25
    2cfc:	87 95       	ror	r24
    2cfe:	ae 01       	movw	r20, r28
    2d00:	4f 5f       	subi	r20, 0xFF	; 255
    2d02:	5f 4f       	sbci	r21, 0xFF	; 255
    2d04:	84 0f       	add	r24, r20
    2d06:	95 1f       	adc	r25, r21
    2d08:	82 0f       	add	r24, r18
    2d0a:	93 1f       	adc	r25, r19
    2d0c:	05 96       	adiw	r24, 0x05	; 5
    2d0e:	fc 01       	movw	r30, r24
    2d10:	60 83       	st	Z, r22
    2d12:	89 81       	ldd	r24, Y+1	; 0x01
    2d14:	9a 81       	ldd	r25, Y+2	; 0x02
    2d16:	99 23       	and	r25, r25
    2d18:	0c f4       	brge	.+2      	; 0x2d1c <draw_map+0x30c>
    2d1a:	01 96       	adiw	r24, 0x01	; 1
    2d1c:	95 95       	asr	r25
    2d1e:	87 95       	ror	r24
    2d20:	2b 81       	ldd	r18, Y+3	; 0x03
    2d22:	3c 81       	ldd	r19, Y+4	; 0x04
    2d24:	22 0f       	add	r18, r18
    2d26:	33 1f       	adc	r19, r19
    2d28:	22 0f       	add	r18, r18
    2d2a:	33 1f       	adc	r19, r19
    2d2c:	2e 5f       	subi	r18, 0xFE	; 254
    2d2e:	3f 4f       	sbci	r19, 0xFF	; 255
    2d30:	4b 81       	ldd	r20, Y+3	; 0x03
    2d32:	5c 81       	ldd	r21, Y+4	; 0x04
    2d34:	44 0f       	add	r20, r20
    2d36:	55 1f       	adc	r21, r21
    2d38:	44 0f       	add	r20, r20
    2d3a:	55 1f       	adc	r21, r21
    2d3c:	4e 5f       	subi	r20, 0xFE	; 254
    2d3e:	5f 4f       	sbci	r21, 0xFF	; 255
    2d40:	bc 01       	movw	r22, r24
    2d42:	76 95       	lsr	r23
    2d44:	76 2f       	mov	r23, r22
    2d46:	66 27       	eor	r22, r22
    2d48:	77 95       	ror	r23
    2d4a:	67 95       	ror	r22
    2d4c:	fe 01       	movw	r30, r28
    2d4e:	31 96       	adiw	r30, 0x01	; 1
    2d50:	6e 0f       	add	r22, r30
    2d52:	7f 1f       	adc	r23, r31
    2d54:	46 0f       	add	r20, r22
    2d56:	57 1f       	adc	r21, r23
    2d58:	4b 5f       	subi	r20, 0xFB	; 251
    2d5a:	5f 4f       	sbci	r21, 0xFF	; 255
    2d5c:	fa 01       	movw	r30, r20
    2d5e:	40 81       	ld	r20, Z
    2d60:	64 2f       	mov	r22, r20
    2d62:	60 6f       	ori	r22, 0xF0	; 240
    2d64:	96 95       	lsr	r25
    2d66:	98 2f       	mov	r25, r24
    2d68:	88 27       	eor	r24, r24
    2d6a:	97 95       	ror	r25
    2d6c:	87 95       	ror	r24
    2d6e:	ae 01       	movw	r20, r28
    2d70:	4f 5f       	subi	r20, 0xFF	; 255
    2d72:	5f 4f       	sbci	r21, 0xFF	; 255
    2d74:	84 0f       	add	r24, r20
    2d76:	95 1f       	adc	r25, r21
    2d78:	82 0f       	add	r24, r18
    2d7a:	93 1f       	adc	r25, r19
    2d7c:	05 96       	adiw	r24, 0x05	; 5
    2d7e:	fc 01       	movw	r30, r24
    2d80:	60 83       	st	Z, r22
    2d82:	89 81       	ldd	r24, Y+1	; 0x01
    2d84:	9a 81       	ldd	r25, Y+2	; 0x02
    2d86:	99 23       	and	r25, r25
    2d88:	0c f4       	brge	.+2      	; 0x2d8c <draw_map+0x37c>
    2d8a:	01 96       	adiw	r24, 0x01	; 1
    2d8c:	95 95       	asr	r25
    2d8e:	87 95       	ror	r24
    2d90:	2b 81       	ldd	r18, Y+3	; 0x03
    2d92:	3c 81       	ldd	r19, Y+4	; 0x04
    2d94:	22 0f       	add	r18, r18
    2d96:	33 1f       	adc	r19, r19
    2d98:	22 0f       	add	r18, r18
    2d9a:	33 1f       	adc	r19, r19
    2d9c:	2d 5f       	subi	r18, 0xFD	; 253
    2d9e:	3f 4f       	sbci	r19, 0xFF	; 255
    2da0:	4b 81       	ldd	r20, Y+3	; 0x03
    2da2:	5c 81       	ldd	r21, Y+4	; 0x04
    2da4:	44 0f       	add	r20, r20
    2da6:	55 1f       	adc	r21, r21
    2da8:	44 0f       	add	r20, r20
    2daa:	55 1f       	adc	r21, r21
    2dac:	4d 5f       	subi	r20, 0xFD	; 253
    2dae:	5f 4f       	sbci	r21, 0xFF	; 255
    2db0:	bc 01       	movw	r22, r24
    2db2:	76 95       	lsr	r23
    2db4:	76 2f       	mov	r23, r22
    2db6:	66 27       	eor	r22, r22
    2db8:	77 95       	ror	r23
    2dba:	67 95       	ror	r22
    2dbc:	fe 01       	movw	r30, r28
    2dbe:	31 96       	adiw	r30, 0x01	; 1
    2dc0:	6e 0f       	add	r22, r30
    2dc2:	7f 1f       	adc	r23, r31
    2dc4:	46 0f       	add	r20, r22
    2dc6:	57 1f       	adc	r21, r23
    2dc8:	4b 5f       	subi	r20, 0xFB	; 251
    2dca:	5f 4f       	sbci	r21, 0xFF	; 255
    2dcc:	fa 01       	movw	r30, r20
    2dce:	40 81       	ld	r20, Z
    2dd0:	64 2f       	mov	r22, r20
    2dd2:	60 6f       	ori	r22, 0xF0	; 240
    2dd4:	96 95       	lsr	r25
    2dd6:	98 2f       	mov	r25, r24
    2dd8:	88 27       	eor	r24, r24
    2dda:	97 95       	ror	r25
    2ddc:	87 95       	ror	r24
    2dde:	ae 01       	movw	r20, r28
    2de0:	4f 5f       	subi	r20, 0xFF	; 255
    2de2:	5f 4f       	sbci	r21, 0xFF	; 255
    2de4:	84 0f       	add	r24, r20
    2de6:	95 1f       	adc	r25, r21
    2de8:	82 0f       	add	r24, r18
    2dea:	93 1f       	adc	r25, r19
    2dec:	05 96       	adiw	r24, 0x05	; 5
    2dee:	fc 01       	movw	r30, r24
    2df0:	60 83       	st	Z, r22
    2df2:	8b 81       	ldd	r24, Y+3	; 0x03
    2df4:	9c 81       	ldd	r25, Y+4	; 0x04
    2df6:	01 96       	adiw	r24, 0x01	; 1
    2df8:	9c 83       	std	Y+4, r25	; 0x04
    2dfa:	8b 83       	std	Y+3, r24	; 0x03
    2dfc:	8b 81       	ldd	r24, Y+3	; 0x03
    2dfe:	9c 81       	ldd	r25, Y+4	; 0x04
    2e00:	80 97       	sbiw	r24, 0x20	; 32
    2e02:	0c f4       	brge	.+2      	; 0x2e06 <draw_map+0x3f6>
    2e04:	20 ce       	rjmp	.-960    	; 0x2a46 <draw_map+0x36>
    2e06:	89 81       	ldd	r24, Y+1	; 0x01
    2e08:	9a 81       	ldd	r25, Y+2	; 0x02
    2e0a:	01 96       	adiw	r24, 0x01	; 1
    2e0c:	9a 83       	std	Y+2, r25	; 0x02
    2e0e:	89 83       	std	Y+1, r24	; 0x01
    2e10:	89 81       	ldd	r24, Y+1	; 0x01
    2e12:	9a 81       	ldd	r25, Y+2	; 0x02
    2e14:	0c 97       	sbiw	r24, 0x0c	; 12
    2e16:	0c f4       	brge	.+2      	; 0x2e1a <draw_map+0x40a>
    2e18:	13 ce       	rjmp	.-986    	; 0x2a40 <draw_map+0x30>
    2e1a:	82 e0       	ldi	r24, 0x02	; 2
    2e1c:	8d 83       	std	Y+5, r24	; 0x05
    2e1e:	18 c0       	rjmp	.+48     	; 0x2e50 <draw_map+0x440>
    2e20:	8d 81       	ldd	r24, Y+5	; 0x05
    2e22:	0e 94 f4 02 	call	0x5e8	; 0x5e8 <ssd1306_set_page_start>
    2e26:	8d 81       	ldd	r24, Y+5	; 0x05
    2e28:	88 2f       	mov	r24, r24
    2e2a:	90 e0       	ldi	r25, 0x00	; 0
    2e2c:	02 97       	sbiw	r24, 0x02	; 2
    2e2e:	9e 01       	movw	r18, r28
    2e30:	2a 5f       	subi	r18, 0xFA	; 250
    2e32:	3f 4f       	sbci	r19, 0xFF	; 255
    2e34:	96 95       	lsr	r25
    2e36:	98 2f       	mov	r25, r24
    2e38:	88 27       	eor	r24, r24
    2e3a:	97 95       	ror	r25
    2e3c:	87 95       	ror	r24
    2e3e:	82 0f       	add	r24, r18
    2e40:	93 1f       	adc	r25, r19
    2e42:	60 e8       	ldi	r22, 0x80	; 128
    2e44:	70 e0       	ldi	r23, 0x00	; 0
    2e46:	0e 94 72 02 	call	0x4e4	; 0x4e4 <ssd1306_data>
    2e4a:	8d 81       	ldd	r24, Y+5	; 0x05
    2e4c:	8f 5f       	subi	r24, 0xFF	; 255
    2e4e:	8d 83       	std	Y+5, r24	; 0x05
    2e50:	8d 81       	ldd	r24, Y+5	; 0x05
    2e52:	88 30       	cpi	r24, 0x08	; 8
    2e54:	28 f3       	brcs	.-54     	; 0x2e20 <draw_map+0x410>
    2e56:	00 00       	nop
    2e58:	cb 5f       	subi	r28, 0xFB	; 251
    2e5a:	dc 4f       	sbci	r29, 0xFC	; 252
    2e5c:	0f b6       	in	r0, 0x3f	; 63
    2e5e:	f8 94       	cli
    2e60:	de bf       	out	0x3e, r29	; 62
    2e62:	0f be       	out	0x3f, r0	; 63
    2e64:	cd bf       	out	0x3d, r28	; 61
    2e66:	df 91       	pop	r29
    2e68:	cf 91       	pop	r28
    2e6a:	08 95       	ret

00002e6c <NewTetriminos>:
    2e6c:	cf 93       	push	r28
    2e6e:	df 93       	push	r29
    2e70:	cd b7       	in	r28, 0x3d	; 61
    2e72:	de b7       	in	r29, 0x3e	; 62
    2e74:	2a 97       	sbiw	r28, 0x0a	; 10
    2e76:	0f b6       	in	r0, 0x3f	; 63
    2e78:	f8 94       	cli
    2e7a:	de bf       	out	0x3e, r29	; 62
    2e7c:	0f be       	out	0x3f, r0	; 63
    2e7e:	cd bf       	out	0x3d, r28	; 61
    2e80:	10 92 30 04 	sts	0x0430, r1	; 0x800430 <new_block>
    2e84:	80 91 32 04 	lds	r24, 0x0432	; 0x800432 <next_block>
    2e88:	80 93 76 08 	sts	0x0876, r24	; 0x800876 <shape>
    2e8c:	82 e5       	ldi	r24, 0x52	; 82
    2e8e:	90 e0       	ldi	r25, 0x00	; 0
    2e90:	dc 01       	movw	r26, r24
    2e92:	2c 91       	ld	r18, X
    2e94:	85 e2       	ldi	r24, 0x25	; 37
    2e96:	28 9f       	mul	r18, r24
    2e98:	81 2d       	mov	r24, r1
    2e9a:	11 24       	eor	r1, r1
    2e9c:	92 2f       	mov	r25, r18
    2e9e:	98 1b       	sub	r25, r24
    2ea0:	96 95       	lsr	r25
    2ea2:	89 0f       	add	r24, r25
    2ea4:	98 2f       	mov	r25, r24
    2ea6:	96 95       	lsr	r25
    2ea8:	96 95       	lsr	r25
    2eaa:	89 2f       	mov	r24, r25
    2eac:	88 0f       	add	r24, r24
    2eae:	88 0f       	add	r24, r24
    2eb0:	88 0f       	add	r24, r24
    2eb2:	89 1b       	sub	r24, r25
    2eb4:	92 2f       	mov	r25, r18
    2eb6:	98 1b       	sub	r25, r24
    2eb8:	90 93 32 04 	sts	0x0432, r25	; 0x800432 <next_block>
    2ebc:	10 92 75 08 	sts	0x0875, r1	; 0x800875 <pattern>
    2ec0:	10 92 73 08 	sts	0x0873, r1	; 0x800873 <cur_line>
    2ec4:	87 e0       	ldi	r24, 0x07	; 7
    2ec6:	80 93 74 08 	sts	0x0874, r24	; 0x800874 <cur_col>
    2eca:	1a 82       	std	Y+2, r1	; 0x02
    2ecc:	19 82       	std	Y+1, r1	; 0x01
    2ece:	20 c0       	rjmp	.+64     	; 0x2f10 <NewTetriminos+0xa4>
    2ed0:	1c 82       	std	Y+4, r1	; 0x04
    2ed2:	1b 82       	std	Y+3, r1	; 0x03
    2ed4:	14 c0       	rjmp	.+40     	; 0x2efe <NewTetriminos+0x92>
    2ed6:	89 81       	ldd	r24, Y+1	; 0x01
    2ed8:	9a 81       	ldd	r25, Y+2	; 0x02
    2eda:	9c 01       	movw	r18, r24
    2edc:	22 0f       	add	r18, r18
    2ede:	33 1f       	adc	r19, r19
    2ee0:	22 0f       	add	r18, r18
    2ee2:	33 1f       	adc	r19, r19
    2ee4:	8b 81       	ldd	r24, Y+3	; 0x03
    2ee6:	9c 81       	ldd	r25, Y+4	; 0x04
    2ee8:	82 0f       	add	r24, r18
    2eea:	93 1f       	adc	r25, r19
    2eec:	80 50       	subi	r24, 0x00	; 0
    2eee:	9f 4f       	sbci	r25, 0xFF	; 255
    2ef0:	fc 01       	movw	r30, r24
    2ef2:	10 82       	st	Z, r1
    2ef4:	8b 81       	ldd	r24, Y+3	; 0x03
    2ef6:	9c 81       	ldd	r25, Y+4	; 0x04
    2ef8:	01 96       	adiw	r24, 0x01	; 1
    2efa:	9c 83       	std	Y+4, r25	; 0x04
    2efc:	8b 83       	std	Y+3, r24	; 0x03
    2efe:	8b 81       	ldd	r24, Y+3	; 0x03
    2f00:	9c 81       	ldd	r25, Y+4	; 0x04
    2f02:	04 97       	sbiw	r24, 0x04	; 4
    2f04:	44 f3       	brlt	.-48     	; 0x2ed6 <NewTetriminos+0x6a>
    2f06:	89 81       	ldd	r24, Y+1	; 0x01
    2f08:	9a 81       	ldd	r25, Y+2	; 0x02
    2f0a:	01 96       	adiw	r24, 0x01	; 1
    2f0c:	9a 83       	std	Y+2, r25	; 0x02
    2f0e:	89 83       	std	Y+1, r24	; 0x01
    2f10:	89 81       	ldd	r24, Y+1	; 0x01
    2f12:	9a 81       	ldd	r25, Y+2	; 0x02
    2f14:	0c 97       	sbiw	r24, 0x0c	; 12
    2f16:	e4 f2       	brlt	.-72     	; 0x2ed0 <NewTetriminos+0x64>
    2f18:	1e 82       	std	Y+6, r1	; 0x06
    2f1a:	1d 82       	std	Y+5, r1	; 0x05
    2f1c:	cb c0       	rjmp	.+406    	; 0x30b4 <NewTetriminos+0x248>
    2f1e:	80 91 74 08 	lds	r24, 0x0874	; 0x800874 <cur_col>
    2f22:	28 2f       	mov	r18, r24
    2f24:	30 e0       	ldi	r19, 0x00	; 0
    2f26:	8d 81       	ldd	r24, Y+5	; 0x05
    2f28:	9e 81       	ldd	r25, Y+6	; 0x06
    2f2a:	a9 01       	movw	r20, r18
    2f2c:	48 1b       	sub	r20, r24
    2f2e:	59 0b       	sbc	r21, r25
    2f30:	ca 01       	movw	r24, r20
    2f32:	20 91 76 08 	lds	r18, 0x0876	; 0x800876 <shape>
    2f36:	62 2f       	mov	r22, r18
    2f38:	70 e0       	ldi	r23, 0x00	; 0
    2f3a:	20 91 75 08 	lds	r18, 0x0875	; 0x800875 <pattern>
    2f3e:	22 2f       	mov	r18, r18
    2f40:	30 e0       	ldi	r19, 0x00	; 0
    2f42:	4c e8       	ldi	r20, 0x8C	; 140
    2f44:	50 e0       	ldi	r21, 0x00	; 0
    2f46:	66 0f       	add	r22, r22
    2f48:	77 1f       	adc	r23, r23
    2f4a:	66 0f       	add	r22, r22
    2f4c:	77 1f       	adc	r23, r23
    2f4e:	26 0f       	add	r18, r22
    2f50:	37 1f       	adc	r19, r23
    2f52:	22 95       	swap	r18
    2f54:	32 95       	swap	r19
    2f56:	30 7f       	andi	r19, 0xF0	; 240
    2f58:	32 27       	eor	r19, r18
    2f5a:	20 7f       	andi	r18, 0xF0	; 240
    2f5c:	32 27       	eor	r19, r18
    2f5e:	42 0f       	add	r20, r18
    2f60:	53 1f       	adc	r21, r19
    2f62:	2d 81       	ldd	r18, Y+5	; 0x05
    2f64:	3e 81       	ldd	r19, Y+6	; 0x06
    2f66:	24 0f       	add	r18, r20
    2f68:	35 1f       	adc	r19, r21
    2f6a:	f9 01       	movw	r30, r18
    2f6c:	24 91       	lpm	r18, Z
    2f6e:	88 0f       	add	r24, r24
    2f70:	99 1f       	adc	r25, r25
    2f72:	88 0f       	add	r24, r24
    2f74:	99 1f       	adc	r25, r25
    2f76:	80 50       	subi	r24, 0x00	; 0
    2f78:	9f 4f       	sbci	r25, 0xFF	; 255
    2f7a:	dc 01       	movw	r26, r24
    2f7c:	2c 93       	st	X, r18
    2f7e:	80 91 74 08 	lds	r24, 0x0874	; 0x800874 <cur_col>
    2f82:	28 2f       	mov	r18, r24
    2f84:	30 e0       	ldi	r19, 0x00	; 0
    2f86:	8d 81       	ldd	r24, Y+5	; 0x05
    2f88:	9e 81       	ldd	r25, Y+6	; 0x06
    2f8a:	f9 01       	movw	r30, r18
    2f8c:	e8 1b       	sub	r30, r24
    2f8e:	f9 0b       	sbc	r31, r25
    2f90:	cf 01       	movw	r24, r30
    2f92:	20 91 76 08 	lds	r18, 0x0876	; 0x800876 <shape>
    2f96:	e2 2f       	mov	r30, r18
    2f98:	f0 e0       	ldi	r31, 0x00	; 0
    2f9a:	20 91 75 08 	lds	r18, 0x0875	; 0x800875 <pattern>
    2f9e:	42 2f       	mov	r20, r18
    2fa0:	50 e0       	ldi	r21, 0x00	; 0
    2fa2:	2d 81       	ldd	r18, Y+5	; 0x05
    2fa4:	3e 81       	ldd	r19, Y+6	; 0x06
    2fa6:	2c 5f       	subi	r18, 0xFC	; 252
    2fa8:	3f 4f       	sbci	r19, 0xFF	; 255
    2faa:	6c e8       	ldi	r22, 0x8C	; 140
    2fac:	70 e0       	ldi	r23, 0x00	; 0
    2fae:	ee 0f       	add	r30, r30
    2fb0:	ff 1f       	adc	r31, r31
    2fb2:	ee 0f       	add	r30, r30
    2fb4:	ff 1f       	adc	r31, r31
    2fb6:	4e 0f       	add	r20, r30
    2fb8:	5f 1f       	adc	r21, r31
    2fba:	42 95       	swap	r20
    2fbc:	52 95       	swap	r21
    2fbe:	50 7f       	andi	r21, 0xF0	; 240
    2fc0:	54 27       	eor	r21, r20
    2fc2:	40 7f       	andi	r20, 0xF0	; 240
    2fc4:	54 27       	eor	r21, r20
    2fc6:	46 0f       	add	r20, r22
    2fc8:	57 1f       	adc	r21, r23
    2fca:	24 0f       	add	r18, r20
    2fcc:	35 1f       	adc	r19, r21
    2fce:	f9 01       	movw	r30, r18
    2fd0:	24 91       	lpm	r18, Z
    2fd2:	88 0f       	add	r24, r24
    2fd4:	99 1f       	adc	r25, r25
    2fd6:	88 0f       	add	r24, r24
    2fd8:	99 1f       	adc	r25, r25
    2fda:	8f 5f       	subi	r24, 0xFF	; 255
    2fdc:	9e 4f       	sbci	r25, 0xFE	; 254
    2fde:	dc 01       	movw	r26, r24
    2fe0:	2c 93       	st	X, r18
    2fe2:	80 91 74 08 	lds	r24, 0x0874	; 0x800874 <cur_col>
    2fe6:	28 2f       	mov	r18, r24
    2fe8:	30 e0       	ldi	r19, 0x00	; 0
    2fea:	8d 81       	ldd	r24, Y+5	; 0x05
    2fec:	9e 81       	ldd	r25, Y+6	; 0x06
    2fee:	f9 01       	movw	r30, r18
    2ff0:	e8 1b       	sub	r30, r24
    2ff2:	f9 0b       	sbc	r31, r25
    2ff4:	cf 01       	movw	r24, r30
    2ff6:	20 91 76 08 	lds	r18, 0x0876	; 0x800876 <shape>
    2ffa:	e2 2f       	mov	r30, r18
    2ffc:	f0 e0       	ldi	r31, 0x00	; 0
    2ffe:	20 91 75 08 	lds	r18, 0x0875	; 0x800875 <pattern>
    3002:	42 2f       	mov	r20, r18
    3004:	50 e0       	ldi	r21, 0x00	; 0
    3006:	2d 81       	ldd	r18, Y+5	; 0x05
    3008:	3e 81       	ldd	r19, Y+6	; 0x06
    300a:	28 5f       	subi	r18, 0xF8	; 248
    300c:	3f 4f       	sbci	r19, 0xFF	; 255
    300e:	6c e8       	ldi	r22, 0x8C	; 140
    3010:	70 e0       	ldi	r23, 0x00	; 0
    3012:	ee 0f       	add	r30, r30
    3014:	ff 1f       	adc	r31, r31
    3016:	ee 0f       	add	r30, r30
    3018:	ff 1f       	adc	r31, r31
    301a:	4e 0f       	add	r20, r30
    301c:	5f 1f       	adc	r21, r31
    301e:	42 95       	swap	r20
    3020:	52 95       	swap	r21
    3022:	50 7f       	andi	r21, 0xF0	; 240
    3024:	54 27       	eor	r21, r20
    3026:	40 7f       	andi	r20, 0xF0	; 240
    3028:	54 27       	eor	r21, r20
    302a:	46 0f       	add	r20, r22
    302c:	57 1f       	adc	r21, r23
    302e:	24 0f       	add	r18, r20
    3030:	35 1f       	adc	r19, r21
    3032:	f9 01       	movw	r30, r18
    3034:	24 91       	lpm	r18, Z
    3036:	88 0f       	add	r24, r24
    3038:	99 1f       	adc	r25, r25
    303a:	88 0f       	add	r24, r24
    303c:	99 1f       	adc	r25, r25
    303e:	8e 5f       	subi	r24, 0xFE	; 254
    3040:	9e 4f       	sbci	r25, 0xFE	; 254
    3042:	dc 01       	movw	r26, r24
    3044:	2c 93       	st	X, r18
    3046:	80 91 74 08 	lds	r24, 0x0874	; 0x800874 <cur_col>
    304a:	28 2f       	mov	r18, r24
    304c:	30 e0       	ldi	r19, 0x00	; 0
    304e:	8d 81       	ldd	r24, Y+5	; 0x05
    3050:	9e 81       	ldd	r25, Y+6	; 0x06
    3052:	f9 01       	movw	r30, r18
    3054:	e8 1b       	sub	r30, r24
    3056:	f9 0b       	sbc	r31, r25
    3058:	cf 01       	movw	r24, r30
    305a:	20 91 76 08 	lds	r18, 0x0876	; 0x800876 <shape>
    305e:	e2 2f       	mov	r30, r18
    3060:	f0 e0       	ldi	r31, 0x00	; 0
    3062:	20 91 75 08 	lds	r18, 0x0875	; 0x800875 <pattern>
    3066:	42 2f       	mov	r20, r18
    3068:	50 e0       	ldi	r21, 0x00	; 0
    306a:	2d 81       	ldd	r18, Y+5	; 0x05
    306c:	3e 81       	ldd	r19, Y+6	; 0x06
    306e:	24 5f       	subi	r18, 0xF4	; 244
    3070:	3f 4f       	sbci	r19, 0xFF	; 255
    3072:	6c e8       	ldi	r22, 0x8C	; 140
    3074:	70 e0       	ldi	r23, 0x00	; 0
    3076:	ee 0f       	add	r30, r30
    3078:	ff 1f       	adc	r31, r31
    307a:	ee 0f       	add	r30, r30
    307c:	ff 1f       	adc	r31, r31
    307e:	4e 0f       	add	r20, r30
    3080:	5f 1f       	adc	r21, r31
    3082:	42 95       	swap	r20
    3084:	52 95       	swap	r21
    3086:	50 7f       	andi	r21, 0xF0	; 240
    3088:	54 27       	eor	r21, r20
    308a:	40 7f       	andi	r20, 0xF0	; 240
    308c:	54 27       	eor	r21, r20
    308e:	46 0f       	add	r20, r22
    3090:	57 1f       	adc	r21, r23
    3092:	24 0f       	add	r18, r20
    3094:	35 1f       	adc	r19, r21
    3096:	f9 01       	movw	r30, r18
    3098:	24 91       	lpm	r18, Z
    309a:	88 0f       	add	r24, r24
    309c:	99 1f       	adc	r25, r25
    309e:	88 0f       	add	r24, r24
    30a0:	99 1f       	adc	r25, r25
    30a2:	8d 5f       	subi	r24, 0xFD	; 253
    30a4:	9e 4f       	sbci	r25, 0xFE	; 254
    30a6:	dc 01       	movw	r26, r24
    30a8:	2c 93       	st	X, r18
    30aa:	8d 81       	ldd	r24, Y+5	; 0x05
    30ac:	9e 81       	ldd	r25, Y+6	; 0x06
    30ae:	01 96       	adiw	r24, 0x01	; 1
    30b0:	9e 83       	std	Y+6, r25	; 0x06
    30b2:	8d 83       	std	Y+5, r24	; 0x05
    30b4:	8d 81       	ldd	r24, Y+5	; 0x05
    30b6:	9e 81       	ldd	r25, Y+6	; 0x06
    30b8:	04 97       	sbiw	r24, 0x04	; 4
    30ba:	0c f4       	brge	.+2      	; 0x30be <NewTetriminos+0x252>
    30bc:	30 cf       	rjmp	.-416    	; 0x2f1e <NewTetriminos+0xb2>
    30be:	18 86       	std	Y+8, r1	; 0x08
    30c0:	1f 82       	std	Y+7, r1	; 0x07
    30c2:	d4 c0       	rjmp	.+424    	; 0x326c <NewTetriminos+0x400>
    30c4:	80 91 74 08 	lds	r24, 0x0874	; 0x800874 <cur_col>
    30c8:	28 2f       	mov	r18, r24
    30ca:	30 e0       	ldi	r19, 0x00	; 0
    30cc:	8f 81       	ldd	r24, Y+7	; 0x07
    30ce:	98 85       	ldd	r25, Y+8	; 0x08
    30d0:	28 1b       	sub	r18, r24
    30d2:	39 0b       	sbc	r19, r25
    30d4:	80 91 73 08 	lds	r24, 0x0873	; 0x800873 <cur_line>
    30d8:	88 2f       	mov	r24, r24
    30da:	90 e0       	ldi	r25, 0x00	; 0
    30dc:	22 0f       	add	r18, r18
    30de:	33 1f       	adc	r19, r19
    30e0:	22 95       	swap	r18
    30e2:	32 95       	swap	r19
    30e4:	30 7f       	andi	r19, 0xF0	; 240
    30e6:	32 27       	eor	r19, r18
    30e8:	20 7f       	andi	r18, 0xF0	; 240
    30ea:	32 27       	eor	r19, r18
    30ec:	82 0f       	add	r24, r18
    30ee:	93 1f       	adc	r25, r19
    30f0:	80 55       	subi	r24, 0x50	; 80
    30f2:	9d 4f       	sbci	r25, 0xFD	; 253
    30f4:	fc 01       	movw	r30, r24
    30f6:	40 81       	ld	r20, Z
    30f8:	80 91 74 08 	lds	r24, 0x0874	; 0x800874 <cur_col>
    30fc:	28 2f       	mov	r18, r24
    30fe:	30 e0       	ldi	r19, 0x00	; 0
    3100:	8f 81       	ldd	r24, Y+7	; 0x07
    3102:	98 85       	ldd	r25, Y+8	; 0x08
    3104:	b9 01       	movw	r22, r18
    3106:	68 1b       	sub	r22, r24
    3108:	79 0b       	sbc	r23, r25
    310a:	cb 01       	movw	r24, r22
    310c:	88 0f       	add	r24, r24
    310e:	99 1f       	adc	r25, r25
    3110:	88 0f       	add	r24, r24
    3112:	99 1f       	adc	r25, r25
    3114:	80 50       	subi	r24, 0x00	; 0
    3116:	9f 4f       	sbci	r25, 0xFF	; 255
    3118:	dc 01       	movw	r26, r24
    311a:	8c 91       	ld	r24, X
    311c:	94 2f       	mov	r25, r20
    311e:	98 23       	and	r25, r24
    3120:	80 91 31 04 	lds	r24, 0x0431	; 0x800431 <game_over>
    3124:	89 2b       	or	r24, r25
    3126:	80 93 31 04 	sts	0x0431, r24	; 0x800431 <game_over>
    312a:	80 91 74 08 	lds	r24, 0x0874	; 0x800874 <cur_col>
    312e:	28 2f       	mov	r18, r24
    3130:	30 e0       	ldi	r19, 0x00	; 0
    3132:	8f 81       	ldd	r24, Y+7	; 0x07
    3134:	98 85       	ldd	r25, Y+8	; 0x08
    3136:	28 1b       	sub	r18, r24
    3138:	39 0b       	sbc	r19, r25
    313a:	80 91 73 08 	lds	r24, 0x0873	; 0x800873 <cur_line>
    313e:	88 2f       	mov	r24, r24
    3140:	90 e0       	ldi	r25, 0x00	; 0
    3142:	01 96       	adiw	r24, 0x01	; 1
    3144:	22 0f       	add	r18, r18
    3146:	33 1f       	adc	r19, r19
    3148:	22 95       	swap	r18
    314a:	32 95       	swap	r19
    314c:	30 7f       	andi	r19, 0xF0	; 240
    314e:	32 27       	eor	r19, r18
    3150:	20 7f       	andi	r18, 0xF0	; 240
    3152:	32 27       	eor	r19, r18
    3154:	82 0f       	add	r24, r18
    3156:	93 1f       	adc	r25, r19
    3158:	80 55       	subi	r24, 0x50	; 80
    315a:	9d 4f       	sbci	r25, 0xFD	; 253
    315c:	fc 01       	movw	r30, r24
    315e:	40 81       	ld	r20, Z
    3160:	80 91 74 08 	lds	r24, 0x0874	; 0x800874 <cur_col>
    3164:	28 2f       	mov	r18, r24
    3166:	30 e0       	ldi	r19, 0x00	; 0
    3168:	8f 81       	ldd	r24, Y+7	; 0x07
    316a:	98 85       	ldd	r25, Y+8	; 0x08
    316c:	b9 01       	movw	r22, r18
    316e:	68 1b       	sub	r22, r24
    3170:	79 0b       	sbc	r23, r25
    3172:	cb 01       	movw	r24, r22
    3174:	88 0f       	add	r24, r24
    3176:	99 1f       	adc	r25, r25
    3178:	88 0f       	add	r24, r24
    317a:	99 1f       	adc	r25, r25
    317c:	8f 5f       	subi	r24, 0xFF	; 255
    317e:	9e 4f       	sbci	r25, 0xFE	; 254
    3180:	dc 01       	movw	r26, r24
    3182:	8c 91       	ld	r24, X
    3184:	94 2f       	mov	r25, r20
    3186:	98 23       	and	r25, r24
    3188:	80 91 31 04 	lds	r24, 0x0431	; 0x800431 <game_over>
    318c:	89 2b       	or	r24, r25
    318e:	80 93 31 04 	sts	0x0431, r24	; 0x800431 <game_over>
    3192:	80 91 74 08 	lds	r24, 0x0874	; 0x800874 <cur_col>
    3196:	28 2f       	mov	r18, r24
    3198:	30 e0       	ldi	r19, 0x00	; 0
    319a:	8f 81       	ldd	r24, Y+7	; 0x07
    319c:	98 85       	ldd	r25, Y+8	; 0x08
    319e:	28 1b       	sub	r18, r24
    31a0:	39 0b       	sbc	r19, r25
    31a2:	80 91 73 08 	lds	r24, 0x0873	; 0x800873 <cur_line>
    31a6:	88 2f       	mov	r24, r24
    31a8:	90 e0       	ldi	r25, 0x00	; 0
    31aa:	02 96       	adiw	r24, 0x02	; 2
    31ac:	22 0f       	add	r18, r18
    31ae:	33 1f       	adc	r19, r19
    31b0:	22 95       	swap	r18
    31b2:	32 95       	swap	r19
    31b4:	30 7f       	andi	r19, 0xF0	; 240
    31b6:	32 27       	eor	r19, r18
    31b8:	20 7f       	andi	r18, 0xF0	; 240
    31ba:	32 27       	eor	r19, r18
    31bc:	82 0f       	add	r24, r18
    31be:	93 1f       	adc	r25, r19
    31c0:	80 55       	subi	r24, 0x50	; 80
    31c2:	9d 4f       	sbci	r25, 0xFD	; 253
    31c4:	fc 01       	movw	r30, r24
    31c6:	40 81       	ld	r20, Z
    31c8:	80 91 74 08 	lds	r24, 0x0874	; 0x800874 <cur_col>
    31cc:	28 2f       	mov	r18, r24
    31ce:	30 e0       	ldi	r19, 0x00	; 0
    31d0:	8f 81       	ldd	r24, Y+7	; 0x07
    31d2:	98 85       	ldd	r25, Y+8	; 0x08
    31d4:	b9 01       	movw	r22, r18
    31d6:	68 1b       	sub	r22, r24
    31d8:	79 0b       	sbc	r23, r25
    31da:	cb 01       	movw	r24, r22
    31dc:	88 0f       	add	r24, r24
    31de:	99 1f       	adc	r25, r25
    31e0:	88 0f       	add	r24, r24
    31e2:	99 1f       	adc	r25, r25
    31e4:	8e 5f       	subi	r24, 0xFE	; 254
    31e6:	9e 4f       	sbci	r25, 0xFE	; 254
    31e8:	dc 01       	movw	r26, r24
    31ea:	8c 91       	ld	r24, X
    31ec:	94 2f       	mov	r25, r20
    31ee:	98 23       	and	r25, r24
    31f0:	80 91 31 04 	lds	r24, 0x0431	; 0x800431 <game_over>
    31f4:	89 2b       	or	r24, r25
    31f6:	80 93 31 04 	sts	0x0431, r24	; 0x800431 <game_over>
    31fa:	80 91 74 08 	lds	r24, 0x0874	; 0x800874 <cur_col>
    31fe:	28 2f       	mov	r18, r24
    3200:	30 e0       	ldi	r19, 0x00	; 0
    3202:	8f 81       	ldd	r24, Y+7	; 0x07
    3204:	98 85       	ldd	r25, Y+8	; 0x08
    3206:	28 1b       	sub	r18, r24
    3208:	39 0b       	sbc	r19, r25
    320a:	80 91 73 08 	lds	r24, 0x0873	; 0x800873 <cur_line>
    320e:	88 2f       	mov	r24, r24
    3210:	90 e0       	ldi	r25, 0x00	; 0
    3212:	03 96       	adiw	r24, 0x03	; 3
    3214:	22 0f       	add	r18, r18
    3216:	33 1f       	adc	r19, r19
    3218:	22 95       	swap	r18
    321a:	32 95       	swap	r19
    321c:	30 7f       	andi	r19, 0xF0	; 240
    321e:	32 27       	eor	r19, r18
    3220:	20 7f       	andi	r18, 0xF0	; 240
    3222:	32 27       	eor	r19, r18
    3224:	82 0f       	add	r24, r18
    3226:	93 1f       	adc	r25, r19
    3228:	80 55       	subi	r24, 0x50	; 80
    322a:	9d 4f       	sbci	r25, 0xFD	; 253
    322c:	fc 01       	movw	r30, r24
    322e:	40 81       	ld	r20, Z
    3230:	80 91 74 08 	lds	r24, 0x0874	; 0x800874 <cur_col>
    3234:	28 2f       	mov	r18, r24
    3236:	30 e0       	ldi	r19, 0x00	; 0
    3238:	8f 81       	ldd	r24, Y+7	; 0x07
    323a:	98 85       	ldd	r25, Y+8	; 0x08
    323c:	b9 01       	movw	r22, r18
    323e:	68 1b       	sub	r22, r24
    3240:	79 0b       	sbc	r23, r25
    3242:	cb 01       	movw	r24, r22
    3244:	88 0f       	add	r24, r24
    3246:	99 1f       	adc	r25, r25
    3248:	88 0f       	add	r24, r24
    324a:	99 1f       	adc	r25, r25
    324c:	8d 5f       	subi	r24, 0xFD	; 253
    324e:	9e 4f       	sbci	r25, 0xFE	; 254
    3250:	dc 01       	movw	r26, r24
    3252:	8c 91       	ld	r24, X
    3254:	94 2f       	mov	r25, r20
    3256:	98 23       	and	r25, r24
    3258:	80 91 31 04 	lds	r24, 0x0431	; 0x800431 <game_over>
    325c:	89 2b       	or	r24, r25
    325e:	80 93 31 04 	sts	0x0431, r24	; 0x800431 <game_over>
    3262:	8f 81       	ldd	r24, Y+7	; 0x07
    3264:	98 85       	ldd	r25, Y+8	; 0x08
    3266:	01 96       	adiw	r24, 0x01	; 1
    3268:	98 87       	std	Y+8, r25	; 0x08
    326a:	8f 83       	std	Y+7, r24	; 0x07
    326c:	8f 81       	ldd	r24, Y+7	; 0x07
    326e:	98 85       	ldd	r25, Y+8	; 0x08
    3270:	04 97       	sbiw	r24, 0x04	; 4
    3272:	0c f4       	brge	.+2      	; 0x3276 <NewTetriminos+0x40a>
    3274:	27 cf       	rjmp	.-434    	; 0x30c4 <NewTetriminos+0x258>
    3276:	1a 86       	std	Y+10, r1	; 0x0a
    3278:	19 86       	std	Y+9, r1	; 0x09
    327a:	62 c1       	rjmp	.+708    	; 0x3540 <NewTetriminos+0x6d4>
    327c:	80 91 74 08 	lds	r24, 0x0874	; 0x800874 <cur_col>
    3280:	28 2f       	mov	r18, r24
    3282:	30 e0       	ldi	r19, 0x00	; 0
    3284:	89 85       	ldd	r24, Y+9	; 0x09
    3286:	9a 85       	ldd	r25, Y+10	; 0x0a
    3288:	f9 01       	movw	r30, r18
    328a:	e8 1b       	sub	r30, r24
    328c:	f9 0b       	sbc	r31, r25
    328e:	cf 01       	movw	r24, r30
    3290:	18 16       	cp	r1, r24
    3292:	19 06       	cpc	r1, r25
    3294:	0c f0       	brlt	.+2      	; 0x3298 <NewTetriminos+0x42c>
    3296:	47 c0       	rjmp	.+142    	; 0x3326 <NewTetriminos+0x4ba>
    3298:	80 91 74 08 	lds	r24, 0x0874	; 0x800874 <cur_col>
    329c:	28 2f       	mov	r18, r24
    329e:	30 e0       	ldi	r19, 0x00	; 0
    32a0:	89 85       	ldd	r24, Y+9	; 0x09
    32a2:	9a 85       	ldd	r25, Y+10	; 0x0a
    32a4:	28 1b       	sub	r18, r24
    32a6:	39 0b       	sbc	r19, r25
    32a8:	80 91 73 08 	lds	r24, 0x0873	; 0x800873 <cur_line>
    32ac:	88 2f       	mov	r24, r24
    32ae:	90 e0       	ldi	r25, 0x00	; 0
    32b0:	40 91 74 08 	lds	r20, 0x0874	; 0x800874 <cur_col>
    32b4:	64 2f       	mov	r22, r20
    32b6:	70 e0       	ldi	r23, 0x00	; 0
    32b8:	49 85       	ldd	r20, Y+9	; 0x09
    32ba:	5a 85       	ldd	r21, Y+10	; 0x0a
    32bc:	64 1b       	sub	r22, r20
    32be:	75 0b       	sbc	r23, r21
    32c0:	40 91 73 08 	lds	r20, 0x0873	; 0x800873 <cur_line>
    32c4:	44 2f       	mov	r20, r20
    32c6:	50 e0       	ldi	r21, 0x00	; 0
    32c8:	66 0f       	add	r22, r22
    32ca:	77 1f       	adc	r23, r23
    32cc:	62 95       	swap	r22
    32ce:	72 95       	swap	r23
    32d0:	70 7f       	andi	r23, 0xF0	; 240
    32d2:	76 27       	eor	r23, r22
    32d4:	60 7f       	andi	r22, 0xF0	; 240
    32d6:	76 27       	eor	r23, r22
    32d8:	46 0f       	add	r20, r22
    32da:	57 1f       	adc	r21, r23
    32dc:	40 55       	subi	r20, 0x50	; 80
    32de:	5d 4f       	sbci	r21, 0xFD	; 253
    32e0:	da 01       	movw	r26, r20
    32e2:	ec 91       	ld	r30, X
    32e4:	40 91 74 08 	lds	r20, 0x0874	; 0x800874 <cur_col>
    32e8:	64 2f       	mov	r22, r20
    32ea:	70 e0       	ldi	r23, 0x00	; 0
    32ec:	49 85       	ldd	r20, Y+9	; 0x09
    32ee:	5a 85       	ldd	r21, Y+10	; 0x0a
    32f0:	db 01       	movw	r26, r22
    32f2:	a4 1b       	sub	r26, r20
    32f4:	b5 0b       	sbc	r27, r21
    32f6:	ad 01       	movw	r20, r26
    32f8:	44 0f       	add	r20, r20
    32fa:	55 1f       	adc	r21, r21
    32fc:	44 0f       	add	r20, r20
    32fe:	55 1f       	adc	r21, r21
    3300:	40 50       	subi	r20, 0x00	; 0
    3302:	5f 4f       	sbci	r21, 0xFF	; 255
    3304:	da 01       	movw	r26, r20
    3306:	4c 91       	ld	r20, X
    3308:	4e 2b       	or	r20, r30
    330a:	22 0f       	add	r18, r18
    330c:	33 1f       	adc	r19, r19
    330e:	22 95       	swap	r18
    3310:	32 95       	swap	r19
    3312:	30 7f       	andi	r19, 0xF0	; 240
    3314:	32 27       	eor	r19, r18
    3316:	20 7f       	andi	r18, 0xF0	; 240
    3318:	32 27       	eor	r19, r18
    331a:	82 0f       	add	r24, r18
    331c:	93 1f       	adc	r25, r19
    331e:	80 55       	subi	r24, 0x50	; 80
    3320:	9d 4f       	sbci	r25, 0xFD	; 253
    3322:	fc 01       	movw	r30, r24
    3324:	40 83       	st	Z, r20
    3326:	80 91 74 08 	lds	r24, 0x0874	; 0x800874 <cur_col>
    332a:	28 2f       	mov	r18, r24
    332c:	30 e0       	ldi	r19, 0x00	; 0
    332e:	89 85       	ldd	r24, Y+9	; 0x09
    3330:	9a 85       	ldd	r25, Y+10	; 0x0a
    3332:	a9 01       	movw	r20, r18
    3334:	48 1b       	sub	r20, r24
    3336:	59 0b       	sbc	r21, r25
    3338:	ca 01       	movw	r24, r20
    333a:	18 16       	cp	r1, r24
    333c:	19 06       	cpc	r1, r25
    333e:	0c f0       	brlt	.+2      	; 0x3342 <NewTetriminos+0x4d6>
    3340:	4a c0       	rjmp	.+148    	; 0x33d6 <NewTetriminos+0x56a>
    3342:	80 91 74 08 	lds	r24, 0x0874	; 0x800874 <cur_col>
    3346:	28 2f       	mov	r18, r24
    3348:	30 e0       	ldi	r19, 0x00	; 0
    334a:	89 85       	ldd	r24, Y+9	; 0x09
    334c:	9a 85       	ldd	r25, Y+10	; 0x0a
    334e:	28 1b       	sub	r18, r24
    3350:	39 0b       	sbc	r19, r25
    3352:	80 91 73 08 	lds	r24, 0x0873	; 0x800873 <cur_line>
    3356:	88 2f       	mov	r24, r24
    3358:	90 e0       	ldi	r25, 0x00	; 0
    335a:	01 96       	adiw	r24, 0x01	; 1
    335c:	40 91 74 08 	lds	r20, 0x0874	; 0x800874 <cur_col>
    3360:	64 2f       	mov	r22, r20
    3362:	70 e0       	ldi	r23, 0x00	; 0
    3364:	49 85       	ldd	r20, Y+9	; 0x09
    3366:	5a 85       	ldd	r21, Y+10	; 0x0a
    3368:	64 1b       	sub	r22, r20
    336a:	75 0b       	sbc	r23, r21
    336c:	40 91 73 08 	lds	r20, 0x0873	; 0x800873 <cur_line>
    3370:	44 2f       	mov	r20, r20
    3372:	50 e0       	ldi	r21, 0x00	; 0
    3374:	4f 5f       	subi	r20, 0xFF	; 255
    3376:	5f 4f       	sbci	r21, 0xFF	; 255
    3378:	66 0f       	add	r22, r22
    337a:	77 1f       	adc	r23, r23
    337c:	62 95       	swap	r22
    337e:	72 95       	swap	r23
    3380:	70 7f       	andi	r23, 0xF0	; 240
    3382:	76 27       	eor	r23, r22
    3384:	60 7f       	andi	r22, 0xF0	; 240
    3386:	76 27       	eor	r23, r22
    3388:	46 0f       	add	r20, r22
    338a:	57 1f       	adc	r21, r23
    338c:	40 55       	subi	r20, 0x50	; 80
    338e:	5d 4f       	sbci	r21, 0xFD	; 253
    3390:	da 01       	movw	r26, r20
    3392:	ec 91       	ld	r30, X
    3394:	40 91 74 08 	lds	r20, 0x0874	; 0x800874 <cur_col>
    3398:	64 2f       	mov	r22, r20
    339a:	70 e0       	ldi	r23, 0x00	; 0
    339c:	49 85       	ldd	r20, Y+9	; 0x09
    339e:	5a 85       	ldd	r21, Y+10	; 0x0a
    33a0:	db 01       	movw	r26, r22
    33a2:	a4 1b       	sub	r26, r20
    33a4:	b5 0b       	sbc	r27, r21
    33a6:	ad 01       	movw	r20, r26
    33a8:	44 0f       	add	r20, r20
    33aa:	55 1f       	adc	r21, r21
    33ac:	44 0f       	add	r20, r20
    33ae:	55 1f       	adc	r21, r21
    33b0:	4f 5f       	subi	r20, 0xFF	; 255
    33b2:	5e 4f       	sbci	r21, 0xFE	; 254
    33b4:	da 01       	movw	r26, r20
    33b6:	4c 91       	ld	r20, X
    33b8:	4e 2b       	or	r20, r30
    33ba:	22 0f       	add	r18, r18
    33bc:	33 1f       	adc	r19, r19
    33be:	22 95       	swap	r18
    33c0:	32 95       	swap	r19
    33c2:	30 7f       	andi	r19, 0xF0	; 240
    33c4:	32 27       	eor	r19, r18
    33c6:	20 7f       	andi	r18, 0xF0	; 240
    33c8:	32 27       	eor	r19, r18
    33ca:	82 0f       	add	r24, r18
    33cc:	93 1f       	adc	r25, r19
    33ce:	80 55       	subi	r24, 0x50	; 80
    33d0:	9d 4f       	sbci	r25, 0xFD	; 253
    33d2:	fc 01       	movw	r30, r24
    33d4:	40 83       	st	Z, r20
    33d6:	80 91 74 08 	lds	r24, 0x0874	; 0x800874 <cur_col>
    33da:	28 2f       	mov	r18, r24
    33dc:	30 e0       	ldi	r19, 0x00	; 0
    33de:	89 85       	ldd	r24, Y+9	; 0x09
    33e0:	9a 85       	ldd	r25, Y+10	; 0x0a
    33e2:	a9 01       	movw	r20, r18
    33e4:	48 1b       	sub	r20, r24
    33e6:	59 0b       	sbc	r21, r25
    33e8:	ca 01       	movw	r24, r20
    33ea:	18 16       	cp	r1, r24
    33ec:	19 06       	cpc	r1, r25
    33ee:	0c f0       	brlt	.+2      	; 0x33f2 <NewTetriminos+0x586>
    33f0:	4a c0       	rjmp	.+148    	; 0x3486 <NewTetriminos+0x61a>
    33f2:	80 91 74 08 	lds	r24, 0x0874	; 0x800874 <cur_col>
    33f6:	28 2f       	mov	r18, r24
    33f8:	30 e0       	ldi	r19, 0x00	; 0
    33fa:	89 85       	ldd	r24, Y+9	; 0x09
    33fc:	9a 85       	ldd	r25, Y+10	; 0x0a
    33fe:	28 1b       	sub	r18, r24
    3400:	39 0b       	sbc	r19, r25
    3402:	80 91 73 08 	lds	r24, 0x0873	; 0x800873 <cur_line>
    3406:	88 2f       	mov	r24, r24
    3408:	90 e0       	ldi	r25, 0x00	; 0
    340a:	02 96       	adiw	r24, 0x02	; 2
    340c:	40 91 74 08 	lds	r20, 0x0874	; 0x800874 <cur_col>
    3410:	64 2f       	mov	r22, r20
    3412:	70 e0       	ldi	r23, 0x00	; 0
    3414:	49 85       	ldd	r20, Y+9	; 0x09
    3416:	5a 85       	ldd	r21, Y+10	; 0x0a
    3418:	64 1b       	sub	r22, r20
    341a:	75 0b       	sbc	r23, r21
    341c:	40 91 73 08 	lds	r20, 0x0873	; 0x800873 <cur_line>
    3420:	44 2f       	mov	r20, r20
    3422:	50 e0       	ldi	r21, 0x00	; 0
    3424:	4e 5f       	subi	r20, 0xFE	; 254
    3426:	5f 4f       	sbci	r21, 0xFF	; 255
    3428:	66 0f       	add	r22, r22
    342a:	77 1f       	adc	r23, r23
    342c:	62 95       	swap	r22
    342e:	72 95       	swap	r23
    3430:	70 7f       	andi	r23, 0xF0	; 240
    3432:	76 27       	eor	r23, r22
    3434:	60 7f       	andi	r22, 0xF0	; 240
    3436:	76 27       	eor	r23, r22
    3438:	46 0f       	add	r20, r22
    343a:	57 1f       	adc	r21, r23
    343c:	40 55       	subi	r20, 0x50	; 80
    343e:	5d 4f       	sbci	r21, 0xFD	; 253
    3440:	da 01       	movw	r26, r20
    3442:	ec 91       	ld	r30, X
    3444:	40 91 74 08 	lds	r20, 0x0874	; 0x800874 <cur_col>
    3448:	64 2f       	mov	r22, r20
    344a:	70 e0       	ldi	r23, 0x00	; 0
    344c:	49 85       	ldd	r20, Y+9	; 0x09
    344e:	5a 85       	ldd	r21, Y+10	; 0x0a
    3450:	db 01       	movw	r26, r22
    3452:	a4 1b       	sub	r26, r20
    3454:	b5 0b       	sbc	r27, r21
    3456:	ad 01       	movw	r20, r26
    3458:	44 0f       	add	r20, r20
    345a:	55 1f       	adc	r21, r21
    345c:	44 0f       	add	r20, r20
    345e:	55 1f       	adc	r21, r21
    3460:	4e 5f       	subi	r20, 0xFE	; 254
    3462:	5e 4f       	sbci	r21, 0xFE	; 254
    3464:	da 01       	movw	r26, r20
    3466:	4c 91       	ld	r20, X
    3468:	4e 2b       	or	r20, r30
    346a:	22 0f       	add	r18, r18
    346c:	33 1f       	adc	r19, r19
    346e:	22 95       	swap	r18
    3470:	32 95       	swap	r19
    3472:	30 7f       	andi	r19, 0xF0	; 240
    3474:	32 27       	eor	r19, r18
    3476:	20 7f       	andi	r18, 0xF0	; 240
    3478:	32 27       	eor	r19, r18
    347a:	82 0f       	add	r24, r18
    347c:	93 1f       	adc	r25, r19
    347e:	80 55       	subi	r24, 0x50	; 80
    3480:	9d 4f       	sbci	r25, 0xFD	; 253
    3482:	fc 01       	movw	r30, r24
    3484:	40 83       	st	Z, r20
    3486:	80 91 74 08 	lds	r24, 0x0874	; 0x800874 <cur_col>
    348a:	28 2f       	mov	r18, r24
    348c:	30 e0       	ldi	r19, 0x00	; 0
    348e:	89 85       	ldd	r24, Y+9	; 0x09
    3490:	9a 85       	ldd	r25, Y+10	; 0x0a
    3492:	a9 01       	movw	r20, r18
    3494:	48 1b       	sub	r20, r24
    3496:	59 0b       	sbc	r21, r25
    3498:	ca 01       	movw	r24, r20
    349a:	18 16       	cp	r1, r24
    349c:	19 06       	cpc	r1, r25
    349e:	0c f0       	brlt	.+2      	; 0x34a2 <NewTetriminos+0x636>
    34a0:	4a c0       	rjmp	.+148    	; 0x3536 <NewTetriminos+0x6ca>
    34a2:	80 91 74 08 	lds	r24, 0x0874	; 0x800874 <cur_col>
    34a6:	28 2f       	mov	r18, r24
    34a8:	30 e0       	ldi	r19, 0x00	; 0
    34aa:	89 85       	ldd	r24, Y+9	; 0x09
    34ac:	9a 85       	ldd	r25, Y+10	; 0x0a
    34ae:	28 1b       	sub	r18, r24
    34b0:	39 0b       	sbc	r19, r25
    34b2:	80 91 73 08 	lds	r24, 0x0873	; 0x800873 <cur_line>
    34b6:	88 2f       	mov	r24, r24
    34b8:	90 e0       	ldi	r25, 0x00	; 0
    34ba:	03 96       	adiw	r24, 0x03	; 3
    34bc:	40 91 74 08 	lds	r20, 0x0874	; 0x800874 <cur_col>
    34c0:	64 2f       	mov	r22, r20
    34c2:	70 e0       	ldi	r23, 0x00	; 0
    34c4:	49 85       	ldd	r20, Y+9	; 0x09
    34c6:	5a 85       	ldd	r21, Y+10	; 0x0a
    34c8:	64 1b       	sub	r22, r20
    34ca:	75 0b       	sbc	r23, r21
    34cc:	40 91 73 08 	lds	r20, 0x0873	; 0x800873 <cur_line>
    34d0:	44 2f       	mov	r20, r20
    34d2:	50 e0       	ldi	r21, 0x00	; 0
    34d4:	4d 5f       	subi	r20, 0xFD	; 253
    34d6:	5f 4f       	sbci	r21, 0xFF	; 255
    34d8:	66 0f       	add	r22, r22
    34da:	77 1f       	adc	r23, r23
    34dc:	62 95       	swap	r22
    34de:	72 95       	swap	r23
    34e0:	70 7f       	andi	r23, 0xF0	; 240
    34e2:	76 27       	eor	r23, r22
    34e4:	60 7f       	andi	r22, 0xF0	; 240
    34e6:	76 27       	eor	r23, r22
    34e8:	46 0f       	add	r20, r22
    34ea:	57 1f       	adc	r21, r23
    34ec:	40 55       	subi	r20, 0x50	; 80
    34ee:	5d 4f       	sbci	r21, 0xFD	; 253
    34f0:	da 01       	movw	r26, r20
    34f2:	ec 91       	ld	r30, X
    34f4:	40 91 74 08 	lds	r20, 0x0874	; 0x800874 <cur_col>
    34f8:	64 2f       	mov	r22, r20
    34fa:	70 e0       	ldi	r23, 0x00	; 0
    34fc:	49 85       	ldd	r20, Y+9	; 0x09
    34fe:	5a 85       	ldd	r21, Y+10	; 0x0a
    3500:	db 01       	movw	r26, r22
    3502:	a4 1b       	sub	r26, r20
    3504:	b5 0b       	sbc	r27, r21
    3506:	ad 01       	movw	r20, r26
    3508:	44 0f       	add	r20, r20
    350a:	55 1f       	adc	r21, r21
    350c:	44 0f       	add	r20, r20
    350e:	55 1f       	adc	r21, r21
    3510:	4d 5f       	subi	r20, 0xFD	; 253
    3512:	5e 4f       	sbci	r21, 0xFE	; 254
    3514:	da 01       	movw	r26, r20
    3516:	4c 91       	ld	r20, X
    3518:	4e 2b       	or	r20, r30
    351a:	22 0f       	add	r18, r18
    351c:	33 1f       	adc	r19, r19
    351e:	22 95       	swap	r18
    3520:	32 95       	swap	r19
    3522:	30 7f       	andi	r19, 0xF0	; 240
    3524:	32 27       	eor	r19, r18
    3526:	20 7f       	andi	r18, 0xF0	; 240
    3528:	32 27       	eor	r19, r18
    352a:	82 0f       	add	r24, r18
    352c:	93 1f       	adc	r25, r19
    352e:	80 55       	subi	r24, 0x50	; 80
    3530:	9d 4f       	sbci	r25, 0xFD	; 253
    3532:	fc 01       	movw	r30, r24
    3534:	40 83       	st	Z, r20
    3536:	89 85       	ldd	r24, Y+9	; 0x09
    3538:	9a 85       	ldd	r25, Y+10	; 0x0a
    353a:	01 96       	adiw	r24, 0x01	; 1
    353c:	9a 87       	std	Y+10, r25	; 0x0a
    353e:	89 87       	std	Y+9, r24	; 0x09
    3540:	89 85       	ldd	r24, Y+9	; 0x09
    3542:	9a 85       	ldd	r25, Y+10	; 0x0a
    3544:	04 97       	sbiw	r24, 0x04	; 4
    3546:	0c f4       	brge	.+2      	; 0x354a <NewTetriminos+0x6de>
    3548:	99 ce       	rjmp	.-718    	; 0x327c <NewTetriminos+0x410>
    354a:	00 00       	nop
    354c:	2a 96       	adiw	r28, 0x0a	; 10
    354e:	0f b6       	in	r0, 0x3f	; 63
    3550:	f8 94       	cli
    3552:	de bf       	out	0x3e, r29	; 62
    3554:	0f be       	out	0x3f, r0	; 63
    3556:	cd bf       	out	0x3d, r28	; 61
    3558:	df 91       	pop	r29
    355a:	cf 91       	pop	r28
    355c:	08 95       	ret

0000355e <NextTetriminos>:
    355e:	cf 93       	push	r28
    3560:	df 93       	push	r29
    3562:	cd b7       	in	r28, 0x3d	; 61
    3564:	de b7       	in	r29, 0x3e	; 62
    3566:	cd 50       	subi	r28, 0x0D	; 13
    3568:	d1 40       	sbci	r29, 0x01	; 1
    356a:	0f b6       	in	r0, 0x3f	; 63
    356c:	f8 94       	cli
    356e:	de bf       	out	0x3e, r29	; 62
    3570:	0f be       	out	0x3f, r0	; 63
    3572:	cd bf       	out	0x3d, r28	; 61
    3574:	1a 82       	std	Y+2, r1	; 0x02
    3576:	19 82       	std	Y+1, r1	; 0x01
    3578:	22 c0       	rjmp	.+68     	; 0x35be <NextTetriminos+0x60>
    357a:	1c 82       	std	Y+4, r1	; 0x04
    357c:	1b 82       	std	Y+3, r1	; 0x03
    357e:	16 c0       	rjmp	.+44     	; 0x35ac <NextTetriminos+0x4e>
    3580:	89 81       	ldd	r24, Y+1	; 0x01
    3582:	9a 81       	ldd	r25, Y+2	; 0x02
    3584:	9c 01       	movw	r18, r24
    3586:	22 0f       	add	r18, r18
    3588:	33 1f       	adc	r19, r19
    358a:	22 0f       	add	r18, r18
    358c:	33 1f       	adc	r19, r19
    358e:	22 0f       	add	r18, r18
    3590:	33 1f       	adc	r19, r19
    3592:	8b 81       	ldd	r24, Y+3	; 0x03
    3594:	9c 81       	ldd	r25, Y+4	; 0x04
    3596:	82 0f       	add	r24, r18
    3598:	93 1f       	adc	r25, r19
    359a:	8d 5c       	subi	r24, 0xCD	; 205
    359c:	9b 4f       	sbci	r25, 0xFB	; 251
    359e:	fc 01       	movw	r30, r24
    35a0:	10 82       	st	Z, r1
    35a2:	8b 81       	ldd	r24, Y+3	; 0x03
    35a4:	9c 81       	ldd	r25, Y+4	; 0x04
    35a6:	01 96       	adiw	r24, 0x01	; 1
    35a8:	9c 83       	std	Y+4, r25	; 0x04
    35aa:	8b 83       	std	Y+3, r24	; 0x03
    35ac:	8b 81       	ldd	r24, Y+3	; 0x03
    35ae:	9c 81       	ldd	r25, Y+4	; 0x04
    35b0:	08 97       	sbiw	r24, 0x08	; 8
    35b2:	34 f3       	brlt	.-52     	; 0x3580 <NextTetriminos+0x22>
    35b4:	89 81       	ldd	r24, Y+1	; 0x01
    35b6:	9a 81       	ldd	r25, Y+2	; 0x02
    35b8:	01 96       	adiw	r24, 0x01	; 1
    35ba:	9a 83       	std	Y+2, r25	; 0x02
    35bc:	89 83       	std	Y+1, r24	; 0x01
    35be:	89 81       	ldd	r24, Y+1	; 0x01
    35c0:	9a 81       	ldd	r25, Y+2	; 0x02
    35c2:	08 97       	sbiw	r24, 0x08	; 8
    35c4:	d4 f2       	brlt	.-76     	; 0x357a <NextTetriminos+0x1c>
    35c6:	1e 82       	std	Y+6, r1	; 0x06
    35c8:	1d 82       	std	Y+5, r1	; 0x05
    35ca:	83 c0       	rjmp	.+262    	; 0x36d2 <NextTetriminos+0x174>
    35cc:	8d 81       	ldd	r24, Y+5	; 0x05
    35ce:	9e 81       	ldd	r25, Y+6	; 0x06
    35d0:	02 96       	adiw	r24, 0x02	; 2
    35d2:	20 91 32 04 	lds	r18, 0x0432	; 0x800432 <next_block>
    35d6:	22 2f       	mov	r18, r18
    35d8:	30 e0       	ldi	r19, 0x00	; 0
    35da:	4c e8       	ldi	r20, 0x8C	; 140
    35dc:	50 e0       	ldi	r21, 0x00	; 0
    35de:	00 24       	eor	r0, r0
    35e0:	36 95       	lsr	r19
    35e2:	27 95       	ror	r18
    35e4:	07 94       	ror	r0
    35e6:	36 95       	lsr	r19
    35e8:	27 95       	ror	r18
    35ea:	07 94       	ror	r0
    35ec:	32 2f       	mov	r19, r18
    35ee:	20 2d       	mov	r18, r0
    35f0:	42 0f       	add	r20, r18
    35f2:	53 1f       	adc	r21, r19
    35f4:	2d 81       	ldd	r18, Y+5	; 0x05
    35f6:	3e 81       	ldd	r19, Y+6	; 0x06
    35f8:	24 0f       	add	r18, r20
    35fa:	35 1f       	adc	r19, r21
    35fc:	f9 01       	movw	r30, r18
    35fe:	24 91       	lpm	r18, Z
    3600:	8d 5b       	subi	r24, 0xBD	; 189
    3602:	9b 4f       	sbci	r25, 0xFB	; 251
    3604:	fc 01       	movw	r30, r24
    3606:	20 83       	st	Z, r18
    3608:	8d 81       	ldd	r24, Y+5	; 0x05
    360a:	9e 81       	ldd	r25, Y+6	; 0x06
    360c:	02 96       	adiw	r24, 0x02	; 2
    360e:	20 91 32 04 	lds	r18, 0x0432	; 0x800432 <next_block>
    3612:	42 2f       	mov	r20, r18
    3614:	50 e0       	ldi	r21, 0x00	; 0
    3616:	2d 81       	ldd	r18, Y+5	; 0x05
    3618:	3e 81       	ldd	r19, Y+6	; 0x06
    361a:	2c 5f       	subi	r18, 0xFC	; 252
    361c:	3f 4f       	sbci	r19, 0xFF	; 255
    361e:	6c e8       	ldi	r22, 0x8C	; 140
    3620:	70 e0       	ldi	r23, 0x00	; 0
    3622:	00 24       	eor	r0, r0
    3624:	56 95       	lsr	r21
    3626:	47 95       	ror	r20
    3628:	07 94       	ror	r0
    362a:	56 95       	lsr	r21
    362c:	47 95       	ror	r20
    362e:	07 94       	ror	r0
    3630:	54 2f       	mov	r21, r20
    3632:	40 2d       	mov	r20, r0
    3634:	46 0f       	add	r20, r22
    3636:	57 1f       	adc	r21, r23
    3638:	24 0f       	add	r18, r20
    363a:	35 1f       	adc	r19, r21
    363c:	f9 01       	movw	r30, r18
    363e:	24 91       	lpm	r18, Z
    3640:	85 5b       	subi	r24, 0xB5	; 181
    3642:	9b 4f       	sbci	r25, 0xFB	; 251
    3644:	fc 01       	movw	r30, r24
    3646:	20 83       	st	Z, r18
    3648:	8d 81       	ldd	r24, Y+5	; 0x05
    364a:	9e 81       	ldd	r25, Y+6	; 0x06
    364c:	02 96       	adiw	r24, 0x02	; 2
    364e:	20 91 32 04 	lds	r18, 0x0432	; 0x800432 <next_block>
    3652:	42 2f       	mov	r20, r18
    3654:	50 e0       	ldi	r21, 0x00	; 0
    3656:	2d 81       	ldd	r18, Y+5	; 0x05
    3658:	3e 81       	ldd	r19, Y+6	; 0x06
    365a:	28 5f       	subi	r18, 0xF8	; 248
    365c:	3f 4f       	sbci	r19, 0xFF	; 255
    365e:	6c e8       	ldi	r22, 0x8C	; 140
    3660:	70 e0       	ldi	r23, 0x00	; 0
    3662:	00 24       	eor	r0, r0
    3664:	56 95       	lsr	r21
    3666:	47 95       	ror	r20
    3668:	07 94       	ror	r0
    366a:	56 95       	lsr	r21
    366c:	47 95       	ror	r20
    366e:	07 94       	ror	r0
    3670:	54 2f       	mov	r21, r20
    3672:	40 2d       	mov	r20, r0
    3674:	46 0f       	add	r20, r22
    3676:	57 1f       	adc	r21, r23
    3678:	24 0f       	add	r18, r20
    367a:	35 1f       	adc	r19, r21
    367c:	f9 01       	movw	r30, r18
    367e:	24 91       	lpm	r18, Z
    3680:	8d 5a       	subi	r24, 0xAD	; 173
    3682:	9b 4f       	sbci	r25, 0xFB	; 251
    3684:	fc 01       	movw	r30, r24
    3686:	20 83       	st	Z, r18
    3688:	8d 81       	ldd	r24, Y+5	; 0x05
    368a:	9e 81       	ldd	r25, Y+6	; 0x06
    368c:	02 96       	adiw	r24, 0x02	; 2
    368e:	20 91 32 04 	lds	r18, 0x0432	; 0x800432 <next_block>
    3692:	42 2f       	mov	r20, r18
    3694:	50 e0       	ldi	r21, 0x00	; 0
    3696:	2d 81       	ldd	r18, Y+5	; 0x05
    3698:	3e 81       	ldd	r19, Y+6	; 0x06
    369a:	24 5f       	subi	r18, 0xF4	; 244
    369c:	3f 4f       	sbci	r19, 0xFF	; 255
    369e:	6c e8       	ldi	r22, 0x8C	; 140
    36a0:	70 e0       	ldi	r23, 0x00	; 0
    36a2:	00 24       	eor	r0, r0
    36a4:	56 95       	lsr	r21
    36a6:	47 95       	ror	r20
    36a8:	07 94       	ror	r0
    36aa:	56 95       	lsr	r21
    36ac:	47 95       	ror	r20
    36ae:	07 94       	ror	r0
    36b0:	54 2f       	mov	r21, r20
    36b2:	40 2d       	mov	r20, r0
    36b4:	46 0f       	add	r20, r22
    36b6:	57 1f       	adc	r21, r23
    36b8:	24 0f       	add	r18, r20
    36ba:	35 1f       	adc	r19, r21
    36bc:	f9 01       	movw	r30, r18
    36be:	24 91       	lpm	r18, Z
    36c0:	85 5a       	subi	r24, 0xA5	; 165
    36c2:	9b 4f       	sbci	r25, 0xFB	; 251
    36c4:	fc 01       	movw	r30, r24
    36c6:	20 83       	st	Z, r18
    36c8:	8d 81       	ldd	r24, Y+5	; 0x05
    36ca:	9e 81       	ldd	r25, Y+6	; 0x06
    36cc:	01 96       	adiw	r24, 0x01	; 1
    36ce:	9e 83       	std	Y+6, r25	; 0x06
    36d0:	8d 83       	std	Y+5, r24	; 0x05
    36d2:	8d 81       	ldd	r24, Y+5	; 0x05
    36d4:	9e 81       	ldd	r25, Y+6	; 0x06
    36d6:	04 97       	sbiw	r24, 0x04	; 4
    36d8:	0c f4       	brge	.+2      	; 0x36dc <NextTetriminos+0x17e>
    36da:	78 cf       	rjmp	.-272    	; 0x35cc <NextTetriminos+0x6e>
    36dc:	20 e0       	ldi	r18, 0x00	; 0
    36de:	31 e0       	ldi	r19, 0x01	; 1
    36e0:	ce 01       	movw	r24, r28
    36e2:	0e 96       	adiw	r24, 0x0e	; 14
    36e4:	fc 01       	movw	r30, r24
    36e6:	a9 01       	movw	r20, r18
    36e8:	11 92       	st	Z+, r1
    36ea:	41 50       	subi	r20, 0x01	; 1
    36ec:	50 40       	sbci	r21, 0x00	; 0
    36ee:	e1 f7       	brne	.-8      	; 0x36e8 <NextTetriminos+0x18a>
    36f0:	8f ef       	ldi	r24, 0xFF	; 255
    36f2:	88 8b       	std	Y+16, r24	; 0x10
    36f4:	ce 01       	movw	r24, r28
    36f6:	80 57       	subi	r24, 0x70	; 112
    36f8:	9f 4f       	sbci	r25, 0xFF	; 255
    36fa:	2f ef       	ldi	r18, 0xFF	; 255
    36fc:	fc 01       	movw	r30, r24
    36fe:	20 83       	st	Z, r18
    3700:	8f ef       	ldi	r24, 0xFF	; 255
    3702:	8f 8f       	std	Y+31, r24	; 0x1f
    3704:	ce 01       	movw	r24, r28
    3706:	81 56       	subi	r24, 0x61	; 97
    3708:	9f 4f       	sbci	r25, 0xFF	; 255
    370a:	2f ef       	ldi	r18, 0xFF	; 255
    370c:	fc 01       	movw	r30, r24
    370e:	20 83       	st	Z, r18
    3710:	82 e0       	ldi	r24, 0x02	; 2
    3712:	90 e0       	ldi	r25, 0x00	; 0
    3714:	98 87       	std	Y+8, r25	; 0x08
    3716:	8f 83       	std	Y+7, r24	; 0x07
    3718:	2d c0       	rjmp	.+90     	; 0x3774 <NextTetriminos+0x216>
    371a:	9e 01       	movw	r18, r28
    371c:	22 5f       	subi	r18, 0xF2	; 242
    371e:	3f 4f       	sbci	r19, 0xFF	; 255
    3720:	8f 81       	ldd	r24, Y+7	; 0x07
    3722:	98 85       	ldd	r25, Y+8	; 0x08
    3724:	82 0f       	add	r24, r18
    3726:	93 1f       	adc	r25, r19
    3728:	fc 01       	movw	r30, r24
    372a:	80 81       	ld	r24, Z
    372c:	48 2f       	mov	r20, r24
    372e:	41 60       	ori	r20, 0x01	; 1
    3730:	9e 01       	movw	r18, r28
    3732:	22 5f       	subi	r18, 0xF2	; 242
    3734:	3f 4f       	sbci	r19, 0xFF	; 255
    3736:	8f 81       	ldd	r24, Y+7	; 0x07
    3738:	98 85       	ldd	r25, Y+8	; 0x08
    373a:	82 0f       	add	r24, r18
    373c:	93 1f       	adc	r25, r19
    373e:	fc 01       	movw	r30, r24
    3740:	40 83       	st	Z, r20
    3742:	9e 01       	movw	r18, r28
    3744:	22 57       	subi	r18, 0x72	; 114
    3746:	3f 4f       	sbci	r19, 0xFF	; 255
    3748:	8f 81       	ldd	r24, Y+7	; 0x07
    374a:	98 85       	ldd	r25, Y+8	; 0x08
    374c:	82 0f       	add	r24, r18
    374e:	93 1f       	adc	r25, r19
    3750:	fc 01       	movw	r30, r24
    3752:	80 81       	ld	r24, Z
    3754:	48 2f       	mov	r20, r24
    3756:	40 68       	ori	r20, 0x80	; 128
    3758:	9e 01       	movw	r18, r28
    375a:	22 57       	subi	r18, 0x72	; 114
    375c:	3f 4f       	sbci	r19, 0xFF	; 255
    375e:	8f 81       	ldd	r24, Y+7	; 0x07
    3760:	98 85       	ldd	r25, Y+8	; 0x08
    3762:	82 0f       	add	r24, r18
    3764:	93 1f       	adc	r25, r19
    3766:	fc 01       	movw	r30, r24
    3768:	40 83       	st	Z, r20
    376a:	8f 81       	ldd	r24, Y+7	; 0x07
    376c:	98 85       	ldd	r25, Y+8	; 0x08
    376e:	01 96       	adiw	r24, 0x01	; 1
    3770:	98 87       	std	Y+8, r25	; 0x08
    3772:	8f 83       	std	Y+7, r24	; 0x07
    3774:	8f 81       	ldd	r24, Y+7	; 0x07
    3776:	98 85       	ldd	r25, Y+8	; 0x08
    3778:	42 97       	sbiw	r24, 0x12	; 18
    377a:	7c f2       	brlt	.-98     	; 0x371a <NextTetriminos+0x1bc>
    377c:	1a 86       	std	Y+10, r1	; 0x0a
    377e:	19 86       	std	Y+9, r1	; 0x09
    3780:	e4 c0       	rjmp	.+456    	; 0x394a <NextTetriminos+0x3ec>
    3782:	1c 86       	std	Y+12, r1	; 0x0c
    3784:	1b 86       	std	Y+11, r1	; 0x0b
    3786:	d7 c0       	rjmp	.+430    	; 0x3936 <NextTetriminos+0x3d8>
    3788:	89 85       	ldd	r24, Y+9	; 0x09
    378a:	9a 85       	ldd	r25, Y+10	; 0x0a
    378c:	9c 01       	movw	r18, r24
    378e:	22 0f       	add	r18, r18
    3790:	33 1f       	adc	r19, r19
    3792:	22 0f       	add	r18, r18
    3794:	33 1f       	adc	r19, r19
    3796:	22 0f       	add	r18, r18
    3798:	33 1f       	adc	r19, r19
    379a:	8b 85       	ldd	r24, Y+11	; 0x0b
    379c:	9c 85       	ldd	r25, Y+12	; 0x0c
    379e:	82 0f       	add	r24, r18
    37a0:	93 1f       	adc	r25, r19
    37a2:	8d 5c       	subi	r24, 0xCD	; 205
    37a4:	9b 4f       	sbci	r25, 0xFB	; 251
    37a6:	fc 01       	movw	r30, r24
    37a8:	80 81       	ld	r24, Z
    37aa:	81 30       	cpi	r24, 0x01	; 1
    37ac:	09 f0       	breq	.+2      	; 0x37b0 <NextTetriminos+0x252>
    37ae:	be c0       	rjmp	.+380    	; 0x392c <NextTetriminos+0x3ce>
    37b0:	8b 85       	ldd	r24, Y+11	; 0x0b
    37b2:	9c 85       	ldd	r25, Y+12	; 0x0c
    37b4:	04 97       	sbiw	r24, 0x04	; 4
    37b6:	0c f0       	brlt	.+2      	; 0x37ba <NextTetriminos+0x25c>
    37b8:	5d c0       	rjmp	.+186    	; 0x3874 <NextTetriminos+0x316>
    37ba:	89 85       	ldd	r24, Y+9	; 0x09
    37bc:	9a 85       	ldd	r25, Y+10	; 0x0a
    37be:	01 96       	adiw	r24, 0x01	; 1
    37c0:	88 0f       	add	r24, r24
    37c2:	99 1f       	adc	r25, r25
    37c4:	29 85       	ldd	r18, Y+9	; 0x09
    37c6:	3a 85       	ldd	r19, Y+10	; 0x0a
    37c8:	2f 5f       	subi	r18, 0xFF	; 255
    37ca:	3f 4f       	sbci	r19, 0xFF	; 255
    37cc:	22 0f       	add	r18, r18
    37ce:	33 1f       	adc	r19, r19
    37d0:	ae 01       	movw	r20, r28
    37d2:	42 57       	subi	r20, 0x72	; 114
    37d4:	5f 4f       	sbci	r21, 0xFF	; 255
    37d6:	24 0f       	add	r18, r20
    37d8:	35 1f       	adc	r19, r21
    37da:	f9 01       	movw	r30, r18
    37dc:	20 81       	ld	r18, Z
    37de:	62 2f       	mov	r22, r18
    37e0:	43 e0       	ldi	r20, 0x03	; 3
    37e2:	50 e0       	ldi	r21, 0x00	; 0
    37e4:	2b 85       	ldd	r18, Y+11	; 0x0b
    37e6:	3c 85       	ldd	r19, Y+12	; 0x0c
    37e8:	fa 01       	movw	r30, r20
    37ea:	e2 1b       	sub	r30, r18
    37ec:	f3 0b       	sbc	r31, r19
    37ee:	9f 01       	movw	r18, r30
    37f0:	a9 01       	movw	r20, r18
    37f2:	44 0f       	add	r20, r20
    37f4:	55 1f       	adc	r21, r21
    37f6:	23 e0       	ldi	r18, 0x03	; 3
    37f8:	30 e0       	ldi	r19, 0x00	; 0
    37fa:	02 c0       	rjmp	.+4      	; 0x3800 <NextTetriminos+0x2a2>
    37fc:	22 0f       	add	r18, r18
    37fe:	33 1f       	adc	r19, r19
    3800:	4a 95       	dec	r20
    3802:	e2 f7       	brpl	.-8      	; 0x37fc <NextTetriminos+0x29e>
    3804:	26 2b       	or	r18, r22
    3806:	42 2f       	mov	r20, r18
    3808:	9e 01       	movw	r18, r28
    380a:	22 57       	subi	r18, 0x72	; 114
    380c:	3f 4f       	sbci	r19, 0xFF	; 255
    380e:	82 0f       	add	r24, r18
    3810:	93 1f       	adc	r25, r19
    3812:	fc 01       	movw	r30, r24
    3814:	40 83       	st	Z, r20
    3816:	89 85       	ldd	r24, Y+9	; 0x09
    3818:	9a 85       	ldd	r25, Y+10	; 0x0a
    381a:	88 0f       	add	r24, r24
    381c:	99 1f       	adc	r25, r25
    381e:	03 96       	adiw	r24, 0x03	; 3
    3820:	29 85       	ldd	r18, Y+9	; 0x09
    3822:	3a 85       	ldd	r19, Y+10	; 0x0a
    3824:	22 0f       	add	r18, r18
    3826:	33 1f       	adc	r19, r19
    3828:	2d 5f       	subi	r18, 0xFD	; 253
    382a:	3f 4f       	sbci	r19, 0xFF	; 255
    382c:	ae 01       	movw	r20, r28
    382e:	42 57       	subi	r20, 0x72	; 114
    3830:	5f 4f       	sbci	r21, 0xFF	; 255
    3832:	24 0f       	add	r18, r20
    3834:	35 1f       	adc	r19, r21
    3836:	f9 01       	movw	r30, r18
    3838:	20 81       	ld	r18, Z
    383a:	62 2f       	mov	r22, r18
    383c:	43 e0       	ldi	r20, 0x03	; 3
    383e:	50 e0       	ldi	r21, 0x00	; 0
    3840:	2b 85       	ldd	r18, Y+11	; 0x0b
    3842:	3c 85       	ldd	r19, Y+12	; 0x0c
    3844:	fa 01       	movw	r30, r20
    3846:	e2 1b       	sub	r30, r18
    3848:	f3 0b       	sbc	r31, r19
    384a:	9f 01       	movw	r18, r30
    384c:	a9 01       	movw	r20, r18
    384e:	44 0f       	add	r20, r20
    3850:	55 1f       	adc	r21, r21
    3852:	23 e0       	ldi	r18, 0x03	; 3
    3854:	30 e0       	ldi	r19, 0x00	; 0
    3856:	02 c0       	rjmp	.+4      	; 0x385c <NextTetriminos+0x2fe>
    3858:	22 0f       	add	r18, r18
    385a:	33 1f       	adc	r19, r19
    385c:	4a 95       	dec	r20
    385e:	e2 f7       	brpl	.-8      	; 0x3858 <NextTetriminos+0x2fa>
    3860:	26 2b       	or	r18, r22
    3862:	42 2f       	mov	r20, r18
    3864:	9e 01       	movw	r18, r28
    3866:	22 57       	subi	r18, 0x72	; 114
    3868:	3f 4f       	sbci	r19, 0xFF	; 255
    386a:	82 0f       	add	r24, r18
    386c:	93 1f       	adc	r25, r19
    386e:	fc 01       	movw	r30, r24
    3870:	40 83       	st	Z, r20
    3872:	5c c0       	rjmp	.+184    	; 0x392c <NextTetriminos+0x3ce>
    3874:	89 85       	ldd	r24, Y+9	; 0x09
    3876:	9a 85       	ldd	r25, Y+10	; 0x0a
    3878:	01 96       	adiw	r24, 0x01	; 1
    387a:	88 0f       	add	r24, r24
    387c:	99 1f       	adc	r25, r25
    387e:	29 85       	ldd	r18, Y+9	; 0x09
    3880:	3a 85       	ldd	r19, Y+10	; 0x0a
    3882:	2f 5f       	subi	r18, 0xFF	; 255
    3884:	3f 4f       	sbci	r19, 0xFF	; 255
    3886:	22 0f       	add	r18, r18
    3888:	33 1f       	adc	r19, r19
    388a:	ae 01       	movw	r20, r28
    388c:	42 5f       	subi	r20, 0xF2	; 242
    388e:	5f 4f       	sbci	r21, 0xFF	; 255
    3890:	24 0f       	add	r18, r20
    3892:	35 1f       	adc	r19, r21
    3894:	f9 01       	movw	r30, r18
    3896:	20 81       	ld	r18, Z
    3898:	62 2f       	mov	r22, r18
    389a:	47 e0       	ldi	r20, 0x07	; 7
    389c:	50 e0       	ldi	r21, 0x00	; 0
    389e:	2b 85       	ldd	r18, Y+11	; 0x0b
    38a0:	3c 85       	ldd	r19, Y+12	; 0x0c
    38a2:	fa 01       	movw	r30, r20
    38a4:	e2 1b       	sub	r30, r18
    38a6:	f3 0b       	sbc	r31, r19
    38a8:	9f 01       	movw	r18, r30
    38aa:	a9 01       	movw	r20, r18
    38ac:	44 0f       	add	r20, r20
    38ae:	55 1f       	adc	r21, r21
    38b0:	23 e0       	ldi	r18, 0x03	; 3
    38b2:	30 e0       	ldi	r19, 0x00	; 0
    38b4:	02 c0       	rjmp	.+4      	; 0x38ba <NextTetriminos+0x35c>
    38b6:	22 0f       	add	r18, r18
    38b8:	33 1f       	adc	r19, r19
    38ba:	4a 95       	dec	r20
    38bc:	e2 f7       	brpl	.-8      	; 0x38b6 <NextTetriminos+0x358>
    38be:	26 2b       	or	r18, r22
    38c0:	42 2f       	mov	r20, r18
    38c2:	9e 01       	movw	r18, r28
    38c4:	22 5f       	subi	r18, 0xF2	; 242
    38c6:	3f 4f       	sbci	r19, 0xFF	; 255
    38c8:	82 0f       	add	r24, r18
    38ca:	93 1f       	adc	r25, r19
    38cc:	fc 01       	movw	r30, r24
    38ce:	40 83       	st	Z, r20
    38d0:	89 85       	ldd	r24, Y+9	; 0x09
    38d2:	9a 85       	ldd	r25, Y+10	; 0x0a
    38d4:	88 0f       	add	r24, r24
    38d6:	99 1f       	adc	r25, r25
    38d8:	03 96       	adiw	r24, 0x03	; 3
    38da:	29 85       	ldd	r18, Y+9	; 0x09
    38dc:	3a 85       	ldd	r19, Y+10	; 0x0a
    38de:	22 0f       	add	r18, r18
    38e0:	33 1f       	adc	r19, r19
    38e2:	2d 5f       	subi	r18, 0xFD	; 253
    38e4:	3f 4f       	sbci	r19, 0xFF	; 255
    38e6:	ae 01       	movw	r20, r28
    38e8:	42 5f       	subi	r20, 0xF2	; 242
    38ea:	5f 4f       	sbci	r21, 0xFF	; 255
    38ec:	24 0f       	add	r18, r20
    38ee:	35 1f       	adc	r19, r21
    38f0:	f9 01       	movw	r30, r18
    38f2:	20 81       	ld	r18, Z
    38f4:	62 2f       	mov	r22, r18
    38f6:	47 e0       	ldi	r20, 0x07	; 7
    38f8:	50 e0       	ldi	r21, 0x00	; 0
    38fa:	2b 85       	ldd	r18, Y+11	; 0x0b
    38fc:	3c 85       	ldd	r19, Y+12	; 0x0c
    38fe:	fa 01       	movw	r30, r20
    3900:	e2 1b       	sub	r30, r18
    3902:	f3 0b       	sbc	r31, r19
    3904:	9f 01       	movw	r18, r30
    3906:	a9 01       	movw	r20, r18
    3908:	44 0f       	add	r20, r20
    390a:	55 1f       	adc	r21, r21
    390c:	23 e0       	ldi	r18, 0x03	; 3
    390e:	30 e0       	ldi	r19, 0x00	; 0
    3910:	02 c0       	rjmp	.+4      	; 0x3916 <NextTetriminos+0x3b8>
    3912:	22 0f       	add	r18, r18
    3914:	33 1f       	adc	r19, r19
    3916:	4a 95       	dec	r20
    3918:	e2 f7       	brpl	.-8      	; 0x3912 <NextTetriminos+0x3b4>
    391a:	26 2b       	or	r18, r22
    391c:	42 2f       	mov	r20, r18
    391e:	9e 01       	movw	r18, r28
    3920:	22 5f       	subi	r18, 0xF2	; 242
    3922:	3f 4f       	sbci	r19, 0xFF	; 255
    3924:	82 0f       	add	r24, r18
    3926:	93 1f       	adc	r25, r19
    3928:	fc 01       	movw	r30, r24
    392a:	40 83       	st	Z, r20
    392c:	8b 85       	ldd	r24, Y+11	; 0x0b
    392e:	9c 85       	ldd	r25, Y+12	; 0x0c
    3930:	01 96       	adiw	r24, 0x01	; 1
    3932:	9c 87       	std	Y+12, r25	; 0x0c
    3934:	8b 87       	std	Y+11, r24	; 0x0b
    3936:	8b 85       	ldd	r24, Y+11	; 0x0b
    3938:	9c 85       	ldd	r25, Y+12	; 0x0c
    393a:	08 97       	sbiw	r24, 0x08	; 8
    393c:	0c f4       	brge	.+2      	; 0x3940 <NextTetriminos+0x3e2>
    393e:	24 cf       	rjmp	.-440    	; 0x3788 <NextTetriminos+0x22a>
    3940:	89 85       	ldd	r24, Y+9	; 0x09
    3942:	9a 85       	ldd	r25, Y+10	; 0x0a
    3944:	01 96       	adiw	r24, 0x01	; 1
    3946:	9a 87       	std	Y+10, r25	; 0x0a
    3948:	89 87       	std	Y+9, r24	; 0x09
    394a:	89 85       	ldd	r24, Y+9	; 0x09
    394c:	9a 85       	ldd	r25, Y+10	; 0x0a
    394e:	08 97       	sbiw	r24, 0x08	; 8
    3950:	0c f4       	brge	.+2      	; 0x3954 <NextTetriminos+0x3f6>
    3952:	17 cf       	rjmp	.-466    	; 0x3782 <NextTetriminos+0x224>
    3954:	1d 86       	std	Y+13, r1	; 0x0d
    3956:	17 c0       	rjmp	.+46     	; 0x3986 <NextTetriminos+0x428>
    3958:	8d 85       	ldd	r24, Y+13	; 0x0d
    395a:	0e 94 f4 02 	call	0x5e8	; 0x5e8 <ssd1306_set_page_start>
    395e:	8d 85       	ldd	r24, Y+13	; 0x0d
    3960:	88 2f       	mov	r24, r24
    3962:	90 e0       	ldi	r25, 0x00	; 0
    3964:	9e 01       	movw	r18, r28
    3966:	22 5f       	subi	r18, 0xF2	; 242
    3968:	3f 4f       	sbci	r19, 0xFF	; 255
    396a:	96 95       	lsr	r25
    396c:	98 2f       	mov	r25, r24
    396e:	88 27       	eor	r24, r24
    3970:	97 95       	ror	r25
    3972:	87 95       	ror	r24
    3974:	82 0f       	add	r24, r18
    3976:	93 1f       	adc	r25, r19
    3978:	60 e8       	ldi	r22, 0x80	; 128
    397a:	70 e0       	ldi	r23, 0x00	; 0
    397c:	0e 94 72 02 	call	0x4e4	; 0x4e4 <ssd1306_data>
    3980:	8d 85       	ldd	r24, Y+13	; 0x0d
    3982:	8f 5f       	subi	r24, 0xFF	; 255
    3984:	8d 87       	std	Y+13, r24	; 0x0d
    3986:	8d 85       	ldd	r24, Y+13	; 0x0d
    3988:	82 30       	cpi	r24, 0x02	; 2
    398a:	30 f3       	brcs	.-52     	; 0x3958 <NextTetriminos+0x3fa>
    398c:	00 00       	nop
    398e:	c3 5f       	subi	r28, 0xF3	; 243
    3990:	de 4f       	sbci	r29, 0xFE	; 254
    3992:	0f b6       	in	r0, 0x3f	; 63
    3994:	f8 94       	cli
    3996:	de bf       	out	0x3e, r29	; 62
    3998:	0f be       	out	0x3f, r0	; 63
    399a:	cd bf       	out	0x3d, r28	; 61
    399c:	df 91       	pop	r29
    399e:	cf 91       	pop	r28
    39a0:	08 95       	ret

000039a2 <Collision>:

	unsigned char Collision()	//  
	{
    39a2:	cf 93       	push	r28
    39a4:	df 93       	push	r29
    39a6:	00 d0       	rcall	.+0      	; 0x39a8 <Collision+0x6>
    39a8:	00 d0       	rcall	.+0      	; 0x39aa <Collision+0x8>
    39aa:	00 d0       	rcall	.+0      	; 0x39ac <Collision+0xa>
    39ac:	cd b7       	in	r28, 0x3d	; 61
    39ae:	de b7       	in	r29, 0x3e	; 62
		unsigned char collison1 = 0;	//   
    39b0:	19 82       	std	Y+1, r1	; 0x01
		unsigned char collison2 = 0;	//
    39b2:	1a 82       	std	Y+2, r1	; 0x02
		unsigned char collison3 = 0;	//
    39b4:	1b 82       	std	Y+3, r1	; 0x03
		unsigned char collison4 = 0;	//
    39b6:	1c 82       	std	Y+4, r1	; 0x04
		for(int i = 0; i < 4; i++)
    39b8:	1e 82       	std	Y+6, r1	; 0x06
    39ba:	1d 82       	std	Y+5, r1	; 0x05
    39bc:	c8 c0       	rjmp	.+400    	; 0x3b4e <Collision+0x1ac>
		{
			collison1 |= main_board[cur_col-i][cur_line] & temp_line[cur_col-i][0];	//            
    39be:	80 91 74 08 	lds	r24, 0x0874	; 0x800874 <cur_col>
    39c2:	28 2f       	mov	r18, r24
    39c4:	30 e0       	ldi	r19, 0x00	; 0
    39c6:	8d 81       	ldd	r24, Y+5	; 0x05
    39c8:	9e 81       	ldd	r25, Y+6	; 0x06
    39ca:	28 1b       	sub	r18, r24
    39cc:	39 0b       	sbc	r19, r25
    39ce:	80 91 73 08 	lds	r24, 0x0873	; 0x800873 <cur_line>
    39d2:	88 2f       	mov	r24, r24
    39d4:	90 e0       	ldi	r25, 0x00	; 0
    39d6:	22 0f       	add	r18, r18
    39d8:	33 1f       	adc	r19, r19
    39da:	22 95       	swap	r18
    39dc:	32 95       	swap	r19
    39de:	30 7f       	andi	r19, 0xF0	; 240
    39e0:	32 27       	eor	r19, r18
    39e2:	20 7f       	andi	r18, 0xF0	; 240
    39e4:	32 27       	eor	r19, r18
    39e6:	82 0f       	add	r24, r18
    39e8:	93 1f       	adc	r25, r19
    39ea:	80 5d       	subi	r24, 0xD0	; 208
    39ec:	9e 4f       	sbci	r25, 0xFE	; 254
    39ee:	fc 01       	movw	r30, r24
    39f0:	40 81       	ld	r20, Z
    39f2:	80 91 74 08 	lds	r24, 0x0874	; 0x800874 <cur_col>
    39f6:	28 2f       	mov	r18, r24
    39f8:	30 e0       	ldi	r19, 0x00	; 0
    39fa:	8d 81       	ldd	r24, Y+5	; 0x05
    39fc:	9e 81       	ldd	r25, Y+6	; 0x06
    39fe:	b9 01       	movw	r22, r18
    3a00:	68 1b       	sub	r22, r24
    3a02:	79 0b       	sbc	r23, r25
    3a04:	cb 01       	movw	r24, r22
    3a06:	88 0f       	add	r24, r24
    3a08:	99 1f       	adc	r25, r25
    3a0a:	88 0f       	add	r24, r24
    3a0c:	99 1f       	adc	r25, r25
    3a0e:	80 50       	subi	r24, 0x00	; 0
    3a10:	9f 4f       	sbci	r25, 0xFF	; 255
    3a12:	fc 01       	movw	r30, r24
    3a14:	80 81       	ld	r24, Z
    3a16:	84 23       	and	r24, r20
    3a18:	99 81       	ldd	r25, Y+1	; 0x01
    3a1a:	89 2b       	or	r24, r25
    3a1c:	89 83       	std	Y+1, r24	; 0x01
			collison2 |= main_board[cur_col-i][cur_line + 1] & temp_line[cur_col-i][1];
    3a1e:	80 91 74 08 	lds	r24, 0x0874	; 0x800874 <cur_col>
    3a22:	28 2f       	mov	r18, r24
    3a24:	30 e0       	ldi	r19, 0x00	; 0
    3a26:	8d 81       	ldd	r24, Y+5	; 0x05
    3a28:	9e 81       	ldd	r25, Y+6	; 0x06
    3a2a:	28 1b       	sub	r18, r24
    3a2c:	39 0b       	sbc	r19, r25
    3a2e:	80 91 73 08 	lds	r24, 0x0873	; 0x800873 <cur_line>
    3a32:	88 2f       	mov	r24, r24
    3a34:	90 e0       	ldi	r25, 0x00	; 0
    3a36:	01 96       	adiw	r24, 0x01	; 1
    3a38:	22 0f       	add	r18, r18
    3a3a:	33 1f       	adc	r19, r19
    3a3c:	22 95       	swap	r18
    3a3e:	32 95       	swap	r19
    3a40:	30 7f       	andi	r19, 0xF0	; 240
    3a42:	32 27       	eor	r19, r18
    3a44:	20 7f       	andi	r18, 0xF0	; 240
    3a46:	32 27       	eor	r19, r18
    3a48:	82 0f       	add	r24, r18
    3a4a:	93 1f       	adc	r25, r19
    3a4c:	80 5d       	subi	r24, 0xD0	; 208
    3a4e:	9e 4f       	sbci	r25, 0xFE	; 254
    3a50:	fc 01       	movw	r30, r24
    3a52:	40 81       	ld	r20, Z
    3a54:	80 91 74 08 	lds	r24, 0x0874	; 0x800874 <cur_col>
    3a58:	28 2f       	mov	r18, r24
    3a5a:	30 e0       	ldi	r19, 0x00	; 0
    3a5c:	8d 81       	ldd	r24, Y+5	; 0x05
    3a5e:	9e 81       	ldd	r25, Y+6	; 0x06
    3a60:	b9 01       	movw	r22, r18
    3a62:	68 1b       	sub	r22, r24
    3a64:	79 0b       	sbc	r23, r25
    3a66:	cb 01       	movw	r24, r22
    3a68:	88 0f       	add	r24, r24
    3a6a:	99 1f       	adc	r25, r25
    3a6c:	88 0f       	add	r24, r24
    3a6e:	99 1f       	adc	r25, r25
    3a70:	8f 5f       	subi	r24, 0xFF	; 255
    3a72:	9e 4f       	sbci	r25, 0xFE	; 254
    3a74:	fc 01       	movw	r30, r24
    3a76:	80 81       	ld	r24, Z
    3a78:	84 23       	and	r24, r20
    3a7a:	9a 81       	ldd	r25, Y+2	; 0x02
    3a7c:	89 2b       	or	r24, r25
    3a7e:	8a 83       	std	Y+2, r24	; 0x02
			collison3 |= main_board[cur_col-i][cur_line + 2] & temp_line[cur_col-i][2];
    3a80:	80 91 74 08 	lds	r24, 0x0874	; 0x800874 <cur_col>
    3a84:	28 2f       	mov	r18, r24
    3a86:	30 e0       	ldi	r19, 0x00	; 0
    3a88:	8d 81       	ldd	r24, Y+5	; 0x05
    3a8a:	9e 81       	ldd	r25, Y+6	; 0x06
    3a8c:	28 1b       	sub	r18, r24
    3a8e:	39 0b       	sbc	r19, r25
    3a90:	80 91 73 08 	lds	r24, 0x0873	; 0x800873 <cur_line>
    3a94:	88 2f       	mov	r24, r24
    3a96:	90 e0       	ldi	r25, 0x00	; 0
    3a98:	02 96       	adiw	r24, 0x02	; 2
    3a9a:	22 0f       	add	r18, r18
    3a9c:	33 1f       	adc	r19, r19
    3a9e:	22 95       	swap	r18
    3aa0:	32 95       	swap	r19
    3aa2:	30 7f       	andi	r19, 0xF0	; 240
    3aa4:	32 27       	eor	r19, r18
    3aa6:	20 7f       	andi	r18, 0xF0	; 240
    3aa8:	32 27       	eor	r19, r18
    3aaa:	82 0f       	add	r24, r18
    3aac:	93 1f       	adc	r25, r19
    3aae:	80 5d       	subi	r24, 0xD0	; 208
    3ab0:	9e 4f       	sbci	r25, 0xFE	; 254
    3ab2:	fc 01       	movw	r30, r24
    3ab4:	40 81       	ld	r20, Z
    3ab6:	80 91 74 08 	lds	r24, 0x0874	; 0x800874 <cur_col>
    3aba:	28 2f       	mov	r18, r24
    3abc:	30 e0       	ldi	r19, 0x00	; 0
    3abe:	8d 81       	ldd	r24, Y+5	; 0x05
    3ac0:	9e 81       	ldd	r25, Y+6	; 0x06
    3ac2:	b9 01       	movw	r22, r18
    3ac4:	68 1b       	sub	r22, r24
    3ac6:	79 0b       	sbc	r23, r25
    3ac8:	cb 01       	movw	r24, r22
    3aca:	88 0f       	add	r24, r24
    3acc:	99 1f       	adc	r25, r25
    3ace:	88 0f       	add	r24, r24
    3ad0:	99 1f       	adc	r25, r25
    3ad2:	8e 5f       	subi	r24, 0xFE	; 254
    3ad4:	9e 4f       	sbci	r25, 0xFE	; 254
    3ad6:	fc 01       	movw	r30, r24
    3ad8:	80 81       	ld	r24, Z
    3ada:	84 23       	and	r24, r20
    3adc:	9b 81       	ldd	r25, Y+3	; 0x03
    3ade:	89 2b       	or	r24, r25
    3ae0:	8b 83       	std	Y+3, r24	; 0x03
			collison4 |= main_board[cur_col-i][cur_line + 3] & temp_line[cur_col-i][3];
    3ae2:	80 91 74 08 	lds	r24, 0x0874	; 0x800874 <cur_col>
    3ae6:	28 2f       	mov	r18, r24
    3ae8:	30 e0       	ldi	r19, 0x00	; 0
    3aea:	8d 81       	ldd	r24, Y+5	; 0x05
    3aec:	9e 81       	ldd	r25, Y+6	; 0x06
    3aee:	28 1b       	sub	r18, r24
    3af0:	39 0b       	sbc	r19, r25
    3af2:	80 91 73 08 	lds	r24, 0x0873	; 0x800873 <cur_line>
    3af6:	88 2f       	mov	r24, r24
    3af8:	90 e0       	ldi	r25, 0x00	; 0
    3afa:	03 96       	adiw	r24, 0x03	; 3
    3afc:	22 0f       	add	r18, r18
    3afe:	33 1f       	adc	r19, r19
    3b00:	22 95       	swap	r18
    3b02:	32 95       	swap	r19
    3b04:	30 7f       	andi	r19, 0xF0	; 240
    3b06:	32 27       	eor	r19, r18
    3b08:	20 7f       	andi	r18, 0xF0	; 240
    3b0a:	32 27       	eor	r19, r18
    3b0c:	82 0f       	add	r24, r18
    3b0e:	93 1f       	adc	r25, r19
    3b10:	80 5d       	subi	r24, 0xD0	; 208
    3b12:	9e 4f       	sbci	r25, 0xFE	; 254
    3b14:	fc 01       	movw	r30, r24
    3b16:	40 81       	ld	r20, Z
    3b18:	80 91 74 08 	lds	r24, 0x0874	; 0x800874 <cur_col>
    3b1c:	28 2f       	mov	r18, r24
    3b1e:	30 e0       	ldi	r19, 0x00	; 0
    3b20:	8d 81       	ldd	r24, Y+5	; 0x05
    3b22:	9e 81       	ldd	r25, Y+6	; 0x06
    3b24:	b9 01       	movw	r22, r18
    3b26:	68 1b       	sub	r22, r24
    3b28:	79 0b       	sbc	r23, r25
    3b2a:	cb 01       	movw	r24, r22
    3b2c:	88 0f       	add	r24, r24
    3b2e:	99 1f       	adc	r25, r25
    3b30:	88 0f       	add	r24, r24
    3b32:	99 1f       	adc	r25, r25
    3b34:	8d 5f       	subi	r24, 0xFD	; 253
    3b36:	9e 4f       	sbci	r25, 0xFE	; 254
    3b38:	fc 01       	movw	r30, r24
    3b3a:	80 81       	ld	r24, Z
    3b3c:	84 23       	and	r24, r20
    3b3e:	9c 81       	ldd	r25, Y+4	; 0x04
    3b40:	89 2b       	or	r24, r25
    3b42:	8c 83       	std	Y+4, r24	; 0x04
	{
		unsigned char collison1 = 0;	//   
		unsigned char collison2 = 0;	//
		unsigned char collison3 = 0;	//
		unsigned char collison4 = 0;	//
		for(int i = 0; i < 4; i++)
    3b44:	8d 81       	ldd	r24, Y+5	; 0x05
    3b46:	9e 81       	ldd	r25, Y+6	; 0x06
    3b48:	01 96       	adiw	r24, 0x01	; 1
    3b4a:	9e 83       	std	Y+6, r25	; 0x06
    3b4c:	8d 83       	std	Y+5, r24	; 0x05
    3b4e:	8d 81       	ldd	r24, Y+5	; 0x05
    3b50:	9e 81       	ldd	r25, Y+6	; 0x06
    3b52:	04 97       	sbiw	r24, 0x04	; 4
    3b54:	0c f4       	brge	.+2      	; 0x3b58 <Collision+0x1b6>
    3b56:	33 cf       	rjmp	.-410    	; 0x39be <Collision+0x1c>
			collison1 |= main_board[cur_col-i][cur_line] & temp_line[cur_col-i][0];	//            
			collison2 |= main_board[cur_col-i][cur_line + 1] & temp_line[cur_col-i][1];
			collison3 |= main_board[cur_col-i][cur_line + 2] & temp_line[cur_col-i][2];
			collison4 |= main_board[cur_col-i][cur_line + 3] & temp_line[cur_col-i][3];
		}
		if(collison1 == 1 || collison2 == 1 || collison3 == 1 || collison4 == 1)	//    
    3b58:	89 81       	ldd	r24, Y+1	; 0x01
    3b5a:	81 30       	cpi	r24, 0x01	; 1
    3b5c:	49 f0       	breq	.+18     	; 0x3b70 <Collision+0x1ce>
    3b5e:	8a 81       	ldd	r24, Y+2	; 0x02
    3b60:	81 30       	cpi	r24, 0x01	; 1
    3b62:	31 f0       	breq	.+12     	; 0x3b70 <Collision+0x1ce>
    3b64:	8b 81       	ldd	r24, Y+3	; 0x03
    3b66:	81 30       	cpi	r24, 0x01	; 1
    3b68:	19 f0       	breq	.+6      	; 0x3b70 <Collision+0x1ce>
    3b6a:	8c 81       	ldd	r24, Y+4	; 0x04
    3b6c:	81 30       	cpi	r24, 0x01	; 1
    3b6e:	11 f4       	brne	.+4      	; 0x3b74 <Collision+0x1d2>
		return 1;         //  1 
    3b70:	81 e0       	ldi	r24, 0x01	; 1
    3b72:	01 c0       	rjmp	.+2      	; 0x3b76 <Collision+0x1d4>
		else
		return 0;  //   0 
    3b74:	80 e0       	ldi	r24, 0x00	; 0
	}
    3b76:	26 96       	adiw	r28, 0x06	; 6
    3b78:	0f b6       	in	r0, 0x3f	; 63
    3b7a:	f8 94       	cli
    3b7c:	de bf       	out	0x3e, r29	; 62
    3b7e:	0f be       	out	0x3f, r0	; 63
    3b80:	cd bf       	out	0x3d, r28	; 61
    3b82:	df 91       	pop	r29
    3b84:	cf 91       	pop	r28
    3b86:	08 95       	ret

00003b88 <main>:




int main(void)
{
    3b88:	cf 93       	push	r28
    3b8a:	df 93       	push	r29
    3b8c:	cd b7       	in	r28, 0x3d	; 61
    3b8e:	de b7       	in	r29, 0x3e	; 62
    3b90:	60 97       	sbiw	r28, 0x10	; 16
    3b92:	0f b6       	in	r0, 0x3f	; 63
    3b94:	f8 94       	cli
    3b96:	de bf       	out	0x3e, r29	; 62
    3b98:	0f be       	out	0x3f, r0	; 63
    3b9a:	cd bf       	out	0x3d, r28	; 61
	char cmd;

	UART_Init();
    3b9c:	0e 94 42 02 	call	0x484	; 0x484 <UART_Init>

	TCCR0 = 0x07;	//  0 1024 
    3ba0:	83 e5       	ldi	r24, 0x53	; 83
    3ba2:	90 e0       	ldi	r25, 0x00	; 0
    3ba4:	27 e0       	ldi	r18, 0x07	; 7
    3ba6:	fc 01       	movw	r30, r24
    3ba8:	20 83       	st	Z, r18

	TCCR1A |= (0 << COM1A0) | (0 << WGM10);	//CTC, OC1A 
    3baa:	8f e4       	ldi	r24, 0x4F	; 79
    3bac:	90 e0       	ldi	r25, 0x00	; 0
    3bae:	2f e4       	ldi	r18, 0x4F	; 79
    3bb0:	30 e0       	ldi	r19, 0x00	; 0
    3bb2:	f9 01       	movw	r30, r18
    3bb4:	20 81       	ld	r18, Z
    3bb6:	fc 01       	movw	r30, r24
    3bb8:	20 83       	st	Z, r18
	TCCR1B |= (1 << WGM12) | (5 << CS10); //CTC, 1024
    3bba:	8e e4       	ldi	r24, 0x4E	; 78
    3bbc:	90 e0       	ldi	r25, 0x00	; 0
    3bbe:	2e e4       	ldi	r18, 0x4E	; 78
    3bc0:	30 e0       	ldi	r19, 0x00	; 0
    3bc2:	f9 01       	movw	r30, r18
    3bc4:	20 81       	ld	r18, Z
    3bc6:	2d 60       	ori	r18, 0x0D	; 13
    3bc8:	fc 01       	movw	r30, r24
    3bca:	20 83       	st	Z, r18
	OCR1A = 0xFFF;
    3bcc:	8a e4       	ldi	r24, 0x4A	; 74
    3bce:	90 e0       	ldi	r25, 0x00	; 0
    3bd0:	2f ef       	ldi	r18, 0xFF	; 255
    3bd2:	3f e0       	ldi	r19, 0x0F	; 15
    3bd4:	fc 01       	movw	r30, r24
    3bd6:	31 83       	std	Z+1, r19	; 0x01
    3bd8:	20 83       	st	Z, r18
	TIMSK |= (1 << OCIE1A);	//  1  A   
    3bda:	87 e5       	ldi	r24, 0x57	; 87
    3bdc:	90 e0       	ldi	r25, 0x00	; 0
    3bde:	27 e5       	ldi	r18, 0x57	; 87
    3be0:	30 e0       	ldi	r19, 0x00	; 0
    3be2:	f9 01       	movw	r30, r18
    3be4:	20 81       	ld	r18, Z
    3be6:	20 61       	ori	r18, 0x10	; 16
    3be8:	fc 01       	movw	r30, r24
    3bea:	20 83       	st	Z, r18

	DDRD = 0x00;	// 4,5,6,7   
    3bec:	81 e3       	ldi	r24, 0x31	; 49
    3bee:	90 e0       	ldi	r25, 0x00	; 0
    3bf0:	fc 01       	movw	r30, r24
    3bf2:	10 82       	st	Z, r1
	DDRE = 0x00;	// 3   
    3bf4:	82 e2       	ldi	r24, 0x22	; 34
    3bf6:	90 e0       	ldi	r25, 0x00	; 0
    3bf8:	fc 01       	movw	r30, r24
    3bfa:	10 82       	st	Z, r1

	EICRB = (2 << ISC40) | (2 << ISC50) | (2 << ISC60) | (2 << ISC70);
    3bfc:	8a e5       	ldi	r24, 0x5A	; 90
    3bfe:	90 e0       	ldi	r25, 0x00	; 0
    3c00:	2a ea       	ldi	r18, 0xAA	; 170
    3c02:	fc 01       	movw	r30, r24
    3c04:	20 83       	st	Z, r18
	
	EICRA = (2 << ISC30);
    3c06:	8a e6       	ldi	r24, 0x6A	; 106
    3c08:	90 e0       	ldi	r25, 0x00	; 0
    3c0a:	20 e8       	ldi	r18, 0x80	; 128
    3c0c:	fc 01       	movw	r30, r24
    3c0e:	20 83       	st	Z, r18

	EIMSK = (1 << INT3) | (1 << INT4) | (1 << INT5) | (1 << INT6) | (1 << INT7);
    3c10:	89 e5       	ldi	r24, 0x59	; 89
    3c12:	90 e0       	ldi	r25, 0x00	; 0
    3c14:	28 ef       	ldi	r18, 0xF8	; 248
    3c16:	fc 01       	movw	r30, r24
    3c18:	20 83       	st	Z, r18

	sei();
    3c1a:	78 94       	sei

	setup();
    3c1c:	0e 94 f5 03 	call	0x7ea	; 0x7ea <setup>

	while(1)
	{

		game_over = 0;	//  
    3c20:	10 92 31 04 	sts	0x0431, r1	; 0x800431 <game_over>


		for(int i = 0; i < 31; i++)	//  
    3c24:	1a 82       	std	Y+2, r1	; 0x02
    3c26:	19 82       	std	Y+1, r1	; 0x01
    3c28:	34 c0       	rjmp	.+104    	; 0x3c92 <main+0x10a>
		{
			main_board[0][i] = 1;
    3c2a:	89 81       	ldd	r24, Y+1	; 0x01
    3c2c:	9a 81       	ldd	r25, Y+2	; 0x02
    3c2e:	80 5d       	subi	r24, 0xD0	; 208
    3c30:	9e 4f       	sbci	r25, 0xFE	; 254
    3c32:	21 e0       	ldi	r18, 0x01	; 1
    3c34:	fc 01       	movw	r30, r24
    3c36:	20 83       	st	Z, r18
			main_board[11][i] = 1;
    3c38:	89 81       	ldd	r24, Y+1	; 0x01
    3c3a:	9a 81       	ldd	r25, Y+2	; 0x02
    3c3c:	80 57       	subi	r24, 0x70	; 112
    3c3e:	9d 4f       	sbci	r25, 0xFD	; 253
    3c40:	21 e0       	ldi	r18, 0x01	; 1
    3c42:	fc 01       	movw	r30, r24
    3c44:	20 83       	st	Z, r18
			for(int j = 1; j < 11; j++)
    3c46:	81 e0       	ldi	r24, 0x01	; 1
    3c48:	90 e0       	ldi	r25, 0x00	; 0
    3c4a:	9c 83       	std	Y+4, r25	; 0x04
    3c4c:	8b 83       	std	Y+3, r24	; 0x03
    3c4e:	18 c0       	rjmp	.+48     	; 0x3c80 <main+0xf8>
			{
				main_board[j][i] = 0;
    3c50:	8b 81       	ldd	r24, Y+3	; 0x03
    3c52:	9c 81       	ldd	r25, Y+4	; 0x04
    3c54:	9c 01       	movw	r18, r24
    3c56:	22 0f       	add	r18, r18
    3c58:	33 1f       	adc	r19, r19
    3c5a:	22 95       	swap	r18
    3c5c:	32 95       	swap	r19
    3c5e:	30 7f       	andi	r19, 0xF0	; 240
    3c60:	32 27       	eor	r19, r18
    3c62:	20 7f       	andi	r18, 0xF0	; 240
    3c64:	32 27       	eor	r19, r18
    3c66:	89 81       	ldd	r24, Y+1	; 0x01
    3c68:	9a 81       	ldd	r25, Y+2	; 0x02
    3c6a:	82 0f       	add	r24, r18
    3c6c:	93 1f       	adc	r25, r19
    3c6e:	80 5d       	subi	r24, 0xD0	; 208
    3c70:	9e 4f       	sbci	r25, 0xFE	; 254
    3c72:	fc 01       	movw	r30, r24
    3c74:	10 82       	st	Z, r1

		for(int i = 0; i < 31; i++)	//  
		{
			main_board[0][i] = 1;
			main_board[11][i] = 1;
			for(int j = 1; j < 11; j++)
    3c76:	8b 81       	ldd	r24, Y+3	; 0x03
    3c78:	9c 81       	ldd	r25, Y+4	; 0x04
    3c7a:	01 96       	adiw	r24, 0x01	; 1
    3c7c:	9c 83       	std	Y+4, r25	; 0x04
    3c7e:	8b 83       	std	Y+3, r24	; 0x03
    3c80:	8b 81       	ldd	r24, Y+3	; 0x03
    3c82:	9c 81       	ldd	r25, Y+4	; 0x04
    3c84:	0b 97       	sbiw	r24, 0x0b	; 11
    3c86:	24 f3       	brlt	.-56     	; 0x3c50 <main+0xc8>
	{

		game_over = 0;	//  


		for(int i = 0; i < 31; i++)	//  
    3c88:	89 81       	ldd	r24, Y+1	; 0x01
    3c8a:	9a 81       	ldd	r25, Y+2	; 0x02
    3c8c:	01 96       	adiw	r24, 0x01	; 1
    3c8e:	9a 83       	std	Y+2, r25	; 0x02
    3c90:	89 83       	std	Y+1, r24	; 0x01
    3c92:	89 81       	ldd	r24, Y+1	; 0x01
    3c94:	9a 81       	ldd	r25, Y+2	; 0x02
    3c96:	4f 97       	sbiw	r24, 0x1f	; 31
    3c98:	44 f2       	brlt	.-112    	; 0x3c2a <main+0xa2>
			for(int j = 1; j < 11; j++)
			{
				main_board[j][i] = 0;
			}
		}
		for(int i = 0; i < 12; i++)
    3c9a:	1e 82       	std	Y+6, r1	; 0x06
    3c9c:	1d 82       	std	Y+5, r1	; 0x05
    3c9e:	14 c0       	rjmp	.+40     	; 0x3cc8 <main+0x140>
		{
			main_board[i][31] = 1;
    3ca0:	8d 81       	ldd	r24, Y+5	; 0x05
    3ca2:	9e 81       	ldd	r25, Y+6	; 0x06
    3ca4:	88 0f       	add	r24, r24
    3ca6:	99 1f       	adc	r25, r25
    3ca8:	82 95       	swap	r24
    3caa:	92 95       	swap	r25
    3cac:	90 7f       	andi	r25, 0xF0	; 240
    3cae:	98 27       	eor	r25, r24
    3cb0:	80 7f       	andi	r24, 0xF0	; 240
    3cb2:	98 27       	eor	r25, r24
    3cb4:	81 5b       	subi	r24, 0xB1	; 177
    3cb6:	9e 4f       	sbci	r25, 0xFE	; 254
    3cb8:	21 e0       	ldi	r18, 0x01	; 1
    3cba:	fc 01       	movw	r30, r24
    3cbc:	20 83       	st	Z, r18
			for(int j = 1; j < 11; j++)
			{
				main_board[j][i] = 0;
			}
		}
		for(int i = 0; i < 12; i++)
    3cbe:	8d 81       	ldd	r24, Y+5	; 0x05
    3cc0:	9e 81       	ldd	r25, Y+6	; 0x06
    3cc2:	01 96       	adiw	r24, 0x01	; 1
    3cc4:	9e 83       	std	Y+6, r25	; 0x06
    3cc6:	8d 83       	std	Y+5, r24	; 0x05
    3cc8:	8d 81       	ldd	r24, Y+5	; 0x05
    3cca:	9e 81       	ldd	r25, Y+6	; 0x06
    3ccc:	0c 97       	sbiw	r24, 0x0c	; 12
    3cce:	44 f3       	brlt	.-48     	; 0x3ca0 <main+0x118>
			main_board[i][31] = 1;
		}



		while(game_over == 0)	//   
    3cd0:	14 c1       	rjmp	.+552    	; 0x3efa <main+0x372>
		{
			for(int i = 0; i < 31; i++)
    3cd2:	18 86       	std	Y+8, r1	; 0x08
    3cd4:	1f 82       	std	Y+7, r1	; 0x07
    3cd6:	c4 c0       	rjmp	.+392    	; 0x3e60 <main+0x2d8>
			{
				if(main_board[1][i] == 1 && main_board[2][i] == 1 && main_board[3][i] == 1 && main_board[4][i] == 1 && main_board[5][i] == 1 && main_board[6][i] == 1 && main_board[7][i] == 1 && main_board[8][i] == 1 && main_board[9][i] == 1 && main_board[10][i] == 1)
    3cd8:	8f 81       	ldd	r24, Y+7	; 0x07
    3cda:	98 85       	ldd	r25, Y+8	; 0x08
    3cdc:	80 5b       	subi	r24, 0xB0	; 176
    3cde:	9e 4f       	sbci	r25, 0xFE	; 254
    3ce0:	fc 01       	movw	r30, r24
    3ce2:	80 81       	ld	r24, Z
    3ce4:	81 30       	cpi	r24, 0x01	; 1
    3ce6:	09 f0       	breq	.+2      	; 0x3cea <main+0x162>
    3ce8:	b6 c0       	rjmp	.+364    	; 0x3e56 <main+0x2ce>
    3cea:	8f 81       	ldd	r24, Y+7	; 0x07
    3cec:	98 85       	ldd	r25, Y+8	; 0x08
    3cee:	80 59       	subi	r24, 0x90	; 144
    3cf0:	9e 4f       	sbci	r25, 0xFE	; 254
    3cf2:	fc 01       	movw	r30, r24
    3cf4:	80 81       	ld	r24, Z
    3cf6:	81 30       	cpi	r24, 0x01	; 1
    3cf8:	09 f0       	breq	.+2      	; 0x3cfc <main+0x174>
    3cfa:	ad c0       	rjmp	.+346    	; 0x3e56 <main+0x2ce>
    3cfc:	8f 81       	ldd	r24, Y+7	; 0x07
    3cfe:	98 85       	ldd	r25, Y+8	; 0x08
    3d00:	80 57       	subi	r24, 0x70	; 112
    3d02:	9e 4f       	sbci	r25, 0xFE	; 254
    3d04:	fc 01       	movw	r30, r24
    3d06:	80 81       	ld	r24, Z
    3d08:	81 30       	cpi	r24, 0x01	; 1
    3d0a:	09 f0       	breq	.+2      	; 0x3d0e <main+0x186>
    3d0c:	a4 c0       	rjmp	.+328    	; 0x3e56 <main+0x2ce>
    3d0e:	8f 81       	ldd	r24, Y+7	; 0x07
    3d10:	98 85       	ldd	r25, Y+8	; 0x08
    3d12:	80 55       	subi	r24, 0x50	; 80
    3d14:	9e 4f       	sbci	r25, 0xFE	; 254
    3d16:	fc 01       	movw	r30, r24
    3d18:	80 81       	ld	r24, Z
    3d1a:	81 30       	cpi	r24, 0x01	; 1
    3d1c:	09 f0       	breq	.+2      	; 0x3d20 <main+0x198>
    3d1e:	9b c0       	rjmp	.+310    	; 0x3e56 <main+0x2ce>
    3d20:	8f 81       	ldd	r24, Y+7	; 0x07
    3d22:	98 85       	ldd	r25, Y+8	; 0x08
    3d24:	80 53       	subi	r24, 0x30	; 48
    3d26:	9e 4f       	sbci	r25, 0xFE	; 254
    3d28:	fc 01       	movw	r30, r24
    3d2a:	80 81       	ld	r24, Z
    3d2c:	81 30       	cpi	r24, 0x01	; 1
    3d2e:	09 f0       	breq	.+2      	; 0x3d32 <main+0x1aa>
    3d30:	92 c0       	rjmp	.+292    	; 0x3e56 <main+0x2ce>
    3d32:	8f 81       	ldd	r24, Y+7	; 0x07
    3d34:	98 85       	ldd	r25, Y+8	; 0x08
    3d36:	80 51       	subi	r24, 0x10	; 16
    3d38:	9e 4f       	sbci	r25, 0xFE	; 254
    3d3a:	fc 01       	movw	r30, r24
    3d3c:	80 81       	ld	r24, Z
    3d3e:	81 30       	cpi	r24, 0x01	; 1
    3d40:	09 f0       	breq	.+2      	; 0x3d44 <main+0x1bc>
    3d42:	89 c0       	rjmp	.+274    	; 0x3e56 <main+0x2ce>
    3d44:	8f 81       	ldd	r24, Y+7	; 0x07
    3d46:	98 85       	ldd	r25, Y+8	; 0x08
    3d48:	80 5f       	subi	r24, 0xF0	; 240
    3d4a:	9d 4f       	sbci	r25, 0xFD	; 253
    3d4c:	fc 01       	movw	r30, r24
    3d4e:	80 81       	ld	r24, Z
    3d50:	81 30       	cpi	r24, 0x01	; 1
    3d52:	09 f0       	breq	.+2      	; 0x3d56 <main+0x1ce>
    3d54:	80 c0       	rjmp	.+256    	; 0x3e56 <main+0x2ce>
    3d56:	8f 81       	ldd	r24, Y+7	; 0x07
    3d58:	98 85       	ldd	r25, Y+8	; 0x08
    3d5a:	80 5d       	subi	r24, 0xD0	; 208
    3d5c:	9d 4f       	sbci	r25, 0xFD	; 253
    3d5e:	fc 01       	movw	r30, r24
    3d60:	80 81       	ld	r24, Z
    3d62:	81 30       	cpi	r24, 0x01	; 1
    3d64:	09 f0       	breq	.+2      	; 0x3d68 <main+0x1e0>
    3d66:	77 c0       	rjmp	.+238    	; 0x3e56 <main+0x2ce>
    3d68:	8f 81       	ldd	r24, Y+7	; 0x07
    3d6a:	98 85       	ldd	r25, Y+8	; 0x08
    3d6c:	80 5b       	subi	r24, 0xB0	; 176
    3d6e:	9d 4f       	sbci	r25, 0xFD	; 253
    3d70:	fc 01       	movw	r30, r24
    3d72:	80 81       	ld	r24, Z
    3d74:	81 30       	cpi	r24, 0x01	; 1
    3d76:	09 f0       	breq	.+2      	; 0x3d7a <main+0x1f2>
    3d78:	6e c0       	rjmp	.+220    	; 0x3e56 <main+0x2ce>
    3d7a:	8f 81       	ldd	r24, Y+7	; 0x07
    3d7c:	98 85       	ldd	r25, Y+8	; 0x08
    3d7e:	80 59       	subi	r24, 0x90	; 144
    3d80:	9d 4f       	sbci	r25, 0xFD	; 253
    3d82:	fc 01       	movw	r30, r24
    3d84:	80 81       	ld	r24, Z
    3d86:	81 30       	cpi	r24, 0x01	; 1
    3d88:	09 f0       	breq	.+2      	; 0x3d8c <main+0x204>
    3d8a:	65 c0       	rjmp	.+202    	; 0x3e56 <main+0x2ce>
				//1      
				{
					main_board[0][i] = 1;	//  
    3d8c:	8f 81       	ldd	r24, Y+7	; 0x07
    3d8e:	98 85       	ldd	r25, Y+8	; 0x08
    3d90:	80 5d       	subi	r24, 0xD0	; 208
    3d92:	9e 4f       	sbci	r25, 0xFE	; 254
    3d94:	21 e0       	ldi	r18, 0x01	; 1
    3d96:	fc 01       	movw	r30, r24
    3d98:	20 83       	st	Z, r18
					main_board[11][i] = 1;
    3d9a:	8f 81       	ldd	r24, Y+7	; 0x07
    3d9c:	98 85       	ldd	r25, Y+8	; 0x08
    3d9e:	80 57       	subi	r24, 0x70	; 112
    3da0:	9d 4f       	sbci	r25, 0xFD	; 253
    3da2:	21 e0       	ldi	r18, 0x01	; 1
    3da4:	fc 01       	movw	r30, r24
    3da6:	20 83       	st	Z, r18
					for(int j = 1; j < 11; j++)
    3da8:	81 e0       	ldi	r24, 0x01	; 1
    3daa:	90 e0       	ldi	r25, 0x00	; 0
    3dac:	9a 87       	std	Y+10, r25	; 0x0a
    3dae:	89 87       	std	Y+9, r24	; 0x09
    3db0:	4d c0       	rjmp	.+154    	; 0x3e4c <main+0x2c4>
					{
						main_board[j][i] = 0;	//  
    3db2:	89 85       	ldd	r24, Y+9	; 0x09
    3db4:	9a 85       	ldd	r25, Y+10	; 0x0a
    3db6:	9c 01       	movw	r18, r24
    3db8:	22 0f       	add	r18, r18
    3dba:	33 1f       	adc	r19, r19
    3dbc:	22 95       	swap	r18
    3dbe:	32 95       	swap	r19
    3dc0:	30 7f       	andi	r19, 0xF0	; 240
    3dc2:	32 27       	eor	r19, r18
    3dc4:	20 7f       	andi	r18, 0xF0	; 240
    3dc6:	32 27       	eor	r19, r18
    3dc8:	8f 81       	ldd	r24, Y+7	; 0x07
    3dca:	98 85       	ldd	r25, Y+8	; 0x08
    3dcc:	82 0f       	add	r24, r18
    3dce:	93 1f       	adc	r25, r19
    3dd0:	80 5d       	subi	r24, 0xD0	; 208
    3dd2:	9e 4f       	sbci	r25, 0xFE	; 254
    3dd4:	fc 01       	movw	r30, r24
    3dd6:	10 82       	st	Z, r1
						for(int k = i; k > 0; k--)
    3dd8:	8f 81       	ldd	r24, Y+7	; 0x07
    3dda:	98 85       	ldd	r25, Y+8	; 0x08
    3ddc:	9c 87       	std	Y+12, r25	; 0x0c
    3dde:	8b 87       	std	Y+11, r24	; 0x0b
    3de0:	2b c0       	rjmp	.+86     	; 0x3e38 <main+0x2b0>
						{
							main_board[j][k] = main_board[j][k - 1];	//     (  )
    3de2:	8b 85       	ldd	r24, Y+11	; 0x0b
    3de4:	9c 85       	ldd	r25, Y+12	; 0x0c
    3de6:	01 97       	sbiw	r24, 0x01	; 1
    3de8:	29 85       	ldd	r18, Y+9	; 0x09
    3dea:	3a 85       	ldd	r19, Y+10	; 0x0a
    3dec:	22 0f       	add	r18, r18
    3dee:	33 1f       	adc	r19, r19
    3df0:	22 95       	swap	r18
    3df2:	32 95       	swap	r19
    3df4:	30 7f       	andi	r19, 0xF0	; 240
    3df6:	32 27       	eor	r19, r18
    3df8:	20 7f       	andi	r18, 0xF0	; 240
    3dfa:	32 27       	eor	r19, r18
    3dfc:	82 0f       	add	r24, r18
    3dfe:	93 1f       	adc	r25, r19
    3e00:	80 5d       	subi	r24, 0xD0	; 208
    3e02:	9e 4f       	sbci	r25, 0xFE	; 254
    3e04:	fc 01       	movw	r30, r24
    3e06:	40 81       	ld	r20, Z
    3e08:	89 85       	ldd	r24, Y+9	; 0x09
    3e0a:	9a 85       	ldd	r25, Y+10	; 0x0a
    3e0c:	9c 01       	movw	r18, r24
    3e0e:	22 0f       	add	r18, r18
    3e10:	33 1f       	adc	r19, r19
    3e12:	22 95       	swap	r18
    3e14:	32 95       	swap	r19
    3e16:	30 7f       	andi	r19, 0xF0	; 240
    3e18:	32 27       	eor	r19, r18
    3e1a:	20 7f       	andi	r18, 0xF0	; 240
    3e1c:	32 27       	eor	r19, r18
    3e1e:	8b 85       	ldd	r24, Y+11	; 0x0b
    3e20:	9c 85       	ldd	r25, Y+12	; 0x0c
    3e22:	82 0f       	add	r24, r18
    3e24:	93 1f       	adc	r25, r19
    3e26:	80 5d       	subi	r24, 0xD0	; 208
    3e28:	9e 4f       	sbci	r25, 0xFE	; 254
    3e2a:	fc 01       	movw	r30, r24
    3e2c:	40 83       	st	Z, r20
					main_board[0][i] = 1;	//  
					main_board[11][i] = 1;
					for(int j = 1; j < 11; j++)
					{
						main_board[j][i] = 0;	//  
						for(int k = i; k > 0; k--)
    3e2e:	8b 85       	ldd	r24, Y+11	; 0x0b
    3e30:	9c 85       	ldd	r25, Y+12	; 0x0c
    3e32:	01 97       	sbiw	r24, 0x01	; 1
    3e34:	9c 87       	std	Y+12, r25	; 0x0c
    3e36:	8b 87       	std	Y+11, r24	; 0x0b
    3e38:	8b 85       	ldd	r24, Y+11	; 0x0b
    3e3a:	9c 85       	ldd	r25, Y+12	; 0x0c
    3e3c:	18 16       	cp	r1, r24
    3e3e:	19 06       	cpc	r1, r25
    3e40:	84 f2       	brlt	.-96     	; 0x3de2 <main+0x25a>
				if(main_board[1][i] == 1 && main_board[2][i] == 1 && main_board[3][i] == 1 && main_board[4][i] == 1 && main_board[5][i] == 1 && main_board[6][i] == 1 && main_board[7][i] == 1 && main_board[8][i] == 1 && main_board[9][i] == 1 && main_board[10][i] == 1)
				//1      
				{
					main_board[0][i] = 1;	//  
					main_board[11][i] = 1;
					for(int j = 1; j < 11; j++)
    3e42:	89 85       	ldd	r24, Y+9	; 0x09
    3e44:	9a 85       	ldd	r25, Y+10	; 0x0a
    3e46:	01 96       	adiw	r24, 0x01	; 1
    3e48:	9a 87       	std	Y+10, r25	; 0x0a
    3e4a:	89 87       	std	Y+9, r24	; 0x09
    3e4c:	89 85       	ldd	r24, Y+9	; 0x09
    3e4e:	9a 85       	ldd	r25, Y+10	; 0x0a
    3e50:	0b 97       	sbiw	r24, 0x0b	; 11
    3e52:	0c f4       	brge	.+2      	; 0x3e56 <main+0x2ce>
    3e54:	ae cf       	rjmp	.-164    	; 0x3db2 <main+0x22a>



		while(game_over == 0)	//   
		{
			for(int i = 0; i < 31; i++)
    3e56:	8f 81       	ldd	r24, Y+7	; 0x07
    3e58:	98 85       	ldd	r25, Y+8	; 0x08
    3e5a:	01 96       	adiw	r24, 0x01	; 1
    3e5c:	98 87       	std	Y+8, r25	; 0x08
    3e5e:	8f 83       	std	Y+7, r24	; 0x07
    3e60:	8f 81       	ldd	r24, Y+7	; 0x07
    3e62:	98 85       	ldd	r25, Y+8	; 0x08
    3e64:	4f 97       	sbiw	r24, 0x1f	; 31
    3e66:	0c f4       	brge	.+2      	; 0x3e6a <main+0x2e2>
    3e68:	37 cf       	rjmp	.-402    	; 0x3cd8 <main+0x150>
						}
					}
				}
			}

			for(int i = 0; i < 12; i++)
    3e6a:	1e 86       	std	Y+14, r1	; 0x0e
    3e6c:	1d 86       	std	Y+13, r1	; 0x0d
    3e6e:	37 c0       	rjmp	.+110    	; 0x3ede <main+0x356>
			{
				for(int j = 0; j< 32; j++)
    3e70:	18 8a       	std	Y+16, r1	; 0x10
    3e72:	1f 86       	std	Y+15, r1	; 0x0f
    3e74:	2b c0       	rjmp	.+86     	; 0x3ecc <main+0x344>
				{
					game_board[i][j] = main_board[i][j];	//     
    3e76:	8d 85       	ldd	r24, Y+13	; 0x0d
    3e78:	9e 85       	ldd	r25, Y+14	; 0x0e
    3e7a:	9c 01       	movw	r18, r24
    3e7c:	22 0f       	add	r18, r18
    3e7e:	33 1f       	adc	r19, r19
    3e80:	22 95       	swap	r18
    3e82:	32 95       	swap	r19
    3e84:	30 7f       	andi	r19, 0xF0	; 240
    3e86:	32 27       	eor	r19, r18
    3e88:	20 7f       	andi	r18, 0xF0	; 240
    3e8a:	32 27       	eor	r19, r18
    3e8c:	8f 85       	ldd	r24, Y+15	; 0x0f
    3e8e:	98 89       	ldd	r25, Y+16	; 0x10
    3e90:	82 0f       	add	r24, r18
    3e92:	93 1f       	adc	r25, r19
    3e94:	80 5d       	subi	r24, 0xD0	; 208
    3e96:	9e 4f       	sbci	r25, 0xFE	; 254
    3e98:	fc 01       	movw	r30, r24
    3e9a:	40 81       	ld	r20, Z
    3e9c:	8d 85       	ldd	r24, Y+13	; 0x0d
    3e9e:	9e 85       	ldd	r25, Y+14	; 0x0e
    3ea0:	9c 01       	movw	r18, r24
    3ea2:	22 0f       	add	r18, r18
    3ea4:	33 1f       	adc	r19, r19
    3ea6:	22 95       	swap	r18
    3ea8:	32 95       	swap	r19
    3eaa:	30 7f       	andi	r19, 0xF0	; 240
    3eac:	32 27       	eor	r19, r18
    3eae:	20 7f       	andi	r18, 0xF0	; 240
    3eb0:	32 27       	eor	r19, r18
    3eb2:	8f 85       	ldd	r24, Y+15	; 0x0f
    3eb4:	98 89       	ldd	r25, Y+16	; 0x10
    3eb6:	82 0f       	add	r24, r18
    3eb8:	93 1f       	adc	r25, r19
    3eba:	80 55       	subi	r24, 0x50	; 80
    3ebc:	9d 4f       	sbci	r25, 0xFD	; 253
    3ebe:	fc 01       	movw	r30, r24
    3ec0:	40 83       	st	Z, r20
				}
			}

			for(int i = 0; i < 12; i++)
			{
				for(int j = 0; j< 32; j++)
    3ec2:	8f 85       	ldd	r24, Y+15	; 0x0f
    3ec4:	98 89       	ldd	r25, Y+16	; 0x10
    3ec6:	01 96       	adiw	r24, 0x01	; 1
    3ec8:	98 8b       	std	Y+16, r25	; 0x10
    3eca:	8f 87       	std	Y+15, r24	; 0x0f
    3ecc:	8f 85       	ldd	r24, Y+15	; 0x0f
    3ece:	98 89       	ldd	r25, Y+16	; 0x10
    3ed0:	80 97       	sbiw	r24, 0x20	; 32
    3ed2:	8c f2       	brlt	.-94     	; 0x3e76 <main+0x2ee>
						}
					}
				}
			}

			for(int i = 0; i < 12; i++)
    3ed4:	8d 85       	ldd	r24, Y+13	; 0x0d
    3ed6:	9e 85       	ldd	r25, Y+14	; 0x0e
    3ed8:	01 96       	adiw	r24, 0x01	; 1
    3eda:	9e 87       	std	Y+14, r25	; 0x0e
    3edc:	8d 87       	std	Y+13, r24	; 0x0d
    3ede:	8d 85       	ldd	r24, Y+13	; 0x0d
    3ee0:	9e 85       	ldd	r25, Y+14	; 0x0e
    3ee2:	0c 97       	sbiw	r24, 0x0c	; 12
    3ee4:	2c f2       	brlt	.-118    	; 0x3e70 <main+0x2e8>
				{
					game_board[i][j] = main_board[i][j];	//     
				}
			}
			
			NewTetriminos();	//  
    3ee6:	0e 94 36 17 	call	0x2e6c	; 0x2e6c <NewTetriminos>
			NextTetriminos();
    3eea:	39 db       	rcall	.-2446   	; 0x355e <NextTetriminos>
			while(new_block == 0)	//     
    3eec:	02 c0       	rjmp	.+4      	; 0x3ef2 <main+0x36a>
			{
				draw_map();	//    
    3eee:	0e 94 08 15 	call	0x2a10	; 0x2a10 <draw_map>
				}
			}
			
			NewTetriminos();	//  
			NextTetriminos();
			while(new_block == 0)	//     
    3ef2:	80 91 30 04 	lds	r24, 0x0430	; 0x800430 <new_block>
    3ef6:	88 23       	and	r24, r24
    3ef8:	d1 f3       	breq	.-12     	; 0x3eee <main+0x366>
			main_board[i][31] = 1;
		}



		while(game_over == 0)	//   
    3efa:	80 91 31 04 	lds	r24, 0x0431	; 0x800431 <game_over>
    3efe:	88 23       	and	r24, r24
    3f00:	09 f4       	brne	.+2      	; 0x3f04 <main+0x37c>
    3f02:	e7 ce       	rjmp	.-562    	; 0x3cd2 <main+0x14a>
			{
				draw_map();	//    
			}
		}
		
	}
    3f04:	8d ce       	rjmp	.-742    	; 0x3c20 <main+0x98>

00003f06 <__cmpsf2>:
    3f06:	2f d0       	rcall	.+94     	; 0x3f66 <__fp_cmp>
    3f08:	08 f4       	brcc	.+2      	; 0x3f0c <__cmpsf2+0x6>
    3f0a:	81 e0       	ldi	r24, 0x01	; 1
    3f0c:	08 95       	ret

00003f0e <__fixunssfsi>:
    3f0e:	57 d0       	rcall	.+174    	; 0x3fbe <__fp_splitA>
    3f10:	88 f0       	brcs	.+34     	; 0x3f34 <__fixunssfsi+0x26>
    3f12:	9f 57       	subi	r25, 0x7F	; 127
    3f14:	90 f0       	brcs	.+36     	; 0x3f3a <__fixunssfsi+0x2c>
    3f16:	b9 2f       	mov	r27, r25
    3f18:	99 27       	eor	r25, r25
    3f1a:	b7 51       	subi	r27, 0x17	; 23
    3f1c:	a0 f0       	brcs	.+40     	; 0x3f46 <__fixunssfsi+0x38>
    3f1e:	d1 f0       	breq	.+52     	; 0x3f54 <__fixunssfsi+0x46>
    3f20:	66 0f       	add	r22, r22
    3f22:	77 1f       	adc	r23, r23
    3f24:	88 1f       	adc	r24, r24
    3f26:	99 1f       	adc	r25, r25
    3f28:	1a f0       	brmi	.+6      	; 0x3f30 <__fixunssfsi+0x22>
    3f2a:	ba 95       	dec	r27
    3f2c:	c9 f7       	brne	.-14     	; 0x3f20 <__fixunssfsi+0x12>
    3f2e:	12 c0       	rjmp	.+36     	; 0x3f54 <__fixunssfsi+0x46>
    3f30:	b1 30       	cpi	r27, 0x01	; 1
    3f32:	81 f0       	breq	.+32     	; 0x3f54 <__fixunssfsi+0x46>
    3f34:	5e d0       	rcall	.+188    	; 0x3ff2 <__fp_zero>
    3f36:	b1 e0       	ldi	r27, 0x01	; 1
    3f38:	08 95       	ret
    3f3a:	5b c0       	rjmp	.+182    	; 0x3ff2 <__fp_zero>
    3f3c:	67 2f       	mov	r22, r23
    3f3e:	78 2f       	mov	r23, r24
    3f40:	88 27       	eor	r24, r24
    3f42:	b8 5f       	subi	r27, 0xF8	; 248
    3f44:	39 f0       	breq	.+14     	; 0x3f54 <__fixunssfsi+0x46>
    3f46:	b9 3f       	cpi	r27, 0xF9	; 249
    3f48:	cc f3       	brlt	.-14     	; 0x3f3c <__fixunssfsi+0x2e>
    3f4a:	86 95       	lsr	r24
    3f4c:	77 95       	ror	r23
    3f4e:	67 95       	ror	r22
    3f50:	b3 95       	inc	r27
    3f52:	d9 f7       	brne	.-10     	; 0x3f4a <__fixunssfsi+0x3c>
    3f54:	3e f4       	brtc	.+14     	; 0x3f64 <__fixunssfsi+0x56>
    3f56:	90 95       	com	r25
    3f58:	80 95       	com	r24
    3f5a:	70 95       	com	r23
    3f5c:	61 95       	neg	r22
    3f5e:	7f 4f       	sbci	r23, 0xFF	; 255
    3f60:	8f 4f       	sbci	r24, 0xFF	; 255
    3f62:	9f 4f       	sbci	r25, 0xFF	; 255
    3f64:	08 95       	ret

00003f66 <__fp_cmp>:
    3f66:	99 0f       	add	r25, r25
    3f68:	00 08       	sbc	r0, r0
    3f6a:	55 0f       	add	r21, r21
    3f6c:	aa 0b       	sbc	r26, r26
    3f6e:	e0 e8       	ldi	r30, 0x80	; 128
    3f70:	fe ef       	ldi	r31, 0xFE	; 254
    3f72:	16 16       	cp	r1, r22
    3f74:	17 06       	cpc	r1, r23
    3f76:	e8 07       	cpc	r30, r24
    3f78:	f9 07       	cpc	r31, r25
    3f7a:	c0 f0       	brcs	.+48     	; 0x3fac <__fp_cmp+0x46>
    3f7c:	12 16       	cp	r1, r18
    3f7e:	13 06       	cpc	r1, r19
    3f80:	e4 07       	cpc	r30, r20
    3f82:	f5 07       	cpc	r31, r21
    3f84:	98 f0       	brcs	.+38     	; 0x3fac <__fp_cmp+0x46>
    3f86:	62 1b       	sub	r22, r18
    3f88:	73 0b       	sbc	r23, r19
    3f8a:	84 0b       	sbc	r24, r20
    3f8c:	95 0b       	sbc	r25, r21
    3f8e:	39 f4       	brne	.+14     	; 0x3f9e <__fp_cmp+0x38>
    3f90:	0a 26       	eor	r0, r26
    3f92:	61 f0       	breq	.+24     	; 0x3fac <__fp_cmp+0x46>
    3f94:	23 2b       	or	r18, r19
    3f96:	24 2b       	or	r18, r20
    3f98:	25 2b       	or	r18, r21
    3f9a:	21 f4       	brne	.+8      	; 0x3fa4 <__fp_cmp+0x3e>
    3f9c:	08 95       	ret
    3f9e:	0a 26       	eor	r0, r26
    3fa0:	09 f4       	brne	.+2      	; 0x3fa4 <__fp_cmp+0x3e>
    3fa2:	a1 40       	sbci	r26, 0x01	; 1
    3fa4:	a6 95       	lsr	r26
    3fa6:	8f ef       	ldi	r24, 0xFF	; 255
    3fa8:	81 1d       	adc	r24, r1
    3faa:	81 1d       	adc	r24, r1
    3fac:	08 95       	ret

00003fae <__fp_split3>:
    3fae:	57 fd       	sbrc	r21, 7
    3fb0:	90 58       	subi	r25, 0x80	; 128
    3fb2:	44 0f       	add	r20, r20
    3fb4:	55 1f       	adc	r21, r21
    3fb6:	59 f0       	breq	.+22     	; 0x3fce <__fp_splitA+0x10>
    3fb8:	5f 3f       	cpi	r21, 0xFF	; 255
    3fba:	71 f0       	breq	.+28     	; 0x3fd8 <__fp_splitA+0x1a>
    3fbc:	47 95       	ror	r20

00003fbe <__fp_splitA>:
    3fbe:	88 0f       	add	r24, r24
    3fc0:	97 fb       	bst	r25, 7
    3fc2:	99 1f       	adc	r25, r25
    3fc4:	61 f0       	breq	.+24     	; 0x3fde <__fp_splitA+0x20>
    3fc6:	9f 3f       	cpi	r25, 0xFF	; 255
    3fc8:	79 f0       	breq	.+30     	; 0x3fe8 <__fp_splitA+0x2a>
    3fca:	87 95       	ror	r24
    3fcc:	08 95       	ret
    3fce:	12 16       	cp	r1, r18
    3fd0:	13 06       	cpc	r1, r19
    3fd2:	14 06       	cpc	r1, r20
    3fd4:	55 1f       	adc	r21, r21
    3fd6:	f2 cf       	rjmp	.-28     	; 0x3fbc <__fp_split3+0xe>
    3fd8:	46 95       	lsr	r20
    3fda:	f1 df       	rcall	.-30     	; 0x3fbe <__fp_splitA>
    3fdc:	08 c0       	rjmp	.+16     	; 0x3fee <__fp_splitA+0x30>
    3fde:	16 16       	cp	r1, r22
    3fe0:	17 06       	cpc	r1, r23
    3fe2:	18 06       	cpc	r1, r24
    3fe4:	99 1f       	adc	r25, r25
    3fe6:	f1 cf       	rjmp	.-30     	; 0x3fca <__fp_splitA+0xc>
    3fe8:	86 95       	lsr	r24
    3fea:	71 05       	cpc	r23, r1
    3fec:	61 05       	cpc	r22, r1
    3fee:	08 94       	sec
    3ff0:	08 95       	ret

00003ff2 <__fp_zero>:
    3ff2:	e8 94       	clt

00003ff4 <__fp_szero>:
    3ff4:	bb 27       	eor	r27, r27
    3ff6:	66 27       	eor	r22, r22
    3ff8:	77 27       	eor	r23, r23
    3ffa:	cb 01       	movw	r24, r22
    3ffc:	97 f9       	bld	r25, 7
    3ffe:	08 95       	ret

00004000 <__gesf2>:
    4000:	b2 df       	rcall	.-156    	; 0x3f66 <__fp_cmp>
    4002:	08 f4       	brcc	.+2      	; 0x4006 <__gesf2+0x6>
    4004:	8f ef       	ldi	r24, 0xFF	; 255
    4006:	08 95       	ret

00004008 <__mulsf3>:
    4008:	0b d0       	rcall	.+22     	; 0x4020 <__mulsf3x>
    400a:	78 c0       	rjmp	.+240    	; 0x40fc <__fp_round>
    400c:	69 d0       	rcall	.+210    	; 0x40e0 <__fp_pscA>
    400e:	28 f0       	brcs	.+10     	; 0x401a <__mulsf3+0x12>
    4010:	6e d0       	rcall	.+220    	; 0x40ee <__fp_pscB>
    4012:	18 f0       	brcs	.+6      	; 0x401a <__mulsf3+0x12>
    4014:	95 23       	and	r25, r21
    4016:	09 f0       	breq	.+2      	; 0x401a <__mulsf3+0x12>
    4018:	5a c0       	rjmp	.+180    	; 0x40ce <__fp_inf>
    401a:	5f c0       	rjmp	.+190    	; 0x40da <__fp_nan>
    401c:	11 24       	eor	r1, r1
    401e:	ea cf       	rjmp	.-44     	; 0x3ff4 <__fp_szero>

00004020 <__mulsf3x>:
    4020:	c6 df       	rcall	.-116    	; 0x3fae <__fp_split3>
    4022:	a0 f3       	brcs	.-24     	; 0x400c <__mulsf3+0x4>

00004024 <__mulsf3_pse>:
    4024:	95 9f       	mul	r25, r21
    4026:	d1 f3       	breq	.-12     	; 0x401c <__mulsf3+0x14>
    4028:	95 0f       	add	r25, r21
    402a:	50 e0       	ldi	r21, 0x00	; 0
    402c:	55 1f       	adc	r21, r21
    402e:	62 9f       	mul	r22, r18
    4030:	f0 01       	movw	r30, r0
    4032:	72 9f       	mul	r23, r18
    4034:	bb 27       	eor	r27, r27
    4036:	f0 0d       	add	r31, r0
    4038:	b1 1d       	adc	r27, r1
    403a:	63 9f       	mul	r22, r19
    403c:	aa 27       	eor	r26, r26
    403e:	f0 0d       	add	r31, r0
    4040:	b1 1d       	adc	r27, r1
    4042:	aa 1f       	adc	r26, r26
    4044:	64 9f       	mul	r22, r20
    4046:	66 27       	eor	r22, r22
    4048:	b0 0d       	add	r27, r0
    404a:	a1 1d       	adc	r26, r1
    404c:	66 1f       	adc	r22, r22
    404e:	82 9f       	mul	r24, r18
    4050:	22 27       	eor	r18, r18
    4052:	b0 0d       	add	r27, r0
    4054:	a1 1d       	adc	r26, r1
    4056:	62 1f       	adc	r22, r18
    4058:	73 9f       	mul	r23, r19
    405a:	b0 0d       	add	r27, r0
    405c:	a1 1d       	adc	r26, r1
    405e:	62 1f       	adc	r22, r18
    4060:	83 9f       	mul	r24, r19
    4062:	a0 0d       	add	r26, r0
    4064:	61 1d       	adc	r22, r1
    4066:	22 1f       	adc	r18, r18
    4068:	74 9f       	mul	r23, r20
    406a:	33 27       	eor	r19, r19
    406c:	a0 0d       	add	r26, r0
    406e:	61 1d       	adc	r22, r1
    4070:	23 1f       	adc	r18, r19
    4072:	84 9f       	mul	r24, r20
    4074:	60 0d       	add	r22, r0
    4076:	21 1d       	adc	r18, r1
    4078:	82 2f       	mov	r24, r18
    407a:	76 2f       	mov	r23, r22
    407c:	6a 2f       	mov	r22, r26
    407e:	11 24       	eor	r1, r1
    4080:	9f 57       	subi	r25, 0x7F	; 127
    4082:	50 40       	sbci	r21, 0x00	; 0
    4084:	8a f0       	brmi	.+34     	; 0x40a8 <__mulsf3_pse+0x84>
    4086:	e1 f0       	breq	.+56     	; 0x40c0 <__mulsf3_pse+0x9c>
    4088:	88 23       	and	r24, r24
    408a:	4a f0       	brmi	.+18     	; 0x409e <__mulsf3_pse+0x7a>
    408c:	ee 0f       	add	r30, r30
    408e:	ff 1f       	adc	r31, r31
    4090:	bb 1f       	adc	r27, r27
    4092:	66 1f       	adc	r22, r22
    4094:	77 1f       	adc	r23, r23
    4096:	88 1f       	adc	r24, r24
    4098:	91 50       	subi	r25, 0x01	; 1
    409a:	50 40       	sbci	r21, 0x00	; 0
    409c:	a9 f7       	brne	.-22     	; 0x4088 <__mulsf3_pse+0x64>
    409e:	9e 3f       	cpi	r25, 0xFE	; 254
    40a0:	51 05       	cpc	r21, r1
    40a2:	70 f0       	brcs	.+28     	; 0x40c0 <__mulsf3_pse+0x9c>
    40a4:	14 c0       	rjmp	.+40     	; 0x40ce <__fp_inf>
    40a6:	a6 cf       	rjmp	.-180    	; 0x3ff4 <__fp_szero>
    40a8:	5f 3f       	cpi	r21, 0xFF	; 255
    40aa:	ec f3       	brlt	.-6      	; 0x40a6 <__mulsf3_pse+0x82>
    40ac:	98 3e       	cpi	r25, 0xE8	; 232
    40ae:	dc f3       	brlt	.-10     	; 0x40a6 <__mulsf3_pse+0x82>
    40b0:	86 95       	lsr	r24
    40b2:	77 95       	ror	r23
    40b4:	67 95       	ror	r22
    40b6:	b7 95       	ror	r27
    40b8:	f7 95       	ror	r31
    40ba:	e7 95       	ror	r30
    40bc:	9f 5f       	subi	r25, 0xFF	; 255
    40be:	c1 f7       	brne	.-16     	; 0x40b0 <__mulsf3_pse+0x8c>
    40c0:	fe 2b       	or	r31, r30
    40c2:	88 0f       	add	r24, r24
    40c4:	91 1d       	adc	r25, r1
    40c6:	96 95       	lsr	r25
    40c8:	87 95       	ror	r24
    40ca:	97 f9       	bld	r25, 7
    40cc:	08 95       	ret

000040ce <__fp_inf>:
    40ce:	97 f9       	bld	r25, 7
    40d0:	9f 67       	ori	r25, 0x7F	; 127
    40d2:	80 e8       	ldi	r24, 0x80	; 128
    40d4:	70 e0       	ldi	r23, 0x00	; 0
    40d6:	60 e0       	ldi	r22, 0x00	; 0
    40d8:	08 95       	ret

000040da <__fp_nan>:
    40da:	9f ef       	ldi	r25, 0xFF	; 255
    40dc:	80 ec       	ldi	r24, 0xC0	; 192
    40de:	08 95       	ret

000040e0 <__fp_pscA>:
    40e0:	00 24       	eor	r0, r0
    40e2:	0a 94       	dec	r0
    40e4:	16 16       	cp	r1, r22
    40e6:	17 06       	cpc	r1, r23
    40e8:	18 06       	cpc	r1, r24
    40ea:	09 06       	cpc	r0, r25
    40ec:	08 95       	ret

000040ee <__fp_pscB>:
    40ee:	00 24       	eor	r0, r0
    40f0:	0a 94       	dec	r0
    40f2:	12 16       	cp	r1, r18
    40f4:	13 06       	cpc	r1, r19
    40f6:	14 06       	cpc	r1, r20
    40f8:	05 06       	cpc	r0, r21
    40fa:	08 95       	ret

000040fc <__fp_round>:
    40fc:	09 2e       	mov	r0, r25
    40fe:	03 94       	inc	r0
    4100:	00 0c       	add	r0, r0
    4102:	11 f4       	brne	.+4      	; 0x4108 <__fp_round+0xc>
    4104:	88 23       	and	r24, r24
    4106:	52 f0       	brmi	.+20     	; 0x411c <__fp_round+0x20>
    4108:	bb 0f       	add	r27, r27
    410a:	40 f4       	brcc	.+16     	; 0x411c <__fp_round+0x20>
    410c:	bf 2b       	or	r27, r31
    410e:	11 f4       	brne	.+4      	; 0x4114 <__fp_round+0x18>
    4110:	60 ff       	sbrs	r22, 0
    4112:	04 c0       	rjmp	.+8      	; 0x411c <__fp_round+0x20>
    4114:	6f 5f       	subi	r22, 0xFF	; 255
    4116:	7f 4f       	sbci	r23, 0xFF	; 255
    4118:	8f 4f       	sbci	r24, 0xFF	; 255
    411a:	9f 4f       	sbci	r25, 0xFF	; 255
    411c:	08 95       	ret

0000411e <_exit>:
    411e:	f8 94       	cli

00004120 <__stop_program>:
    4120:	ff cf       	rjmp	.-2      	; 0x4120 <__stop_program>
