
U8g2_practice.elf:     file format elf32-avr

Sections:
Idx Name          Size      VMA       LMA       File off  Algn
  0 .data         00000090  00800100  00004b40  00004bd4  2**0
                  CONTENTS, ALLOC, LOAD, DATA
  1 .text         00004b40  00000000  00000000  00000094  2**1
                  CONTENTS, ALLOC, LOAD, READONLY, CODE
  2 .bss          00000467  00800190  00800190  00004c64  2**0
                  ALLOC
  3 .comment      00000030  00000000  00000000  00004c64  2**0
                  CONTENTS, READONLY
  4 .note.gnu.avr.deviceinfo 00000040  00000000  00000000  00004c94  2**2
                  CONTENTS, READONLY
  5 .debug_aranges 00001f20  00000000  00000000  00004cd4  2**0
                  CONTENTS, READONLY, DEBUGGING
  6 .debug_info   0002d2f8  00000000  00000000  00006bf4  2**0
                  CONTENTS, READONLY, DEBUGGING
  7 .debug_abbrev 000026a2  00000000  00000000  00033eec  2**0
                  CONTENTS, READONLY, DEBUGGING
  8 .debug_line   0000c724  00000000  00000000  0003658e  2**0
                  CONTENTS, READONLY, DEBUGGING
  9 .debug_frame  00009388  00000000  00000000  00042cb4  2**2
                  CONTENTS, READONLY, DEBUGGING
 10 .debug_str    0000efcd  00000000  00000000  0004c03c  2**0
                  CONTENTS, READONLY, DEBUGGING
 11 .debug_loc    000142f0  00000000  00000000  0005b009  2**0
                  CONTENTS, READONLY, DEBUGGING
 12 .debug_ranges 00001dd0  00000000  00000000  0006f2f9  2**0
                  CONTENTS, READONLY, DEBUGGING

Disassembly of section .text:

00000000 <__vectors>:
       0:	36 c4       	rjmp	.+2156   	; 0x86e <__ctors_end>
       2:	00 00       	nop
       4:	52 c4       	rjmp	.+2212   	; 0x8aa <__bad_interrupt>
       6:	00 00       	nop
       8:	50 c4       	rjmp	.+2208   	; 0x8aa <__bad_interrupt>
       a:	00 00       	nop
       c:	4e c4       	rjmp	.+2204   	; 0x8aa <__bad_interrupt>
       e:	00 00       	nop
      10:	4c c4       	rjmp	.+2200   	; 0x8aa <__bad_interrupt>
      12:	00 00       	nop
      14:	4a c4       	rjmp	.+2196   	; 0x8aa <__bad_interrupt>
      16:	00 00       	nop
      18:	48 c4       	rjmp	.+2192   	; 0x8aa <__bad_interrupt>
      1a:	00 00       	nop
      1c:	46 c4       	rjmp	.+2188   	; 0x8aa <__bad_interrupt>
      1e:	00 00       	nop
      20:	44 c4       	rjmp	.+2184   	; 0x8aa <__bad_interrupt>
      22:	00 00       	nop
      24:	42 c4       	rjmp	.+2180   	; 0x8aa <__bad_interrupt>
      26:	00 00       	nop
      28:	40 c4       	rjmp	.+2176   	; 0x8aa <__bad_interrupt>
      2a:	00 00       	nop
      2c:	3e c4       	rjmp	.+2172   	; 0x8aa <__bad_interrupt>
      2e:	00 00       	nop
      30:	3c c4       	rjmp	.+2168   	; 0x8aa <__bad_interrupt>
      32:	00 00       	nop
      34:	3a c4       	rjmp	.+2164   	; 0x8aa <__bad_interrupt>
      36:	00 00       	nop
      38:	38 c4       	rjmp	.+2160   	; 0x8aa <__bad_interrupt>
      3a:	00 00       	nop
      3c:	36 c4       	rjmp	.+2156   	; 0x8aa <__bad_interrupt>
      3e:	00 00       	nop
      40:	34 c4       	rjmp	.+2152   	; 0x8aa <__bad_interrupt>
      42:	00 00       	nop
      44:	32 c4       	rjmp	.+2148   	; 0x8aa <__bad_interrupt>
      46:	00 00       	nop
      48:	30 c4       	rjmp	.+2144   	; 0x8aa <__bad_interrupt>
      4a:	00 00       	nop
      4c:	2e c4       	rjmp	.+2140   	; 0x8aa <__bad_interrupt>
      4e:	00 00       	nop
      50:	2c c4       	rjmp	.+2136   	; 0x8aa <__bad_interrupt>
      52:	00 00       	nop
      54:	2a c4       	rjmp	.+2132   	; 0x8aa <__bad_interrupt>
      56:	00 00       	nop
      58:	28 c4       	rjmp	.+2128   	; 0x8aa <__bad_interrupt>
      5a:	00 00       	nop
      5c:	26 c4       	rjmp	.+2124   	; 0x8aa <__bad_interrupt>
      5e:	00 00       	nop
      60:	24 c4       	rjmp	.+2120   	; 0x8aa <__bad_interrupt>
      62:	00 00       	nop
      64:	22 c4       	rjmp	.+2116   	; 0x8aa <__bad_interrupt>
      66:	00 00       	nop
      68:	20 c4       	rjmp	.+2112   	; 0x8aa <__bad_interrupt>
      6a:	00 00       	nop
      6c:	1e c4       	rjmp	.+2108   	; 0x8aa <__bad_interrupt>
      6e:	00 00       	nop
      70:	1c c4       	rjmp	.+2104   	; 0x8aa <__bad_interrupt>
      72:	00 00       	nop
      74:	1a c4       	rjmp	.+2100   	; 0x8aa <__bad_interrupt>
      76:	00 00       	nop
      78:	18 c4       	rjmp	.+2096   	; 0x8aa <__bad_interrupt>
      7a:	00 00       	nop
      7c:	16 c4       	rjmp	.+2092   	; 0x8aa <__bad_interrupt>
      7e:	00 00       	nop
      80:	14 c4       	rjmp	.+2088   	; 0x8aa <__bad_interrupt>
      82:	00 00       	nop
      84:	12 c4       	rjmp	.+2084   	; 0x8aa <__bad_interrupt>
      86:	00 00       	nop
      88:	10 c4       	rjmp	.+2080   	; 0x8aa <__bad_interrupt>
	...

0000008c <__trampolines_end>:
      8c:	bf 00       	.word	0x00bf	; ????
      8e:	03 02       	muls	r16, r19
      90:	03 04       	cpc	r0, r3
      92:	03 05       	cpc	r16, r3
      94:	04 06       	cpc	r0, r20
      96:	0a 00       	.word	0x000a	; ????
      98:	fe 07       	cpc	r31, r30
      9a:	fe 07       	cpc	r31, r30
      9c:	00 01       	movw	r0, r0
      9e:	42 02       	muls	r20, r18
      a0:	88 07       	cpc	r24, r24
      a2:	c4 20       	and	r12, r4
      a4:	05 00       	.word	0x0005	; ????
      a6:	62 07       	cpc	r22, r18
      a8:	21 07       	cpc	r18, r17
      aa:	39 43       	sbci	r19, 0x39	; 57
      ac:	c7 a0       	ldd	r12, Z+39	; 0x27
      ae:	04 22       	and	r0, r20
      b0:	07 9b       	sbis	0x00, 7	; 0
      b2:	52 47       	sbci	r21, 0x72	; 114
      b4:	62 09       	sbc	r22, r2
      b6:	23 0e       	add	r2, r19
      b8:	3d 42       	sbci	r19, 0x2D	; 45
      ba:	4f 29       	or	r20, r15
      bc:	49 06       	cpc	r4, r25
      be:	a5 32       	cpi	r26, 0x25	; 37
      c0:	28 a5       	ldd	r18, Y+40	; 0x28
      c2:	24 01       	movw	r4, r8
      c4:	24 0c       	add	r2, r4
      c6:	3d 42       	sbci	r19, 0x2D	; 45
      c8:	57 b6       	in	r5, 0x37	; 55
      ca:	d4 b6       	in	r13, 0x34	; 52
      cc:	24 d9       	rcall	.-3512   	; 0xfffff316 <__eeprom_end+0xff7ef316>
      ce:	22 00       	.word	0x0022	; ????
      d0:	25 0c       	add	r2, r5
      d2:	3d 42       	sbci	r19, 0x2D	; 45
      d4:	4f a4       	ldd	r4, Y+47	; 0x2f
      d6:	74 ab       	std	Z+52, r23	; 0x34
      d8:	b4 48       	sbci	r27, 0x84	; 132
      da:	09 00       	.word	0x0009	; ????
      dc:	26 0d       	add	r18, r6
      de:	3d 42       	sbci	r19, 0x2D	; 45
      e0:	4f 96       	adiw	r24, 0x1f	; 31
      e2:	44 49       	sbci	r20, 0x94	; 148
      e4:	56 49       	sbci	r21, 0x96	; 150
      e6:	a4 48       	sbci	r26, 0x84	; 132
      e8:	09 27       	eor	r16, r25
      ea:	06 19       	sub	r16, r6
      ec:	53 c7       	rjmp	.+3750   	; 0xf94 <u8g2_ClearBuffer+0x72>
      ee:	00 28       	or	r0, r0
      f0:	08 bb       	out	0x18, r16	; 24
      f2:	42 57       	subi	r20, 0x72	; 114
      f4:	52 aa       	std	Z+50, r5	; 0x32
      f6:	15 29       	or	r17, r5
      f8:	09 bb       	out	0x19, r16	; 25
      fa:	42 47       	sbci	r20, 0x72	; 114
      fc:	56 aa       	std	Z+54, r5	; 0x36
      fe:	94 00       	.word	0x0094	; ????
     100:	2a 0a       	sbc	r2, r26
     102:	2d 46       	sbci	r18, 0x6D	; 109
     104:	47 96       	adiw	r24, 0x17	; 23
     106:	54 06       	cpc	r5, r20
     108:	a5 2d       	mov	r26, r5
     10a:	2b 0a       	sbc	r2, r27
     10c:	2d 46       	sbci	r18, 0x6D	; 109
     10e:	57 18       	sub	r5, r7
     110:	0d 52       	subi	r16, 0x2D	; 45
     112:	18 01       	movw	r2, r16
     114:	2c 07       	cpc	r18, r28
     116:	9b 3e       	cpi	r25, 0xEB	; 235
     118:	8f 52       	subi	r24, 0x2F	; 47
     11a:	02 2d       	mov	r16, r2
     11c:	06 0d       	add	r16, r6
     11e:	4e c7       	rjmp	.+3740   	; 0xfbc <u8g2_send_tile_row+0x16>
     120:	20 2e       	mov	r2, r16
     122:	08 9b       	sbis	0x01, 0	; 1
     124:	3e 4f       	sbci	r19, 0xFE	; 254
     126:	b2 24       	eor	r11, r2
     128:	00 2f       	mov	r16, r16
     12a:	08 3d       	cpi	r16, 0xD8	; 216
     12c:	42 67       	ori	r20, 0x72	; 114
     12e:	ad 63       	ori	r26, 0x3D	; 61
     130:	08 30       	cpi	r16, 0x08	; 8
     132:	0b 3d       	cpi	r16, 0xDB	; 219
     134:	42 57       	subi	r20, 0x72	; 114
     136:	96 d4       	rcall	.+2348   	; 0xa64 <u8x8_avr_delay+0x1b8>
     138:	6c 49       	sbci	r22, 0x9C	; 156
     13a:	2d 02       	muls	r18, r29
     13c:	31 0a       	sbc	r3, r17
     13e:	3d 42       	sbci	r19, 0x2D	; 45
     140:	57 26       	eor	r5, r23
     142:	25 61       	ori	r18, 0x15	; 21
     144:	d3 20       	and	r13, r3
     146:	32 0c       	add	r3, r2
     148:	3d 42       	sbci	r19, 0x2D	; 45
     14a:	cf 92       	push	r12
     14c:	85 91       	lpm	r24, Z+
     14e:	94 85       	ldd	r25, Z+12	; 0x0c
     150:	83 00       	.word	0x0083	; ????
     152:	33 0c       	add	r3, r3
     154:	3d 42       	sbci	r19, 0x2D	; 45
     156:	c7 20       	and	r12, r7
     158:	66 99       	sbic	0x0c, 6	; 12
     15a:	aa 25       	eor	r26, r10
     15c:	0b 00       	.word	0x000b	; ????
     15e:	34 0c       	add	r3, r4
     160:	3d 42       	sbci	r19, 0x2D	; 45
     162:	5f 26       	eor	r5, r31
     164:	25 a5       	ldd	r18, Z+45	; 0x2d
     166:	64 d0       	rcall	.+200    	; 0x230 <__trampolines_end+0x1a4>
     168:	c2 04       	cpc	r12, r2
     16a:	35 0b       	sbc	r19, r21
     16c:	3d 42       	sbci	r19, 0x2D	; 45
     16e:	c7 31       	cpi	r28, 0x17	; 23
     170:	31 85       	ldd	r19, Z+9	; 0x09
     172:	5a b2       	in	r5, 0x1a	; 26
     174:	00 36       	cpi	r16, 0x60	; 96
     176:	0c 3d       	cpi	r16, 0xDC	; 220
     178:	42 97       	sbiw	r24, 0x12	; 18
     17a:	94 85       	ldd	r25, Z+12	; 0x0c
     17c:	89 49       	sbci	r24, 0x99	; 153
     17e:	4b 16       	cp	r4, r27
     180:	00 37       	cpi	r16, 0x70	; 112
     182:	0b 3d       	cpi	r16, 0xDB	; 219
     184:	42 c7       	rjmp	.+3716   	; 0x100a <u8g2_send_tile_row+0x64>
     186:	20 66       	ori	r18, 0x60	; 96
     188:	61 56       	subi	r22, 0x61	; 97
     18a:	cc 00       	.word	0x00cc	; ????
     18c:	38 0c       	add	r3, r8
     18e:	3d 42       	sbci	r19, 0x2D	; 45
     190:	cf 92       	push	r12
     192:	69 c9       	rjmp	.-3374   	; 0xfffff466 <__eeprom_end+0xff7ef466>
     194:	92 69       	ori	r25, 0x92	; 146
     196:	c9 02       	muls	r28, r25
     198:	39 0c       	add	r3, r9
     19a:	3d 42       	sbci	r19, 0x2D	; 45
     19c:	cf 92       	push	r12
     19e:	49 8a       	std	Y+17, r4	; 0x11
     1a0:	12 66       	ori	r17, 0x62	; 98
     1a2:	91 04       	cpc	r9, r1
     1a4:	3a 0a       	sbc	r3, r26
     1a6:	bb 3e       	cpi	r27, 0xEB	; 235
     1a8:	4f b2       	in	r4, 0x1f	; 31
     1aa:	a4 c9       	rjmp	.-3256   	; 0xfffff4f4 <__eeprom_end+0xff7ef4f4>
     1ac:	92 00       	.word	0x0092	; ????
     1ae:	3b 09       	sbc	r19, r11
     1b0:	bb 3e       	cpi	r27, 0xEB	; 235
     1b2:	4f b2       	in	r4, 0x1f	; 31
     1b4:	a4 4a       	sbci	r26, 0xA4	; 164
     1b6:	09 3c       	cpi	r16, 0xC9	; 201
     1b8:	08 bc       	out	0x28, r0	; 40
     1ba:	42 5f       	subi	r20, 0xF2	; 242
     1bc:	d4 d8       	rcall	.-3672   	; 0xfffff366 <__eeprom_end+0xff7ef366>
     1be:	00 3d       	cpi	r16, 0xD0	; 208
     1c0:	08 1d       	adc	r16, r8
     1c2:	4a c7       	rjmp	.+3732   	; 0x1058 <u8g2_send_tile_row+0xb2>
     1c4:	a0 0e       	add	r10, r16
     1c6:	02 3e       	cpi	r16, 0xE2	; 226
     1c8:	08 bc       	out	0x28, r0	; 40
     1ca:	42 47       	sbci	r20, 0x72	; 114
     1cc:	d8 d4       	rcall	.+2480   	; 0xb7e <u8x8_avr_delay+0x2d2>
     1ce:	06 3f       	cpi	r16, 0xF6	; 246
     1d0:	0a 3d       	cpi	r16, 0xDA	; 218
     1d2:	42 cf       	rjmp	.-380    	; 0x58 <__SREG__+0x19>
     1d4:	92 35       	cpi	r25, 0x52	; 82
     1d6:	e6 50       	subi	r30, 0x06	; 6
     1d8:	04 40       	sbci	r16, 0x04	; 4
     1da:	0c 3d       	cpi	r16, 0xDC	; 220
     1dc:	42 cf       	rjmp	.-380    	; 0x62 <__SREG__+0x23>
     1de:	92 49       	sbci	r25, 0x92	; 146
     1e0:	4b 62       	ori	r20, 0x2B	; 43
     1e2:	49 17       	cp	r20, r25
     1e4:	00 41       	sbci	r16, 0x10	; 16
     1e6:	0c 3d       	cpi	r16, 0xDC	; 220
     1e8:	42 57       	subi	r20, 0x72	; 114
     1ea:	96 d4       	rcall	.+2348   	; 0xb18 <u8x8_avr_delay+0x26c>
     1ec:	b4 61       	ori	r27, 0x14	; 20
     1ee:	c8 b4       	in	r12, 0x28	; 40
     1f0:	00 42       	sbci	r16, 0x20	; 32
     1f2:	0d 3d       	cpi	r16, 0xDD	; 221
     1f4:	42 c7       	rjmp	.+3716   	; 0x107a <u8g2_send_buffer+0x20>
     1f6:	10 55       	subi	r17, 0x50	; 80
     1f8:	a2 64       	ori	r26, 0x42	; 66
     1fa:	aa 44       	sbci	r26, 0x4A	; 74
     1fc:	83 02       	muls	r24, r19
     1fe:	43 0a       	sbc	r4, r19
     200:	3d 42       	sbci	r19, 0x2D	; 45
     202:	cf 92       	push	r12
     204:	89 6d       	ori	r24, 0xD9	; 217
     206:	c9 02       	muls	r28, r25
     208:	44 0f       	add	r20, r20
     20a:	3d 42       	sbci	r19, 0x2D	; 45
     20c:	c7 10       	cpse	r12, r7
     20e:	55 a2       	std	Z+37, r5	; 0x25
     210:	24 4a       	sbci	r18, 0xA4	; 164
     212:	a2 24       	eor	r10, r2
     214:	1a 14       	cp	r1, r10
     216:	00 45       	sbci	r16, 0x50	; 80
     218:	0b 3d       	cpi	r16, 0xDB	; 219
     21a:	42 c7       	rjmp	.+3716   	; 0x10a0 <u8g2_send_buffer+0x46>
     21c:	31 1c       	adc	r3, r1
     21e:	92 30       	cpi	r25, 0x02	; 2
     220:	1c 04       	cpc	r1, r12
     222:	46 0a       	sbc	r4, r22
     224:	3d 42       	sbci	r19, 0x2D	; 45
     226:	c7 31       	cpi	r28, 0x17	; 23
     228:	1c 92       	st	X, r1
     22a:	b0 08       	sbc	r11, r0
     22c:	47 0b       	sbc	r20, r23
     22e:	3d 42       	sbci	r19, 0x2D	; 45
     230:	cf 92       	push	r12
     232:	89 a5       	ldd	r24, Y+41	; 0x29
     234:	2d 59       	subi	r18, 0x9D	; 157
     236:	00 48       	sbci	r16, 0x80	; 128
     238:	0a 3d       	cpi	r16, 0xDA	; 218
     23a:	42 47       	sbci	r20, 0x72	; 114
     23c:	66 1b       	sub	r22, r22
     23e:	86 cc       	rjmp	.-1780   	; 0xfffffb4c <__eeprom_end+0xff7efb4c>
     240:	16 49       	sbci	r17, 0x96	; 150
     242:	08 bb       	out	0x18, r16	; 24
     244:	42 c7       	rjmp	.+3716   	; 0x10ca <u8g2_send_buffer+0x70>
     246:	12 75       	andi	r17, 0x52	; 82
     248:	19 4a       	sbci	r17, 0xA9	; 169
     24a:	0a 3d       	cpi	r16, 0xDA	; 218
     24c:	42 d7       	rcall	.+3716   	; 0x10d2 <u8g2_SetBufferCurrTileRow+0x6>
     24e:	16 b6       	in	r1, 0x36	; 54
     250:	44 91       	lpm	r20, Z
     252:	04 4b       	sbci	r16, 0xB4	; 180
     254:	0d 3d       	cpi	r16, 0xDD	; 221
     256:	42 47       	sbci	r20, 0x72	; 114
     258:	26 25       	eor	r18, r6
     25a:	25 2d       	mov	r18, r5
     25c:	89 2a       	or	r8, r25
     25e:	59 00       	.word	0x0059	; ????
     260:	4c 08       	sbc	r4, r12
     262:	3d 42       	sbci	r19, 0x2D	; 45
     264:	47 d8       	rcall	.-3954   	; 0xfffff2f4 <__eeprom_end+0xff7ef2f4>
     266:	e3 20       	and	r14, r3
     268:	4d 0b       	sbc	r20, r29
     26a:	3d 42       	sbci	r19, 0x2D	; 45
     26c:	47 a6       	std	Z+47, r4	; 0x2f
     26e:	2d 4b       	sbci	r18, 0xBD	; 189
     270:	a2 d9       	rcall	.-3260   	; 0xfffff5b6 <__eeprom_end+0xff7ef5b6>
     272:	02 4e       	sbci	r16, 0xE2	; 226
     274:	0c 3d       	cpi	r16, 0xDC	; 220
     276:	42 47       	sbci	r20, 0x72	; 114
     278:	a6 4d       	sbci	r26, 0xD6	; 214
     27a:	4a 22       	and	r4, r26
     27c:	6d 5a       	subi	r22, 0xAD	; 173
     27e:	00 4f       	sbci	r16, 0xF0	; 240
     280:	0a 3d       	cpi	r16, 0xDA	; 218
     282:	42 cf       	rjmp	.-380    	; 0x108 <__trampolines_end+0x7c>
     284:	92 79       	andi	r25, 0x92	; 146
     286:	4b 16       	cp	r4, r27
     288:	00 50       	subi	r16, 0x00	; 0
     28a:	0c 3d       	cpi	r16, 0xDC	; 220
     28c:	42 c7       	rjmp	.+3716   	; 0x1112 <__stack+0x13>
     28e:	90 64       	ori	r25, 0x40	; 64
     290:	da a0       	ldd	r13, Y+34	; 0x22
     292:	84 45       	sbci	r24, 0x54	; 84
     294:	00 51       	subi	r16, 0x10	; 16
     296:	0a 45       	sbci	r16, 0x5A	; 90
     298:	3e cf       	rjmp	.-388    	; 0x116 <__trampolines_end+0x8a>
     29a:	92 79       	andi	r25, 0x92	; 146
     29c:	a9 ac       	ldd	r10, Y+57	; 0x39
     29e:	01 52       	subi	r16, 0x21	; 33
     2a0:	0d 3d       	cpi	r16, 0xDD	; 221
     2a2:	42 c7       	rjmp	.+3716   	; 0x1128 <u8g2_FirstPage+0x2>
     2a4:	90 64       	ori	r25, 0x40	; 64
     2a6:	da a0       	ldd	r13, Y+34	; 0x22
     2a8:	94 2a       	or	r9, r20
     2aa:	59 00       	.word	0x0059	; ????
     2ac:	53 0b       	sbc	r21, r19
     2ae:	3d 42       	sbci	r19, 0x2D	; 45
     2b0:	cf 92       	push	r12
     2b2:	a9 ab       	std	Y+49, r26	; 0x31
     2b4:	96 2c       	mov	r9, r6
     2b6:	00 54       	subi	r16, 0x40	; 64
     2b8:	09 3d       	cpi	r16, 0xD9	; 217
     2ba:	42 c7       	rjmp	.+3716   	; 0x1140 <u8g2_FirstPage+0x1a>
     2bc:	20 85       	ldd	r18, Z+8	; 0x08
     2be:	3d 01       	movw	r6, r26
     2c0:	55 09       	sbc	r21, r5
     2c2:	3d 42       	sbci	r19, 0x2D	; 45
     2c4:	47 e6       	ldi	r20, 0x67	; 103
     2c6:	5b b2       	in	r5, 0x1b	; 27
     2c8:	00 56       	subi	r16, 0x60	; 96
     2ca:	0d 3d       	cpi	r16, 0xDD	; 221
     2cc:	42 47       	sbci	r20, 0x72	; 114
     2ce:	66 4b       	sbci	r22, 0xB6	; 182
     2d0:	4a 49       	sbci	r20, 0x9A	; 154
     2d2:	94 64       	ori	r25, 0x44	; 68
     2d4:	11 00       	.word	0x0011	; ????
     2d6:	57 0a       	sbc	r5, r23
     2d8:	3d 42       	sbci	r19, 0x2D	; 45
     2da:	47 e6       	ldi	r20, 0x67	; 103
     2dc:	92 28       	or	r9, r2
     2de:	c9 2d       	mov	r28, r9
     2e0:	58 0b       	sbc	r21, r24
     2e2:	3d 42       	sbci	r19, 0x2D	; 45
     2e4:	47 a6       	std	Z+47, r4	; 0x2f
     2e6:	25 b5       	in	r18, 0x25	; 37
     2e8:	4a 4d       	sbci	r20, 0xDA	; 218
     2ea:	0b 59       	subi	r16, 0x9B	; 155
     2ec:	0a 3d       	cpi	r16, 0xDA	; 218
     2ee:	42 47       	sbci	r20, 0x72	; 114
     2f0:	a6 25       	eor	r26, r6
     2f2:	b5 b0       	in	r11, 0x05	; 5
     2f4:	09 5a       	subi	r16, 0xA9	; 169
     2f6:	0a 3d       	cpi	r16, 0xDA	; 218
     2f8:	42 c7       	rjmp	.+3716   	; 0x117e <u8g2_NextPage+0x20>
     2fa:	20 66       	ori	r18, 0x60	; 96
     2fc:	1d 07       	cpc	r17, r29
     2fe:	01 5b       	subi	r16, 0xB1	; 177
     300:	08 bb       	out	0x18, r16	; 24
     302:	42 c7       	rjmp	.+3716   	; 0x1188 <u8g2_NextPage+0x2a>
     304:	10 75       	andi	r17, 0x50	; 80
     306:	1a 5c       	subi	r17, 0xCA	; 202
     308:	08 3d       	cpi	r16, 0xD8	; 216
     30a:	42 47       	sbci	r20, 0x72	; 114
     30c:	98 76       	andi	r25, 0x68	; 104
     30e:	0c 5d       	subi	r16, 0xDC	; 220
     310:	08 bb       	out	0x18, r16	; 24
     312:	42 c7       	rjmp	.+3716   	; 0x1198 <u8g2_NextPage+0x3a>
     314:	d4 69       	ori	r29, 0x94	; 148
     316:	08 5e       	subi	r16, 0xE8	; 232
     318:	08 1d       	adc	r16, r8
     31a:	52 57       	subi	r21, 0x72	; 114
     31c:	96 d4       	rcall	.+2348   	; 0xc4a <u8x8_avr_delay+0x39e>
     31e:	02 5f       	subi	r16, 0xF2	; 242
     320:	06 0d       	add	r16, r6
     322:	3e c7       	rjmp	.+3708   	; 0x11a0 <u8g2_NextPage+0x42>
     324:	20 60       	ori	r18, 0x00	; 0
     326:	06 12       	cpse	r0, r22
     328:	5b 47       	sbci	r21, 0x7B	; 123
     32a:	14 61       	ori	r17, 0x14	; 20
     32c:	0a 2d       	mov	r16, r10
     32e:	42 cf       	rjmp	.-380    	; 0x1b4 <__trampolines_end+0x128>
     330:	9a 0c       	add	r9, r10
     332:	5a 32       	cpi	r21, 0x2A	; 42
     334:	04 62       	ori	r16, 0x24	; 36
     336:	0b 3d       	cpi	r16, 0xDB	; 219
     338:	42 47       	sbci	r20, 0x72	; 114
     33a:	58 31       	cpi	r21, 0x18	; 24
     33c:	69 93       	st	Y+, r22
     33e:	a2 00       	.word	0x00a2	; ????
     340:	63 0a       	sbc	r6, r19
     342:	2d 42       	sbci	r18, 0x2D	; 45
     344:	cf 92       	push	r12
     346:	89 59       	subi	r24, 0x99	; 153
     348:	b2 00       	.word	0x00b2	; ????
     34a:	64 0a       	sbc	r6, r20
     34c:	3d 42       	sbci	r19, 0x2D	; 45
     34e:	67 c5       	rjmp	.+2766   	; 0xe1e <u8g2_DrawBox+0x32>
     350:	b4 49       	sbci	r27, 0x94	; 148
     352:	8a 12       	cpse	r8, r26
     354:	65 0a       	sbc	r6, r21
     356:	2d 42       	sbci	r18, 0x2D	; 45
     358:	cf 92       	push	r12
     35a:	0d 43       	sbci	r16, 0x3D	; 61
     35c:	ba 00       	.word	0x00ba	; ????
     35e:	66 0b       	sbc	r22, r22
     360:	3d 42       	sbci	r19, 0x2D	; 45
     362:	97 54       	subi	r25, 0x47	; 71
     364:	c9 86       	std	Y+9, r12	; 0x09
     366:	28 ac       	ldd	r2, Y+56	; 0x38
     368:	01 67       	ori	r16, 0x71	; 113
     36a:	0c 3d       	cpi	r16, 0xDC	; 220
     36c:	3a cf       	rjmp	.-396    	; 0x1e2 <__trampolines_end+0x156>
     36e:	a0 69       	ori	r26, 0x90	; 144
     370:	c9 10       	cpse	r12, r9
     372:	6a c9       	rjmp	.-3372   	; 0xfffff648 <__eeprom_end+0xff7ef648>
     374:	02 68       	ori	r16, 0x82	; 130
     376:	0a 3d       	cpi	r16, 0xDA	; 218
     378:	42 47       	sbci	r20, 0x72	; 114
     37a:	58 31       	cpi	r21, 0x18	; 24
     37c:	69 b6       	in	r6, 0x39	; 57
     37e:	00 69       	ori	r16, 0x90	; 144
     380:	08 bb       	out	0x18, r16	; 24
     382:	42 4f       	sbci	r20, 0xF2	; 242
     384:	28 b5       	in	r18, 0x28	; 40
     386:	0c 6a       	ori	r16, 0xAC	; 172
     388:	0b cc       	rjmp	.-2026   	; 0xfffffba0 <__eeprom_end+0xff7efba0>
     38a:	3a 5f       	subi	r19, 0xFA	; 250
     38c:	ac d5       	rcall	.+2904   	; 0xee6 <u8g2_DrawFrame+0x80>
     38e:	24 29       	or	r18, r4
     390:	51 00       	.word	0x0051	; ????
     392:	6b 0b       	sbc	r22, r27
     394:	3d 42       	sbci	r19, 0x2D	; 45
     396:	47 58       	subi	r20, 0x87	; 135
     398:	93 92       	.word	0x9293	; ????
     39a:	a9 92       	st	Y+, r10
     39c:	05 6c       	ori	r16, 0xC5	; 197
     39e:	08 bb       	out	0x18, r16	; 24
     3a0:	42 87       	std	Z+10, r20	; 0x0a
     3a2:	d4 cb       	rjmp	.-2136   	; 0xfffffb4c <__eeprom_end+0xff7efb4c>
     3a4:	00 6d       	ori	r16, 0xD0	; 208
     3a6:	0b 2d       	mov	r16, r11
     3a8:	42 87       	std	Z+10, r20	; 0x0a
     3aa:	d2 a2       	std	Z+34, r13	; 0x22
     3ac:	24 4a       	sbci	r18, 0xA4	; 164
     3ae:	a2 05       	cpc	r26, r2
     3b0:	6e 09       	sbc	r22, r14
     3b2:	2d 42       	sbci	r18, 0x2D	; 45
     3b4:	47 62       	ori	r20, 0x27	; 39
     3b6:	d2 6c       	ori	r29, 0xC2	; 194
     3b8:	01 6f       	ori	r16, 0xF1	; 241
     3ba:	09 2d       	mov	r16, r9
     3bc:	42 cf       	rjmp	.-380    	; 0x242 <__trampolines_end+0x1b6>
     3be:	92 d9       	rcall	.-3292   	; 0xfffff6e4 <__eeprom_end+0xff7ef6e4>
     3c0:	92 05       	cpc	r25, r2
     3c2:	70 0c       	add	r7, r0
     3c4:	3d 3a       	cpi	r19, 0xAD	; 173
     3c6:	47 62       	ori	r20, 0x27	; 39
     3c8:	d2 26       	eor	r13, r18
     3ca:	45 09       	sbc	r20, r5
     3cc:	43 00       	.word	0x0043	; ????
     3ce:	71 0a       	sbc	r7, r17
     3d0:	3d 3a       	cpi	r19, 0xAD	; 173
     3d2:	8f 69       	ori	r24, 0x9F	; 159
     3d4:	93 14       	cp	r9, r3
     3d6:	25 2c       	mov	r2, r5
     3d8:	72 09       	sbc	r23, r2
     3da:	2d 42       	sbci	r18, 0x2D	; 45
     3dc:	47 62       	ori	r20, 0x27	; 39
     3de:	12 8b       	std	Z+18, r17	; 0x12
     3e0:	00 73       	andi	r16, 0x30	; 48
     3e2:	09 2d       	mov	r16, r9
     3e4:	42 cf       	rjmp	.-380    	; 0x26a <__trampolines_end+0x1de>
     3e6:	92 1e       	adc	r9, r18
     3e8:	14 00       	.word	0x0014	; ????
     3ea:	74 0c       	add	r7, r4
     3ec:	3d 42       	sbci	r19, 0x2D	; 45
     3ee:	4f 98       	cbi	0x09, 7	; 9
     3f0:	0d 51       	subi	r16, 0x1D	; 29
     3f2:	58 8a       	std	Y+16, r5	; 0x10
     3f4:	14 00       	.word	0x0014	; ????
     3f6:	75 09       	sbc	r23, r5
     3f8:	2d 42       	sbci	r18, 0x2D	; 45
     3fa:	47 e6       	ldi	r20, 0x67	; 103
     3fc:	a4 28       	or	r10, r4
     3fe:	01 76       	andi	r16, 0x61	; 97
     400:	0b 2d       	mov	r16, r11
     402:	42 47       	sbci	r20, 0x72	; 114
     404:	a6 25       	eor	r26, r6
     406:	a5 24       	eor	r10, r5
     408:	8b 00       	.word	0x008b	; ????
     40a:	77 0a       	sbc	r7, r23
     40c:	2d 42       	sbci	r18, 0x2D	; 45
     40e:	47 66       	ori	r20, 0x67	; 103
     410:	49 94       	.word	0x9449	; ????
     412:	2e 00       	.word	0x002e	; ????
     414:	78 0a       	sbc	r7, r24
     416:	2d 42       	sbci	r18, 0x2D	; 45
     418:	47 96       	adiw	r24, 0x17	; 23
     41a:	d4 2a       	or	r13, r20
     41c:	b5 00       	.word	0x00b5	; ????
     41e:	79 0c       	add	r7, r9
     420:	3d 3a       	cpi	r19, 0xAD	; 173
     422:	47 66       	ori	r20, 0x67	; 103
     424:	52 94       	swap	r5
     426:	50 4b       	sbci	r21, 0xB0	; 176
     428:	16 00       	.word	0x0016	; ????
     42a:	7a 09       	sbc	r23, r10
     42c:	2d 42       	sbci	r18, 0x2D	; 45
     42e:	c7 a0       	ldd	r12, Z+39	; 0x27
     430:	b5 0d       	add	r27, r5
     432:	02 7b       	andi	r16, 0xB2	; 178
     434:	0a bc       	out	0x2a, r0	; 42
     436:	42 97       	sbiw	r24, 0x12	; 18
     438:	12 26       	eor	r1, r18
     43a:	62 14       	cp	r6, r2
     43c:	0a 7c       	andi	r16, 0xCA	; 202
     43e:	06 39       	cpi	r16, 0x96	; 150
     440:	43 c7       	rjmp	.+3718   	; 0x12c8 <u8g2_font_get_word+0x2>
     442:	21 7d       	andi	r18, 0xD1	; 209
     444:	0b bc       	out	0x2b, r0	; 43
     446:	42 87       	std	Z+10, r20	; 0x0a
     448:	18 85       	ldd	r17, Y+8	; 0x08
     44a:	4a 98       	cbi	0x09, 2	; 9
     44c:	48 00       	.word	0x0048	; ????
     44e:	7e 09       	sbc	r23, r14
     450:	1d 52       	subi	r17, 0x2D	; 45
     452:	4f a4       	ldd	r4, Y+47	; 0x2f
     454:	24 52       	subi	r18, 0x24	; 36
     456:	02 a0       	ldd	r0, Z+34	; 0x22
     458:	05 00       	.word	0x0005	; ????
     45a:	62 07       	cpc	r22, r18
     45c:	a1 07       	cpc	r26, r17
     45e:	39 43       	sbci	r19, 0x39	; 57
     460:	47 32       	cpi	r20, 0x27	; 39
     462:	08 a2       	std	Y+32, r0	; 0x20
     464:	0e 3d       	cpi	r16, 0xDE	; 222
     466:	3e 57       	subi	r19, 0x7E	; 126
     468:	36 28       	or	r3, r6
     46a:	51 12       	cpse	r5, r17
     46c:	25 d9       	rcall	.-3510   	; 0xfffff6b8 <__eeprom_end+0xff7ef6b8>
     46e:	10 45       	sbci	r17, 0x50	; 80
     470:	00 a3       	std	Z+32, r16	; 0x20
     472:	0c 3d       	cpi	r16, 0xDC	; 220
     474:	42 97       	sbiw	r24, 0x12	; 18
     476:	54 c9       	rjmp	.-3416   	; 0xfffff720 <__eeprom_end+0xff7ef720>
     478:	b6 30       	cpi	r27, 0x06	; 6
     47a:	52 14       	cp	r5, r2
     47c:	00 a4       	ldd	r0, Z+40	; 0x28
     47e:	0b 2d       	mov	r16, r11
     480:	42 47       	sbci	r20, 0x72	; 114
     482:	96 4c       	sbci	r25, 0xC6	; 198
     484:	49 b4       	in	r4, 0x29	; 41
     486:	64 01       	movw	r12, r8
     488:	a5 0d       	add	r26, r5
     48a:	45 3e       	cpi	r20, 0xE5	; 229
     48c:	47 a6       	std	Z+47, r4	; 0x2f
     48e:	25 b5       	in	r18, 0x25	; 37
     490:	68 90       	.word	0x9068	; ????
     492:	c2 12       	cpse	r12, r18
     494:	00 a6       	std	Z+40, r0	; 0x28
     496:	06 39       	cpi	r16, 0x96	; 150
     498:	43 c7       	rjmp	.+3718   	; 0x1320 <u8g2_font_get_word+0x5a>
     49a:	32 a7       	std	Z+42, r19	; 0x2a
     49c:	0b 45       	sbci	r16, 0x5B	; 91
     49e:	3e cf       	rjmp	.-388    	; 0x31c <__trampolines_end+0x290>
     4a0:	12 4e       	sbci	r17, 0xE2	; 226
     4a2:	9d c6       	rjmp	.+3386   	; 0x11de <u8g2_m_16_8_f+0x6>
     4a4:	64 01       	movw	r12, r8
     4a6:	a8 06       	cpc	r10, r24
     4a8:	8b 5e       	subi	r24, 0xEB	; 235
     4aa:	47 12       	cpse	r4, r23
     4ac:	a9 0d       	add	r26, r9
     4ae:	3d 42       	sbci	r19, 0x2D	; 45
     4b0:	cf 92       	push	r12
     4b2:	29 c9       	rjmp	.-3502   	; 0xfffff706 <__eeprom_end+0xff7ef706>
     4b4:	a4 24       	eor	r10, r4
     4b6:	5a b2       	in	r5, 0x1a	; 26
     4b8:	00 aa       	std	Z+48, r0	; 0x30
     4ba:	0a b4       	in	r0, 0x2a	; 42
     4bc:	46 cf       	rjmp	.-372    	; 0x34a <__trampolines_end+0x2be>
     4be:	10 29       	or	r17, r0
     4c0:	4a 71       	andi	r20, 0x1A	; 26
     4c2:	08 ab       	std	Y+48, r16	; 0x30
     4c4:	0c 2e       	mov	r0, r28
     4c6:	42 57       	subi	r20, 0x72	; 114
     4c8:	25 4a       	sbci	r18, 0xA5	; 165
     4ca:	a2 2c       	mov	r10, r2
     4cc:	ca a2       	std	Y+34, r12	; 0x22
     4ce:	00 ac       	ldd	r0, Z+56	; 0x38
     4d0:	07 94       	ror	r0
     4d2:	4a c7       	rjmp	.+3732   	; 0x1368 <u8g2_read_font_info+0xa>
     4d4:	90 05       	cpc	r25, r0
     4d6:	ad 06       	cpc	r10, r29
     4d8:	8c 4e       	sbci	r24, 0xEC	; 236
     4da:	c7 10       	cpse	r12, r7
     4dc:	ae 0c       	add	r10, r14
     4de:	3d 42       	sbci	r19, 0x2D	; 45
     4e0:	cf 92       	push	r12
     4e2:	0d c9       	rjmp	.-3558   	; 0xfffff6fe <__eeprom_end+0xff7ef6fe>
     4e4:	34 69       	ori	r19, 0x94	; 148
     4e6:	c9 02       	muls	r28, r25
     4e8:	af 06       	cpc	r10, r31
     4ea:	0d 5e       	subi	r16, 0xED	; 237
     4ec:	c7 20       	and	r12, r7
     4ee:	b0 07       	cpc	r27, r16
     4f0:	9b 52       	subi	r25, 0x2B	; 43
     4f2:	4f 17       	cp	r20, r31
     4f4:	00 b1       	in	r16, 0x00	; 0
     4f6:	0b 35       	cpi	r16, 0x5B	; 91
     4f8:	42 57       	subi	r20, 0x72	; 114
     4fa:	18 0d       	add	r17, r8
     4fc:	52 18       	sub	r5, r2
     4fe:	0d 02       	muls	r16, r29
     500:	b2 09       	sbc	r27, r2
     502:	ac 4e       	sbci	r26, 0xEC	; 236
     504:	8f 12       	cpse	r8, r31
     506:	35 0d       	add	r19, r5
     508:	01 b3       	in	r16, 0x11	; 17
     50a:	09 ac       	ldd	r0, Y+57	; 0x39
     50c:	4e c7       	rjmp	.+3740   	; 0x13aa <u8g2_read_font_info+0x4c>
     50e:	98 88       	ldd	r9, Y+16	; 0x10
     510:	43 02       	muls	r20, r19
     512:	b4 06       	cpc	r11, r20
     514:	12 5b       	subi	r17, 0xB2	; 178
     516:	8f 02       	muls	r24, r31
     518:	b5 0a       	sbc	r11, r21
     51a:	35 3e       	cpi	r19, 0xE5	; 229
     51c:	47 66       	ori	r20, 0x67	; 103
     51e:	9b 14       	cp	r9, r11
     520:	25 04       	cpc	r2, r5
     522:	b6 0f       	add	r27, r22
     524:	3d 42       	sbci	r19, 0x2D	; 45
     526:	cf 30       	cpi	r28, 0x0F	; 15
     528:	24 43       	sbci	r18, 0x34	; 52
     52a:	92 28       	or	r9, r2
     52c:	51 12       	cpse	r5, r17
     52e:	25 51       	subi	r18, 0x15	; 21
     530:	12 b7       	in	r17, 0x32	; 50
     532:	06 09       	sbc	r16, r6
     534:	4f 47       	sbci	r20, 0x7F	; 127
     536:	00 b8       	out	0x00, r0	; 0
     538:	06 12       	cpse	r0, r22
     53a:	3b 8f       	std	Y+27, r19	; 0x1b
     53c:	02 b9       	out	0x02, r16	; 2
     53e:	08 ab       	std	Y+48, r16	; 0x30
     540:	4e 4f       	sbci	r20, 0xFE	; 254
     542:	22 55       	subi	r18, 0x52	; 82
     544:	06 ba       	out	0x16, r0	; 22
     546:	0a b4       	in	r0, 0x2a	; 42
     548:	46 8f       	std	Z+30, r20	; 0x1e
     54a:	12 49       	sbci	r17, 0x92	; 146
     54c:	89 3a       	cpi	r24, 0xA9	; 169
     54e:	04 bb       	out	0x14, r16	; 20
     550:	0d 2e       	mov	r0, r29
     552:	42 47       	sbci	r20, 0x72	; 114
     554:	94 45       	sbci	r25, 0x54	; 84
     556:	59 94       	.word	0x9459	; ????
     558:	44 49       	sbci	r20, 0x94	; 148
     55a:	14 01       	movw	r2, r8
     55c:	bc 0d       	add	r27, r12
     55e:	4e 3e       	cpi	r20, 0xEE	; 238
     560:	4f a8       	ldd	r4, Y+55	; 0x37
     562:	16 a7       	std	Z+46, r17	; 0x2e
     564:	50 4b       	sbci	r21, 0xB0	; 176
     566:	a2 21       	and	r26, r2
     568:	0d bd       	out	0x2d, r16	; 45
     56a:	0c 4e       	sbci	r16, 0xEC	; 236
     56c:	3e 4f       	sbci	r19, 0xFE	; 254
     56e:	a8 16       	cp	r10, r24
     570:	97 30       	cpi	r25, 0x07	; 7
     572:	49 c3       	rjmp	.+1682   	; 0xc06 <u8x8_avr_delay+0x35a>
     574:	70 be       	out	0x30, r7	; 48
     576:	0e 4d       	sbci	r16, 0xDE	; 222
     578:	3e 87       	std	Y+14, r19	; 0x0e
     57a:	9a a5       	ldd	r25, Y+42	; 0x2a
     57c:	91 94       	neg	r9
     57e:	49 49       	sbci	r20, 0x99	; 153
     580:	32 84       	ldd	r3, Z+10	; 0x0a
     582:	01 bf       	out	0x31, r16	; 49
     584:	0a 3d       	cpi	r16, 0xDA	; 218
     586:	42 57       	subi	r20, 0x72	; 114
     588:	0e 85       	ldd	r16, Y+14	; 0x0e
     58a:	59 cb       	rjmp	.-2382   	; 0xfffffc3e <__eeprom_end+0xff7efc3e>
     58c:	02 c0       	rjmp	.+4      	; 0x592 <__LOCK_REGION_LENGTH__+0x192>
     58e:	0c 45       	sbci	r16, 0x5C	; 92
     590:	42 4f       	sbci	r20, 0xF2	; 242
     592:	9a 2d       	mov	r25, r10
     594:	99 36       	cpi	r25, 0x69	; 105
     596:	0c 99       	sbic	0x01, 4	; 1
     598:	16 c1       	rjmp	.+556    	; 0x7c6 <__LOCK_REGION_LENGTH__+0x3c6>
     59a:	0c 45       	sbci	r16, 0x5C	; 92
     59c:	42 5f       	subi	r20, 0xF2	; 242
     59e:	6d c9       	rjmp	.-3366   	; 0xfffff87a <__eeprom_end+0xff7ef87a>
     5a0:	b4 61       	ori	r27, 0x14	; 20
     5a2:	c8 b4       	in	r12, 0x28	; 40
     5a4:	00 c2       	rjmp	.+1024   	; 0x9a6 <u8x8_avr_delay+0xfa>
     5a6:	0d 45       	sbci	r16, 0x5D	; 93
     5a8:	42 57       	subi	r20, 0x72	; 114
     5aa:	96 44       	sbci	r25, 0x46	; 70
     5ac:	4b a6       	std	Y+43, r4	; 0x2b
     5ae:	0d 43       	sbci	r16, 0x3D	; 61
     5b0:	a6 05       	cpc	r26, r6
     5b2:	c3 0d       	add	r28, r3
     5b4:	45 42       	sbci	r20, 0x25	; 37
     5b6:	4f a4       	ldd	r4, Y+47	; 0x2f
     5b8:	48 4b       	sbci	r20, 0xB8	; 184
     5ba:	a6 0d       	add	r26, r6
     5bc:	43 a6       	std	Z+43, r4	; 0x2b
     5be:	05 c4       	rjmp	.+2058   	; 0xdca <main+0x44>
     5c0:	0c 45       	sbci	r16, 0x5C	; 92
     5c2:	42 4f       	sbci	r20, 0xF2	; 242
     5c4:	1d 58       	subi	r17, 0x8D	; 141
     5c6:	32 6d       	ori	r19, 0xD2	; 210
     5c8:	18 32       	cpi	r17, 0x28	; 40
     5ca:	2d c5       	rjmp	.+2650   	; 0x1026 <u8g2_send_tile_row+0x80>
     5cc:	0d 45       	sbci	r16, 0x5D	; 93
     5ce:	42 57       	subi	r20, 0x72	; 114
     5d0:	96 44       	sbci	r25, 0x46	; 70
     5d2:	4b a6       	std	Y+43, r4	; 0x2b
     5d4:	0d 43       	sbci	r16, 0x3D	; 61
     5d6:	a6 05       	cpc	r26, r6
     5d8:	c6 0c       	add	r12, r6
     5da:	3e 42       	sbci	r19, 0x2E	; 46
     5dc:	d7 90       	elpm	r13, Z+
     5de:	94 9a       	sbi	0x12, 4	; 18
     5e0:	86 21       	and	r24, r6
     5e2:	6a 1a       	sub	r6, r26
     5e4:	c7 0b       	sbc	r28, r23
     5e6:	4d 3a       	cpi	r20, 0xAD	; 173
     5e8:	cf 92       	push	r12
     5ea:	89 6d       	ori	r24, 0xD9	; 217
     5ec:	c9 56       	subi	r28, 0x69	; 105
     5ee:	03 c8       	rjmp	.-4090   	; 0xfffff5f6 <__eeprom_end+0xff7ef5f6>
     5f0:	0c 45       	sbci	r16, 0x5C	; 92
     5f2:	42 4f       	sbci	r20, 0xF2	; 242
     5f4:	36 8c       	ldd	r3, Z+30	; 0x1e
     5f6:	e1 90       	ld	r14, Z+
     5f8:	84 e1       	ldi	r24, 0x14	; 20
     5fa:	20 c9       	rjmp	.-3520   	; 0xfffff83c <__eeprom_end+0xff7ef83c>
     5fc:	0c 45       	sbci	r16, 0x5C	; 92
     5fe:	42 5f       	subi	r20, 0xF2	; 242
     600:	32 8c       	ldd	r3, Z+26	; 0x1a
     602:	e1 90       	ld	r14, Z+
     604:	84 e1       	ldi	r24, 0x14	; 20
     606:	20 ca       	rjmp	.-3008   	; 0xfffffa48 <__eeprom_end+0xff7efa48>
     608:	0c 45       	sbci	r16, 0x5C	; 92
     60a:	42 57       	subi	r20, 0x72	; 114
     60c:	34 8c       	ldd	r3, Z+28	; 0x1c
     60e:	e1 90       	ld	r14, Z+
     610:	84 e1       	ldi	r24, 0x14	; 20
     612:	20 cb       	rjmp	.-2496   	; 0xfffffc54 <__eeprom_end+0xff7efc54>
     614:	0c 45       	sbci	r16, 0x5C	; 92
     616:	42 4f       	sbci	r20, 0xF2	; 242
     618:	65 18       	sub	r6, r5
     61a:	c3 21       	and	r28, r3
     61c:	09 c3       	rjmp	.+1554   	; 0xc30 <u8x8_avr_delay+0x384>
     61e:	41 cc       	rjmp	.-1918   	; 0xfffffea2 <__eeprom_end+0xff7efea2>
     620:	0a c3       	rjmp	.+1556   	; 0xc36 <u8x8_avr_delay+0x38a>
     622:	42 47       	sbci	r20, 0x72	; 114
     624:	96 2c       	mov	r9, r6
     626:	51 cb       	rjmp	.-2398   	; 0xfffffcca <__eeprom_end+0xff7efcca>
     628:	00 cd       	rjmp	.-1536   	; 0x2a <__FUSE_REGION_LENGTH__+0x27>
     62a:	0a c3       	rjmp	.+1556   	; 0xc40 <u8x8_avr_delay+0x394>
     62c:	42 57       	subi	r20, 0x72	; 114
     62e:	92 2c       	mov	r9, r2
     630:	51 cb       	rjmp	.-2398   	; 0xfffffcd4 <__eeprom_end+0xff7efcd4>
     632:	00 ce       	rjmp	.-1024   	; 0x234 <__trampolines_end+0x1a8>
     634:	0a c3       	rjmp	.+1556   	; 0xc4a <u8x8_avr_delay+0x39e>
     636:	42 4f       	sbci	r20, 0xF2	; 242
     638:	65 48       	sbci	r22, 0x85	; 133
     63a:	a2 96       	adiw	r28, 0x22	; 34
     63c:	01 cf       	rjmp	.-510    	; 0x440 <__LOCK_REGION_LENGTH__+0x40>
     63e:	0a c3       	rjmp	.+1556   	; 0xc54 <u8x8_avr_delay+0x3a8>
     640:	42 47       	sbci	r20, 0x72	; 114
     642:	92 2d       	mov	r25, r2
     644:	51 cb       	rjmp	.-2398   	; 0xfffffce8 <__eeprom_end+0xff7efce8>
     646:	00 d0       	rcall	.+0      	; 0x648 <__LOCK_REGION_LENGTH__+0x248>
     648:	0e 3d       	cpi	r16, 0xDE	; 222
     64a:	42 c7       	rjmp	.+3716   	; 0x14d0 <u8g2_read_font_info+0x172>
     64c:	10 55       	subi	r17, 0x50	; 80
     64e:	a2 21       	and	r26, r2
     650:	29 25       	eor	r18, r9
     652:	d1 a0       	ldd	r13, Z+33	; 0x21
     654:	00 d1       	rcall	.+512    	; 0x856 <__LOCK_REGION_LENGTH__+0x456>
     656:	0c 45       	sbci	r16, 0x5C	; 92
     658:	42 57       	subi	r20, 0x72	; 114
     65a:	d2 6d       	ori	r29, 0xD2	; 210
     65c:	52 12       	cpse	r5, r18
     65e:	69 d3       	rcall	.+1746   	; 0xd32 <u8x8_avr_gpio_and_delay+0xd6>
     660:	02 d2       	rcall	.+1028   	; 0xa66 <u8x8_avr_delay+0x1ba>
     662:	0b 45       	sbci	r16, 0x5B	; 91
     664:	42 4f       	sbci	r20, 0xF2	; 242
     666:	9a 2d       	mov	r25, r10
     668:	99 5b       	subi	r25, 0xB9	; 185
     66a:	b2 00       	.word	0x00b2	; ????
     66c:	d3 0a       	sbc	r13, r19
     66e:	45 42       	sbci	r20, 0x25	; 37
     670:	5f 6d       	ori	r21, 0xDF	; 223
     672:	c9 dc       	rcall	.-1646   	; 0x6 <__FUSE_REGION_LENGTH__+0x3>
     674:	92 05       	cpc	r25, r2
     676:	d4 0c       	add	r13, r4
     678:	45 42       	sbci	r20, 0x25	; 37
     67a:	57 96       	adiw	r26, 0x17	; 23
     67c:	44 4b       	sbci	r20, 0xB4	; 180
     67e:	e6 96       	adiw	r28, 0x36	; 54
     680:	2c 00       	.word	0x002c	; ????
     682:	d5 0b       	sbc	r29, r21
     684:	45 42       	sbci	r20, 0x25	; 37
     686:	57 d2       	rcall	.+1198   	; 0xb36 <u8x8_avr_delay+0x28a>
     688:	b4 64       	ori	r27, 0x44	; 68
     68a:	6e c9       	rjmp	.-3364   	; 0xfffff968 <__eeprom_end+0xff7ef968>
     68c:	02 d6       	rcall	.+3076   	; 0x1292 <u8g2_font_get_byte+0x18>
     68e:	0b 45       	sbci	r16, 0x5B	; 91
     690:	42 4f       	sbci	r20, 0xF2	; 242
     692:	1d 58       	subi	r17, 0x8D	; 141
     694:	32 b7       	in	r19, 0x32	; 50
     696:	64 01       	movw	r12, r8
     698:	d7 0a       	sbc	r13, r23
     69a:	2d 42       	sbci	r18, 0x2D	; 45
     69c:	47 96       	adiw	r24, 0x17	; 23
     69e:	d4 2a       	or	r13, r20
     6a0:	b5 00       	.word	0x00b5	; ????
     6a2:	d8 0c       	add	r13, r8
     6a4:	3d 42       	sbci	r19, 0x2D	; 45
     6a6:	cf 12       	cpse	r12, r31
     6a8:	5d 92       	st	X+, r5
     6aa:	69 4a       	sbci	r22, 0xA9	; 169
     6ac:	16 00       	.word	0x0016	; ????
     6ae:	d9 0a       	sbc	r13, r25
     6b0:	45 42       	sbci	r20, 0x25	; 37
     6b2:	4f 1a       	sub	r4, r31
     6b4:	65 de       	rcall	.-822    	; 0x380 <__trampolines_end+0x2f4>
     6b6:	92 05       	cpc	r25, r2
     6b8:	da 0a       	sbc	r13, r26
     6ba:	45 42       	sbci	r20, 0x25	; 37
     6bc:	5f 29       	or	r21, r15
     6be:	f3 96       	adiw	r30, 0x33	; 51
     6c0:	2c 00       	.word	0x002c	; ????
     6c2:	db 0b       	sbc	r29, r27
     6c4:	45 42       	sbci	r20, 0x25	; 37
     6c6:	57 96       	adiw	r26, 0x17	; 23
     6c8:	c4 99       	sbic	0x18, 4	; 24
     6ca:	5b b2       	in	r5, 0x1b	; 27
     6cc:	00 dc       	rcall	.-2048   	; 0xfffffece <__eeprom_end+0xff7efece>
     6ce:	0a 45       	sbci	r16, 0x5A	; 90
     6d0:	42 4f       	sbci	r20, 0xF2	; 242
     6d2:	39 f3       	breq	.-50     	; 0x6a2 <__LOCK_REGION_LENGTH__+0x2a2>
     6d4:	96 2c       	mov	r9, r6
     6d6:	00 dd       	rcall	.-1536   	; 0xd8 <__trampolines_end+0x4c>
     6d8:	0b 45       	sbci	r16, 0x5B	; 91
     6da:	42 5f       	subi	r20, 0xF2	; 242
     6dc:	29 d3       	rcall	.+1618   	; 0xd30 <u8x8_avr_gpio_and_delay+0xd4>
     6de:	92 5a       	subi	r25, 0xA2	; 162
     6e0:	58 02       	muls	r21, r24
     6e2:	de 0c       	add	r13, r14
     6e4:	3d 42       	sbci	r19, 0x2D	; 45
     6e6:	47 38       	cpi	r20, 0x87	; 135
     6e8:	24 d9       	rcall	.-3512   	; 0xfffff932 <__eeprom_end+0xff7ef932>
     6ea:	a0 84       	ldd	r10, Z+8	; 0x08
     6ec:	45 00       	.word	0x0045	; ????
     6ee:	df 0d       	add	r29, r15
     6f0:	3d 42       	sbci	r19, 0x2D	; 45
     6f2:	cf 92       	push	r12
     6f4:	49 49       	sbci	r20, 0x99	; 153
     6f6:	a9 92       	st	Y+, r10
     6f8:	29 0a       	sbc	r2, r25
     6fa:	00 e0       	ldi	r16, 0x00	; 0
     6fc:	0c 45       	sbci	r16, 0x5C	; 92
     6fe:	42 4f       	sbci	r20, 0xF2	; 242
     700:	9a 23       	and	r25, r26
     702:	6b 32       	cpi	r22, 0x2B	; 43
     704:	68 c9       	rjmp	.-3376   	; 0xfffff9d6 <__eeprom_end+0xff7ef9d6>
     706:	10 e1       	ldi	r17, 0x10	; 16
     708:	0c 45       	sbci	r16, 0x5C	; 92
     70a:	42 5f       	subi	r20, 0xF2	; 242
     70c:	1d 59       	subi	r17, 0x9D	; 157
     70e:	93 41       	sbci	r25, 0x13	; 19
     710:	4b 86       	std	Y+11, r4	; 0x0b
     712:	00 e2       	ldi	r16, 0x20	; 32
     714:	0d 45       	sbci	r16, 0x5D	; 93
     716:	42 57       	subi	r20, 0x72	; 114
     718:	96 e4       	ldi	r25, 0x46	; 70
     71a:	c0 9a       	sbi	0x18, 0	; 24
     71c:	0c 5a       	subi	r16, 0xAC	; 172
     71e:	32 04       	cpc	r3, r2
     720:	e3 0d       	add	r30, r3
     722:	45 42       	sbci	r20, 0x25	; 37
     724:	57 d2       	rcall	.+1198   	; 0xbd4 <u8x8_avr_delay+0x328>
     726:	0e ac       	ldd	r0, Y+62	; 0x3e
     728:	c9 a0       	ldd	r12, Y+33	; 0x21
     72a:	25 43       	sbci	r18, 0x35	; 53
     72c:	00 e4       	ldi	r16, 0x40	; 64
     72e:	0c 3d       	cpi	r16, 0xDC	; 220
     730:	42 4f       	sbci	r20, 0xF2	; 242
     732:	1d 58       	subi	r17, 0x8D	; 141
     734:	93 41       	sbci	r25, 0x13	; 19
     736:	4b 86       	std	Y+11, r4	; 0x0b
     738:	00 e5       	ldi	r16, 0x50	; 80
     73a:	0d 45       	sbci	r16, 0x5D	; 93
     73c:	42 57       	subi	r20, 0x72	; 114
     73e:	96 64       	ori	r25, 0x46	; 70
     740:	d9 9a       	sbi	0x1b, 1	; 27
     742:	0c 5a       	subi	r16, 0xAC	; 172
     744:	32 04       	cpc	r3, r2
     746:	e6 0c       	add	r14, r6
     748:	2e 42       	sbci	r18, 0x2E	; 46
     74a:	cf 10       	cpse	r12, r15
     74c:	26 c9       	rjmp	.-3508   	; 0xfffff99a <__eeprom_end+0xff7ef99a>
     74e:	30 65       	ori	r19, 0x50	; 80
     750:	83 00       	.word	0x0083	; ????
     752:	e7 0b       	sbc	r30, r23
     754:	3d 3a       	cpi	r19, 0xAD	; 173
     756:	cf 92       	push	r12
     758:	89 59       	subi	r24, 0x99	; 153
     75a:	b2 d5       	rcall	.+2916   	; 0x12c0 <u8g2_font_get_byte+0x46>
     75c:	00 e8       	ldi	r16, 0x80	; 128
     75e:	0c 45       	sbci	r16, 0x5C	; 92
     760:	42 4f       	sbci	r20, 0xF2	; 242
     762:	9a 23       	and	r25, r26
     764:	4b 36       	cpi	r20, 0x6B	; 107
     766:	0c e9       	ldi	r16, 0x9C	; 156
     768:	02 e9       	ldi	r16, 0x92	; 146
     76a:	0c 45       	sbci	r16, 0x5C	; 92
     76c:	42 5f       	subi	r20, 0xF2	; 242
     76e:	1d 59       	subi	r17, 0x9D	; 157
     770:	b2 61       	ori	r27, 0x12	; 18
     772:	48 17       	cp	r20, r24
     774:	00 ea       	ldi	r16, 0xA0	; 160
     776:	0d 45       	sbci	r16, 0x5D	; 93
     778:	42 57       	subi	r20, 0x72	; 114
     77a:	96 e4       	ldi	r25, 0x46	; 70
     77c:	c0 92 0d 43 	sts	0x430D, r12	; 0x80430d <__bss_end+0x3d16>
     780:	ba 00       	.word	0x00ba	; ????
     782:	eb 0c       	add	r14, r11
     784:	3d 42       	sbci	r19, 0x2D	; 45
     786:	4f 1d       	adc	r20, r15
     788:	58 b2       	in	r5, 0x18	; 24
     78a:	61 48       	sbci	r22, 0x81	; 129
     78c:	17 00       	.word	0x0017	; ????
     78e:	ec 09       	sbc	r30, r12
     790:	c3 42       	sbci	r28, 0x23	; 35
     792:	47 16       	cp	r4, r23
     794:	4a 2d       	mov	r20, r10
     796:	03 ed       	ldi	r16, 0xD3	; 211
     798:	08 c3       	rjmp	.+1552   	; 0xdaa <main+0x24>
     79a:	42 4f       	sbci	r20, 0xF2	; 242
     79c:	55 6a       	ori	r21, 0xA5	; 165
     79e:	19 ee       	ldi	r17, 0xE9	; 233
     7a0:	08 c3       	rjmp	.+1552   	; 0xdb2 <main+0x2c>
     7a2:	42 4f       	sbci	r20, 0xF2	; 242
     7a4:	9b d4       	rcall	.+2358   	; 0x10dc <u8g2_SetBufferCurrTileRow+0x10>
     7a6:	32 ef       	ldi	r19, 0xF2	; 242
     7a8:	09 bb       	out	0x19, r16	; 25
     7aa:	42 47       	sbci	r20, 0x72	; 114
     7ac:	92 49       	sbci	r25, 0x92	; 146
     7ae:	2d 03       	fmul	r18, r21
     7b0:	f0 0b       	sbc	r31, r16
     7b2:	3d 42       	sbci	r19, 0x2D	; 45
     7b4:	87 2a       	or	r8, r23
     7b6:	2d 99       	sbic	0x05, 5	; 5
     7b8:	2d 59       	subi	r18, 0x9D	; 157
     7ba:	00 f1       	brcs	.+64     	; 0x7fc <__LOCK_REGION_LENGTH__+0x3fc>
     7bc:	0b 45       	sbci	r16, 0x5B	; 91
     7be:	42 57       	subi	r20, 0x72	; 114
     7c0:	d2 9c       	mul	r13, r2
     7c2:	98 34       	cpi	r25, 0x48	; 72
     7c4:	5b 00       	.word	0x005b	; ????
     7c6:	f2 0c       	add	r15, r2
     7c8:	45 42       	sbci	r20, 0x25	; 37
     7ca:	4f 9a       	sbi	0x09, 7	; 9
     7cc:	23 4b       	sbci	r18, 0xB3	; 179
     7ce:	66 4b       	sbci	r22, 0xB6	; 182
     7d0:	16 00       	.word	0x0016	; ????
     7d2:	f3 0b       	sbc	r31, r19
     7d4:	45 42       	sbci	r20, 0x25	; 37
     7d6:	5f 1d       	adc	r21, r15
     7d8:	59 32       	cpi	r21, 0x29	; 41
     7da:	5b b2       	in	r5, 0x1b	; 27
     7dc:	00 f4       	brcc	.+0      	; 0x7de <__LOCK_REGION_LENGTH__+0x3de>
     7de:	0c 45       	sbci	r16, 0x5C	; 92
     7e0:	42 57       	subi	r20, 0x72	; 114
     7e2:	96 e4       	ldi	r25, 0x46	; 70
     7e4:	c0 92 d9 92 	sts	0x92D9, r12	; 0x8092d9 <__bss_end+0x8ce2>
     7e8:	05 f5       	brhc	.+64     	; 0x82a <__LOCK_REGION_LENGTH__+0x42a>
     7ea:	0c 45       	sbci	r16, 0x5C	; 92
     7ec:	42 57       	subi	r20, 0x72	; 114
     7ee:	d2 0e       	add	r13, r18
     7f0:	2c 99       	sbic	0x05, 4	; 5
     7f2:	2d 59       	subi	r18, 0x9D	; 157
     7f4:	00 f6       	brcc	.-128    	; 0x776 <__LOCK_REGION_LENGTH__+0x376>
     7f6:	0b 3d       	cpi	r16, 0xDB	; 219
     7f8:	42 4f       	sbci	r20, 0xF2	; 242
     7fa:	1d 58       	subi	r17, 0x8D	; 141
     7fc:	32 5b       	subi	r19, 0xB2	; 178
     7fe:	b2 00       	.word	0x00b2	; ????
     800:	f7 0a       	sbc	r15, r23
     802:	2d 46       	sbci	r18, 0x6D	; 109
     804:	57 0e       	add	r5, r23
     806:	0c 3a       	cpi	r16, 0xAC	; 172
     808:	10 01       	movw	r2, r0
     80a:	f8 0b       	sbc	r31, r24
     80c:	2d 42       	sbci	r18, 0x2D	; 45
     80e:	cf 20       	and	r12, r15
     810:	2d c9       	rjmp	.-3494   	; 0xfffffa6c <__eeprom_end+0xff7efa6c>
     812:	34 28       	or	r3, r4
     814:	00 f9       	bld	r16, 0
     816:	0b 45       	sbci	r16, 0x5B	; 91
     818:	42 4f       	sbci	r20, 0xF2	; 242
     81a:	9a 03       	fmulsu	r17, r18
     81c:	99 93       	st	Y+, r25
     81e:	a2 04       	cpc	r10, r2
     820:	fa 0a       	sbc	r15, r26
     822:	45 42       	sbci	r20, 0x25	; 37
     824:	5f 1d       	adc	r21, r15
     826:	c8 9c       	mul	r12, r8
     828:	14 25       	eor	r17, r4
     82a:	fb 0b       	sbc	r31, r27
     82c:	45 42       	sbci	r20, 0x25	; 37
     82e:	57 96       	adiw	r26, 0x17	; 23
     830:	c4 99       	sbic	0x18, 4	; 24
     832:	93 a2       	std	Z+35, r9	; 0x23
     834:	04 fc       	sbrc	r0, 4
     836:	0a 3d       	cpi	r16, 0xDA	; 218
     838:	42 4f       	sbci	r20, 0xF2	; 242
     83a:	39 73       	andi	r19, 0x39	; 57
     83c:	52 94       	swap	r5
     83e:	00 fd       	sbrc	r16, 0
     840:	0d 4d       	sbci	r16, 0xDD	; 221
     842:	3a 5f       	subi	r19, 0xFA	; 250
     844:	29 33       	cpi	r18, 0x39	; 57
     846:	29 4a       	sbci	r18, 0xA9	; 169
     848:	a8 25       	eor	r26, r8
     84a:	0b 00       	.word	0x000b	; ????
     84c:	fe 0c       	add	r15, r14
     84e:	45 3a       	cpi	r20, 0xA5	; 165
     850:	47 38       	cpi	r20, 0x87	; 135
     852:	24 99       	sbic	0x04, 4	; 4
     854:	6d 50       	subi	r22, 0x0D	; 13
     856:	c2 10       	cpse	r12, r2
     858:	ff 0d       	add	r31, r15
     85a:	4d 3a       	cpi	r20, 0xAD	; 173
     85c:	4f 39       	cpi	r20, 0x9F	; 159
     85e:	33 29       	or	r19, r3
     860:	4a a8       	ldd	r4, Y+50	; 0x32
     862:	25 0b       	sbc	r18, r21
     864:	00 00       	nop
     866:	00 00       	nop
     868:	04 ff       	sbrs	r16, 4
     86a:	ff 00       	.word	0x00ff	; ????
	...

0000086e <__ctors_end>:
     86e:	11 24       	eor	r1, r1
     870:	1f be       	out	0x3f, r1	; 63
     872:	cf ef       	ldi	r28, 0xFF	; 255
     874:	d0 e1       	ldi	r29, 0x10	; 16
     876:	de bf       	out	0x3e, r29	; 62
     878:	cd bf       	out	0x3d, r28	; 61

0000087a <__do_copy_data>:
     87a:	11 e0       	ldi	r17, 0x01	; 1
     87c:	a0 e0       	ldi	r26, 0x00	; 0
     87e:	b1 e0       	ldi	r27, 0x01	; 1
     880:	e0 e4       	ldi	r30, 0x40	; 64
     882:	fb e4       	ldi	r31, 0x4B	; 75
     884:	00 e0       	ldi	r16, 0x00	; 0
     886:	0b bf       	out	0x3b, r16	; 59
     888:	02 c0       	rjmp	.+4      	; 0x88e <__do_copy_data+0x14>
     88a:	07 90       	elpm	r0, Z+
     88c:	0d 92       	st	X+, r0
     88e:	a0 39       	cpi	r26, 0x90	; 144
     890:	b1 07       	cpc	r27, r17
     892:	d9 f7       	brne	.-10     	; 0x88a <__do_copy_data+0x10>

00000894 <__do_clear_bss>:
     894:	25 e0       	ldi	r18, 0x05	; 5
     896:	a0 e9       	ldi	r26, 0x90	; 144
     898:	b1 e0       	ldi	r27, 0x01	; 1
     89a:	01 c0       	rjmp	.+2      	; 0x89e <.do_clear_bss_start>

0000089c <.do_clear_bss_loop>:
     89c:	1d 92       	st	X+, r1

0000089e <.do_clear_bss_start>:
     89e:	a7 3f       	cpi	r26, 0xF7	; 247
     8a0:	b2 07       	cpc	r27, r18
     8a2:	e1 f7       	brne	.-8      	; 0x89c <.do_clear_bss_loop>
     8a4:	70 d2       	rcall	.+1248   	; 0xd86 <main>
     8a6:	0c 94 9e 25 	jmp	0x4b3c	; 0x4b3c <_exit>

000008aa <__bad_interrupt>:
     8aa:	aa cb       	rjmp	.-2220   	; 0x0 <__vectors>

000008ac <u8x8_avr_delay>:
#define P_CPU_NS (1000000000UL / F_CPU)

u8g2_t u8g2;

uint8_t u8x8_avr_delay(u8x8_t *u8x8, uint8_t msg, uint8_t arg_int, void *arg_ptr)
{
     8ac:	cf 93       	push	r28
     8ae:	df 93       	push	r29
     8b0:	cd b7       	in	r28, 0x3d	; 61
     8b2:	de b7       	in	r29, 0x3e	; 62
     8b4:	e9 97       	sbiw	r28, 0x39	; 57
     8b6:	0f b6       	in	r0, 0x3f	; 63
     8b8:	f8 94       	cli
     8ba:	de bf       	out	0x3e, r29	; 62
     8bc:	0f be       	out	0x3f, r0	; 63
     8be:	cd bf       	out	0x3d, r28	; 61
     8c0:	9d ab       	std	Y+53, r25	; 0x35
     8c2:	8c ab       	std	Y+52, r24	; 0x34
     8c4:	6e ab       	std	Y+54, r22	; 0x36
     8c6:	4f ab       	std	Y+55, r20	; 0x37
     8c8:	39 af       	std	Y+57, r19	; 0x39
     8ca:	28 af       	std	Y+56, r18	; 0x38
	uint8_t cycles;

	switch(msg)
     8cc:	8e a9       	ldd	r24, Y+54	; 0x36
     8ce:	88 2f       	mov	r24, r24
     8d0:	90 e0       	ldi	r25, 0x00	; 0
     8d2:	8a 32       	cpi	r24, 0x2A	; 42
     8d4:	91 05       	cpc	r25, r1
     8d6:	71 f1       	breq	.+92     	; 0x934 <u8x8_avr_delay+0x88>
     8d8:	8b 32       	cpi	r24, 0x2B	; 43
     8da:	91 05       	cpc	r25, r1
     8dc:	24 f4       	brge	.+8      	; 0x8e6 <u8x8_avr_delay+0x3a>
     8de:	89 97       	sbiw	r24, 0x29	; 41
     8e0:	09 f4       	brne	.+2      	; 0x8e4 <u8x8_avr_delay+0x38>
     8e2:	29 c1       	rjmp	.+594    	; 0xb36 <u8x8_avr_delay+0x28a>
     8e4:	ac c1       	rjmp	.+856    	; 0xc3e <u8x8_avr_delay+0x392>
     8e6:	8b 32       	cpi	r24, 0x2B	; 43
     8e8:	91 05       	cpc	r25, r1
     8ea:	21 f0       	breq	.+8      	; 0x8f4 <u8x8_avr_delay+0x48>
     8ec:	8c 97       	sbiw	r24, 0x2c	; 44
     8ee:	09 f4       	brne	.+2      	; 0x8f2 <u8x8_avr_delay+0x46>
     8f0:	a8 c1       	rjmp	.+848    	; 0xc42 <u8x8_avr_delay+0x396>
     8f2:	a5 c1       	rjmp	.+842    	; 0xc3e <u8x8_avr_delay+0x392>
#define CALL_CYCLES 26UL
#define CALC_CYCLES 4UL
#define RETURN_CYCLES 4UL
#define CYCLES_PER_LOOP 4UL

			cycles = (100UL * arg_int) / (P_CPU_NS * CYCLES_PER_LOOP);
     8f4:	8f a9       	ldd	r24, Y+55	; 0x37
     8f6:	28 2f       	mov	r18, r24
     8f8:	30 e0       	ldi	r19, 0x00	; 0
     8fa:	40 e0       	ldi	r20, 0x00	; 0
     8fc:	50 e0       	ldi	r21, 0x00	; 0
     8fe:	84 e6       	ldi	r24, 0x64	; 100
     900:	90 e0       	ldi	r25, 0x00	; 0
     902:	dc 01       	movw	r26, r24
     904:	0e 94 79 25 	call	0x4af2	; 0x4af2 <__muluhisi3>
     908:	dc 01       	movw	r26, r24
     90a:	cb 01       	movw	r24, r22
     90c:	28 ef       	ldi	r18, 0xF8	; 248
     90e:	30 e0       	ldi	r19, 0x00	; 0
     910:	40 e0       	ldi	r20, 0x00	; 0
     912:	50 e0       	ldi	r21, 0x00	; 0
     914:	bc 01       	movw	r22, r24
     916:	cd 01       	movw	r24, r26
     918:	0e 94 48 25 	call	0x4a90	; 0x4a90 <__udivmodsi4>
     91c:	da 01       	movw	r26, r20
     91e:	c9 01       	movw	r24, r18
     920:	8d 83       	std	Y+5, r24	; 0x05

			if(cycles > CALL_CYCLES + RETURN_CYCLES + CALC_CYCLES) 
     922:	8d 81       	ldd	r24, Y+5	; 0x05
     924:	83 32       	cpi	r24, 0x23	; 35
     926:	08 f0       	brcs	.+2      	; 0x92a <u8x8_avr_delay+0x7e>
     928:	8e c1       	rjmp	.+796    	; 0xc46 <u8x8_avr_delay+0x39a>
				break;

			__asm__ __volatile__ (
     92a:	8d 81       	ldd	r24, Y+5	; 0x05
     92c:	01 97       	sbiw	r24, 0x01	; 1
     92e:	f1 f7       	brne	.-4      	; 0x92c <u8x8_avr_delay+0x80>
     930:	8d 83       	std	Y+5, r24	; 0x05
			"1: sbiw %0,1" "\n\t" // 2 cycles
			"brne 1b" : "=w" (cycles) : "0" (cycles) // 2 cycles
			);
			break;
     932:	8a c1       	rjmp	.+788    	; 0xc48 <u8x8_avr_delay+0x39c>
		case U8X8_MSG_DELAY_10MICRO:    // delay arg_int * 10 micro seconds
			for(int i=0 ; i < arg_int ; i++)
     934:	1a 82       	std	Y+2, r1	; 0x02
     936:	19 82       	std	Y+1, r1	; 0x01
     938:	f4 c0       	rjmp	.+488    	; 0xb22 <u8x8_avr_delay+0x276>
     93a:	80 e0       	ldi	r24, 0x00	; 0
     93c:	90 e0       	ldi	r25, 0x00	; 0
     93e:	a0 e2       	ldi	r26, 0x20	; 32
     940:	b1 e4       	ldi	r27, 0x41	; 65
     942:	8a 87       	std	Y+10, r24	; 0x0a
     944:	9b 87       	std	Y+11, r25	; 0x0b
     946:	ac 87       	std	Y+12, r26	; 0x0c
     948:	bd 87       	std	Y+13, r27	; 0x0d
	__builtin_avr_delay_cycles(__ticks_dc);

#else
	uint8_t __ticks;
	double __tmp2 ;
	__tmp = ((F_CPU) / 3e6) * __us;
     94a:	2b ea       	ldi	r18, 0xAB	; 171
     94c:	3a ea       	ldi	r19, 0xAA	; 170
     94e:	4a ea       	ldi	r20, 0xAA	; 170
     950:	50 e4       	ldi	r21, 0x40	; 64
     952:	6a 85       	ldd	r22, Y+10	; 0x0a
     954:	7b 85       	ldd	r23, Y+11	; 0x0b
     956:	8c 85       	ldd	r24, Y+12	; 0x0c
     958:	9d 85       	ldd	r25, Y+13	; 0x0d
     95a:	0e 94 c6 24 	call	0x498c	; 0x498c <__mulsf3>
     95e:	dc 01       	movw	r26, r24
     960:	cb 01       	movw	r24, r22
     962:	8e 87       	std	Y+14, r24	; 0x0e
     964:	9f 87       	std	Y+15, r25	; 0x0f
     966:	a8 8b       	std	Y+16, r26	; 0x10
     968:	b9 8b       	std	Y+17, r27	; 0x11
	__tmp2 = ((F_CPU) / 4e6) * __us;
     96a:	20 e0       	ldi	r18, 0x00	; 0
     96c:	30 e0       	ldi	r19, 0x00	; 0
     96e:	40 e8       	ldi	r20, 0x80	; 128
     970:	50 e4       	ldi	r21, 0x40	; 64
     972:	6a 85       	ldd	r22, Y+10	; 0x0a
     974:	7b 85       	ldd	r23, Y+11	; 0x0b
     976:	8c 85       	ldd	r24, Y+12	; 0x0c
     978:	9d 85       	ldd	r25, Y+13	; 0x0d
     97a:	0e 94 c6 24 	call	0x498c	; 0x498c <__mulsf3>
     97e:	dc 01       	movw	r26, r24
     980:	cb 01       	movw	r24, r22
     982:	8a 8b       	std	Y+18, r24	; 0x12
     984:	9b 8b       	std	Y+19, r25	; 0x13
     986:	ac 8b       	std	Y+20, r26	; 0x14
     988:	bd 8b       	std	Y+21, r27	; 0x15
	if (__tmp < 1.0)
     98a:	20 e0       	ldi	r18, 0x00	; 0
     98c:	30 e0       	ldi	r19, 0x00	; 0
     98e:	40 e8       	ldi	r20, 0x80	; 128
     990:	5f e3       	ldi	r21, 0x3F	; 63
     992:	6e 85       	ldd	r22, Y+14	; 0x0e
     994:	7f 85       	ldd	r23, Y+15	; 0x0f
     996:	88 89       	ldd	r24, Y+16	; 0x10
     998:	99 89       	ldd	r25, Y+17	; 0x11
     99a:	0e 94 b5 23 	call	0x476a	; 0x476a <__cmpsf2>
     99e:	88 23       	and	r24, r24
     9a0:	1c f4       	brge	.+6      	; 0x9a8 <u8x8_avr_delay+0xfc>
		__ticks = 1;
     9a2:	81 e0       	ldi	r24, 0x01	; 1
     9a4:	8e 8b       	std	Y+22, r24	; 0x16
     9a6:	b2 c0       	rjmp	.+356    	; 0xb0c <u8x8_avr_delay+0x260>
	else if (__tmp2 > 65535)
     9a8:	20 e0       	ldi	r18, 0x00	; 0
     9aa:	3f ef       	ldi	r19, 0xFF	; 255
     9ac:	4f e7       	ldi	r20, 0x7F	; 127
     9ae:	57 e4       	ldi	r21, 0x47	; 71
     9b0:	6a 89       	ldd	r22, Y+18	; 0x12
     9b2:	7b 89       	ldd	r23, Y+19	; 0x13
     9b4:	8c 89       	ldd	r24, Y+20	; 0x14
     9b6:	9d 89       	ldd	r25, Y+21	; 0x15
     9b8:	0e 94 c2 24 	call	0x4984	; 0x4984 <__gesf2>
     9bc:	18 16       	cp	r1, r24
     9be:	0c f0       	brlt	.+2      	; 0x9c2 <u8x8_avr_delay+0x116>
     9c0:	7b c0       	rjmp	.+246    	; 0xab8 <u8x8_avr_delay+0x20c>
	{
		_delay_ms(__us / 1000.0);
     9c2:	20 e0       	ldi	r18, 0x00	; 0
     9c4:	30 e0       	ldi	r19, 0x00	; 0
     9c6:	4a e7       	ldi	r20, 0x7A	; 122
     9c8:	54 e4       	ldi	r21, 0x44	; 68
     9ca:	6a 85       	ldd	r22, Y+10	; 0x0a
     9cc:	7b 85       	ldd	r23, Y+11	; 0x0b
     9ce:	8c 85       	ldd	r24, Y+12	; 0x0c
     9d0:	9d 85       	ldd	r25, Y+13	; 0x0d
     9d2:	0e 94 b9 23 	call	0x4772	; 0x4772 <__divsf3>
     9d6:	dc 01       	movw	r26, r24
     9d8:	cb 01       	movw	r24, r22
     9da:	8f 8b       	std	Y+23, r24	; 0x17
     9dc:	98 8f       	std	Y+24, r25	; 0x18
     9de:	a9 8f       	std	Y+25, r26	; 0x19
     9e0:	ba 8f       	std	Y+26, r27	; 0x1a

	__builtin_avr_delay_cycles(__ticks_dc);

#else
	uint16_t __ticks;
	__tmp = ((F_CPU) / 4e3) * __ms;
     9e2:	20 e0       	ldi	r18, 0x00	; 0
     9e4:	30 e0       	ldi	r19, 0x00	; 0
     9e6:	4a e7       	ldi	r20, 0x7A	; 122
     9e8:	55 e4       	ldi	r21, 0x45	; 69
     9ea:	6f 89       	ldd	r22, Y+23	; 0x17
     9ec:	78 8d       	ldd	r23, Y+24	; 0x18
     9ee:	89 8d       	ldd	r24, Y+25	; 0x19
     9f0:	9a 8d       	ldd	r25, Y+26	; 0x1a
     9f2:	0e 94 c6 24 	call	0x498c	; 0x498c <__mulsf3>
     9f6:	dc 01       	movw	r26, r24
     9f8:	cb 01       	movw	r24, r22
     9fa:	8b 8f       	std	Y+27, r24	; 0x1b
     9fc:	9c 8f       	std	Y+28, r25	; 0x1c
     9fe:	ad 8f       	std	Y+29, r26	; 0x1d
     a00:	be 8f       	std	Y+30, r27	; 0x1e
	if (__tmp < 1.0)
     a02:	20 e0       	ldi	r18, 0x00	; 0
     a04:	30 e0       	ldi	r19, 0x00	; 0
     a06:	40 e8       	ldi	r20, 0x80	; 128
     a08:	5f e3       	ldi	r21, 0x3F	; 63
     a0a:	6b 8d       	ldd	r22, Y+27	; 0x1b
     a0c:	7c 8d       	ldd	r23, Y+28	; 0x1c
     a0e:	8d 8d       	ldd	r24, Y+29	; 0x1d
     a10:	9e 8d       	ldd	r25, Y+30	; 0x1e
     a12:	0e 94 b5 23 	call	0x476a	; 0x476a <__cmpsf2>
     a16:	88 23       	and	r24, r24
     a18:	2c f4       	brge	.+10     	; 0xa24 <u8x8_avr_delay+0x178>
		__ticks = 1;
     a1a:	81 e0       	ldi	r24, 0x01	; 1
     a1c:	90 e0       	ldi	r25, 0x00	; 0
     a1e:	98 a3       	std	Y+32, r25	; 0x20
     a20:	8f 8f       	std	Y+31, r24	; 0x1f
     a22:	3f c0       	rjmp	.+126    	; 0xaa2 <u8x8_avr_delay+0x1f6>
	else if (__tmp > 65535)
     a24:	20 e0       	ldi	r18, 0x00	; 0
     a26:	3f ef       	ldi	r19, 0xFF	; 255
     a28:	4f e7       	ldi	r20, 0x7F	; 127
     a2a:	57 e4       	ldi	r21, 0x47	; 71
     a2c:	6b 8d       	ldd	r22, Y+27	; 0x1b
     a2e:	7c 8d       	ldd	r23, Y+28	; 0x1c
     a30:	8d 8d       	ldd	r24, Y+29	; 0x1d
     a32:	9e 8d       	ldd	r25, Y+30	; 0x1e
     a34:	0e 94 c2 24 	call	0x4984	; 0x4984 <__gesf2>
     a38:	18 16       	cp	r1, r24
     a3a:	4c f5       	brge	.+82     	; 0xa8e <u8x8_avr_delay+0x1e2>
	{
		//	__ticks = requested delay in 1/10 ms
		__ticks = (uint16_t) (__ms * 10.0);
     a3c:	20 e0       	ldi	r18, 0x00	; 0
     a3e:	30 e0       	ldi	r19, 0x00	; 0
     a40:	40 e2       	ldi	r20, 0x20	; 32
     a42:	51 e4       	ldi	r21, 0x41	; 65
     a44:	6f 89       	ldd	r22, Y+23	; 0x17
     a46:	78 8d       	ldd	r23, Y+24	; 0x18
     a48:	89 8d       	ldd	r24, Y+25	; 0x19
     a4a:	9a 8d       	ldd	r25, Y+26	; 0x1a
     a4c:	0e 94 c6 24 	call	0x498c	; 0x498c <__mulsf3>
     a50:	dc 01       	movw	r26, r24
     a52:	cb 01       	movw	r24, r22
     a54:	bc 01       	movw	r22, r24
     a56:	cd 01       	movw	r24, r26
     a58:	0e 94 21 24 	call	0x4842	; 0x4842 <__fixunssfsi>
     a5c:	dc 01       	movw	r26, r24
     a5e:	cb 01       	movw	r24, r22
     a60:	98 a3       	std	Y+32, r25	; 0x20
     a62:	8f 8f       	std	Y+31, r24	; 0x1f
     a64:	0f c0       	rjmp	.+30     	; 0xa84 <u8x8_avr_delay+0x1d8>
     a66:	80 e9       	ldi	r24, 0x90	; 144
     a68:	91 e0       	ldi	r25, 0x01	; 1
     a6a:	9a a3       	std	Y+34, r25	; 0x22
     a6c:	89 a3       	std	Y+33, r24	; 0x21
    milliseconds can be achieved.
 */
void
_delay_loop_2(uint16_t __count)
{
	__asm__ volatile (
     a6e:	89 a1       	ldd	r24, Y+33	; 0x21
     a70:	9a a1       	ldd	r25, Y+34	; 0x22
     a72:	01 97       	sbiw	r24, 0x01	; 1
     a74:	f1 f7       	brne	.-4      	; 0xa72 <u8x8_avr_delay+0x1c6>
     a76:	9a a3       	std	Y+34, r25	; 0x22
     a78:	89 a3       	std	Y+33, r24	; 0x21
		while(__ticks)
		{
			// wait 1/10 ms
			_delay_loop_2(((F_CPU) / 4e3) / 10);
			__ticks --;
     a7a:	8f 8d       	ldd	r24, Y+31	; 0x1f
     a7c:	98 a1       	ldd	r25, Y+32	; 0x20
     a7e:	01 97       	sbiw	r24, 0x01	; 1
     a80:	98 a3       	std	Y+32, r25	; 0x20
     a82:	8f 8f       	std	Y+31, r24	; 0x1f
		__ticks = 1;
	else if (__tmp > 65535)
	{
		//	__ticks = requested delay in 1/10 ms
		__ticks = (uint16_t) (__ms * 10.0);
		while(__ticks)
     a84:	8f 8d       	ldd	r24, Y+31	; 0x1f
     a86:	98 a1       	ldd	r25, Y+32	; 0x20
     a88:	89 2b       	or	r24, r25
     a8a:	69 f7       	brne	.-38     	; 0xa66 <u8x8_avr_delay+0x1ba>
     a8c:	3f c0       	rjmp	.+126    	; 0xb0c <u8x8_avr_delay+0x260>
			__ticks --;
		}
		return;
	}
	else
		__ticks = (uint16_t)__tmp;
     a8e:	6b 8d       	ldd	r22, Y+27	; 0x1b
     a90:	7c 8d       	ldd	r23, Y+28	; 0x1c
     a92:	8d 8d       	ldd	r24, Y+29	; 0x1d
     a94:	9e 8d       	ldd	r25, Y+30	; 0x1e
     a96:	0e 94 21 24 	call	0x4842	; 0x4842 <__fixunssfsi>
     a9a:	dc 01       	movw	r26, r24
     a9c:	cb 01       	movw	r24, r22
     a9e:	98 a3       	std	Y+32, r25	; 0x20
     aa0:	8f 8f       	std	Y+31, r24	; 0x1f
     aa2:	8f 8d       	ldd	r24, Y+31	; 0x1f
     aa4:	98 a1       	ldd	r25, Y+32	; 0x20
     aa6:	9c a3       	std	Y+36, r25	; 0x24
     aa8:	8b a3       	std	Y+35, r24	; 0x23
     aaa:	8b a1       	ldd	r24, Y+35	; 0x23
     aac:	9c a1       	ldd	r25, Y+36	; 0x24
     aae:	01 97       	sbiw	r24, 0x01	; 1
     ab0:	f1 f7       	brne	.-4      	; 0xaae <u8x8_avr_delay+0x202>
     ab2:	9c a3       	std	Y+36, r25	; 0x24
     ab4:	8b a3       	std	Y+35, r24	; 0x23
     ab6:	2a c0       	rjmp	.+84     	; 0xb0c <u8x8_avr_delay+0x260>
		__ticks = 1;
	else if (__tmp2 > 65535)
	{
		_delay_ms(__us / 1000.0);
	}
	else if (__tmp > 255)
     ab8:	20 e0       	ldi	r18, 0x00	; 0
     aba:	30 e0       	ldi	r19, 0x00	; 0
     abc:	4f e7       	ldi	r20, 0x7F	; 127
     abe:	53 e4       	ldi	r21, 0x43	; 67
     ac0:	6e 85       	ldd	r22, Y+14	; 0x0e
     ac2:	7f 85       	ldd	r23, Y+15	; 0x0f
     ac4:	88 89       	ldd	r24, Y+16	; 0x10
     ac6:	99 89       	ldd	r25, Y+17	; 0x11
     ac8:	0e 94 c2 24 	call	0x4984	; 0x4984 <__gesf2>
     acc:	18 16       	cp	r1, r24
     ace:	ac f4       	brge	.+42     	; 0xafa <u8x8_avr_delay+0x24e>
	{
		uint16_t __ticks=(uint16_t)__tmp2;
     ad0:	6a 89       	ldd	r22, Y+18	; 0x12
     ad2:	7b 89       	ldd	r23, Y+19	; 0x13
     ad4:	8c 89       	ldd	r24, Y+20	; 0x14
     ad6:	9d 89       	ldd	r25, Y+21	; 0x15
     ad8:	0e 94 21 24 	call	0x4842	; 0x4842 <__fixunssfsi>
     adc:	dc 01       	movw	r26, r24
     ade:	cb 01       	movw	r24, r22
     ae0:	9e a3       	std	Y+38, r25	; 0x26
     ae2:	8d a3       	std	Y+37, r24	; 0x25
     ae4:	8d a1       	ldd	r24, Y+37	; 0x25
     ae6:	9e a1       	ldd	r25, Y+38	; 0x26
     ae8:	98 a7       	std	Y+40, r25	; 0x28
     aea:	8f a3       	std	Y+39, r24	; 0x27
     aec:	8f a1       	ldd	r24, Y+39	; 0x27
     aee:	98 a5       	ldd	r25, Y+40	; 0x28
     af0:	01 97       	sbiw	r24, 0x01	; 1
     af2:	f1 f7       	brne	.-4      	; 0xaf0 <u8x8_avr_delay+0x244>
     af4:	98 a7       	std	Y+40, r25	; 0x28
     af6:	8f a3       	std	Y+39, r24	; 0x27
     af8:	0f c0       	rjmp	.+30     	; 0xb18 <u8x8_avr_delay+0x26c>
		_delay_loop_2(__ticks);
		return;
	}
	else
		__ticks = (uint8_t)__tmp;
     afa:	6e 85       	ldd	r22, Y+14	; 0x0e
     afc:	7f 85       	ldd	r23, Y+15	; 0x0f
     afe:	88 89       	ldd	r24, Y+16	; 0x10
     b00:	99 89       	ldd	r25, Y+17	; 0x11
     b02:	0e 94 21 24 	call	0x4842	; 0x4842 <__fixunssfsi>
     b06:	dc 01       	movw	r26, r24
     b08:	cb 01       	movw	r24, r22
     b0a:	8e 8b       	std	Y+22, r24	; 0x16
     b0c:	8e 89       	ldd	r24, Y+22	; 0x16
     b0e:	89 a7       	std	Y+41, r24	; 0x29
    can be achieved.
*/
void
_delay_loop_1(uint8_t __count)
{
	__asm__ volatile (
     b10:	89 a5       	ldd	r24, Y+41	; 0x29
     b12:	8a 95       	dec	r24
     b14:	f1 f7       	brne	.-4      	; 0xb12 <u8x8_avr_delay+0x266>
     b16:	89 a7       	std	Y+41, r24	; 0x29
     b18:	89 81       	ldd	r24, Y+1	; 0x01
     b1a:	9a 81       	ldd	r25, Y+2	; 0x02
     b1c:	01 96       	adiw	r24, 0x01	; 1
     b1e:	9a 83       	std	Y+2, r25	; 0x02
     b20:	89 83       	std	Y+1, r24	; 0x01
     b22:	8f a9       	ldd	r24, Y+55	; 0x37
     b24:	28 2f       	mov	r18, r24
     b26:	30 e0       	ldi	r19, 0x00	; 0
     b28:	89 81       	ldd	r24, Y+1	; 0x01
     b2a:	9a 81       	ldd	r25, Y+2	; 0x02
     b2c:	82 17       	cp	r24, r18
     b2e:	93 07       	cpc	r25, r19
     b30:	0c f4       	brge	.+2      	; 0xb34 <u8x8_avr_delay+0x288>
     b32:	03 cf       	rjmp	.-506    	; 0x93a <u8x8_avr_delay+0x8e>
				_delay_us(10);
			break;
     b34:	89 c0       	rjmp	.+274    	; 0xc48 <u8x8_avr_delay+0x39c>
		case U8X8_MSG_DELAY_MILLI:      // delay arg_int * 1 milli second
			for(int i=0 ; i < arg_int ; i++)
     b36:	1c 82       	std	Y+4, r1	; 0x04
     b38:	1b 82       	std	Y+3, r1	; 0x03
     b3a:	77 c0       	rjmp	.+238    	; 0xc2a <u8x8_avr_delay+0x37e>
     b3c:	80 e0       	ldi	r24, 0x00	; 0
     b3e:	90 e0       	ldi	r25, 0x00	; 0
     b40:	a0 e8       	ldi	r26, 0x80	; 128
     b42:	bf e3       	ldi	r27, 0x3F	; 63
     b44:	8e 83       	std	Y+6, r24	; 0x06
     b46:	9f 83       	std	Y+7, r25	; 0x07
     b48:	a8 87       	std	Y+8, r26	; 0x08
     b4a:	b9 87       	std	Y+9, r27	; 0x09

	__builtin_avr_delay_cycles(__ticks_dc);

#else
	uint16_t __ticks;
	__tmp = ((F_CPU) / 4e3) * __ms;
     b4c:	20 e0       	ldi	r18, 0x00	; 0
     b4e:	30 e0       	ldi	r19, 0x00	; 0
     b50:	4a e7       	ldi	r20, 0x7A	; 122
     b52:	55 e4       	ldi	r21, 0x45	; 69
     b54:	6e 81       	ldd	r22, Y+6	; 0x06
     b56:	7f 81       	ldd	r23, Y+7	; 0x07
     b58:	88 85       	ldd	r24, Y+8	; 0x08
     b5a:	99 85       	ldd	r25, Y+9	; 0x09
     b5c:	0e 94 c6 24 	call	0x498c	; 0x498c <__mulsf3>
     b60:	dc 01       	movw	r26, r24
     b62:	cb 01       	movw	r24, r22
     b64:	8a a7       	std	Y+42, r24	; 0x2a
     b66:	9b a7       	std	Y+43, r25	; 0x2b
     b68:	ac a7       	std	Y+44, r26	; 0x2c
     b6a:	bd a7       	std	Y+45, r27	; 0x2d
	if (__tmp < 1.0)
     b6c:	20 e0       	ldi	r18, 0x00	; 0
     b6e:	30 e0       	ldi	r19, 0x00	; 0
     b70:	40 e8       	ldi	r20, 0x80	; 128
     b72:	5f e3       	ldi	r21, 0x3F	; 63
     b74:	6a a5       	ldd	r22, Y+42	; 0x2a
     b76:	7b a5       	ldd	r23, Y+43	; 0x2b
     b78:	8c a5       	ldd	r24, Y+44	; 0x2c
     b7a:	9d a5       	ldd	r25, Y+45	; 0x2d
     b7c:	0e 94 b5 23 	call	0x476a	; 0x476a <__cmpsf2>
     b80:	88 23       	and	r24, r24
     b82:	2c f4       	brge	.+10     	; 0xb8e <u8x8_avr_delay+0x2e2>
		__ticks = 1;
     b84:	81 e0       	ldi	r24, 0x01	; 1
     b86:	90 e0       	ldi	r25, 0x00	; 0
     b88:	9f a7       	std	Y+47, r25	; 0x2f
     b8a:	8e a7       	std	Y+46, r24	; 0x2e
     b8c:	3f c0       	rjmp	.+126    	; 0xc0c <u8x8_avr_delay+0x360>
	else if (__tmp > 65535)
     b8e:	20 e0       	ldi	r18, 0x00	; 0
     b90:	3f ef       	ldi	r19, 0xFF	; 255
     b92:	4f e7       	ldi	r20, 0x7F	; 127
     b94:	57 e4       	ldi	r21, 0x47	; 71
     b96:	6a a5       	ldd	r22, Y+42	; 0x2a
     b98:	7b a5       	ldd	r23, Y+43	; 0x2b
     b9a:	8c a5       	ldd	r24, Y+44	; 0x2c
     b9c:	9d a5       	ldd	r25, Y+45	; 0x2d
     b9e:	0e 94 c2 24 	call	0x4984	; 0x4984 <__gesf2>
     ba2:	18 16       	cp	r1, r24
     ba4:	4c f5       	brge	.+82     	; 0xbf8 <u8x8_avr_delay+0x34c>
	{
		//	__ticks = requested delay in 1/10 ms
		__ticks = (uint16_t) (__ms * 10.0);
     ba6:	20 e0       	ldi	r18, 0x00	; 0
     ba8:	30 e0       	ldi	r19, 0x00	; 0
     baa:	40 e2       	ldi	r20, 0x20	; 32
     bac:	51 e4       	ldi	r21, 0x41	; 65
     bae:	6e 81       	ldd	r22, Y+6	; 0x06
     bb0:	7f 81       	ldd	r23, Y+7	; 0x07
     bb2:	88 85       	ldd	r24, Y+8	; 0x08
     bb4:	99 85       	ldd	r25, Y+9	; 0x09
     bb6:	0e 94 c6 24 	call	0x498c	; 0x498c <__mulsf3>
     bba:	dc 01       	movw	r26, r24
     bbc:	cb 01       	movw	r24, r22
     bbe:	bc 01       	movw	r22, r24
     bc0:	cd 01       	movw	r24, r26
     bc2:	0e 94 21 24 	call	0x4842	; 0x4842 <__fixunssfsi>
     bc6:	dc 01       	movw	r26, r24
     bc8:	cb 01       	movw	r24, r22
     bca:	9f a7       	std	Y+47, r25	; 0x2f
     bcc:	8e a7       	std	Y+46, r24	; 0x2e
     bce:	0f c0       	rjmp	.+30     	; 0xbee <u8x8_avr_delay+0x342>
     bd0:	80 e9       	ldi	r24, 0x90	; 144
     bd2:	91 e0       	ldi	r25, 0x01	; 1
     bd4:	99 ab       	std	Y+49, r25	; 0x31
     bd6:	88 ab       	std	Y+48, r24	; 0x30
    milliseconds can be achieved.
 */
void
_delay_loop_2(uint16_t __count)
{
	__asm__ volatile (
     bd8:	88 a9       	ldd	r24, Y+48	; 0x30
     bda:	99 a9       	ldd	r25, Y+49	; 0x31
     bdc:	01 97       	sbiw	r24, 0x01	; 1
     bde:	f1 f7       	brne	.-4      	; 0xbdc <u8x8_avr_delay+0x330>
     be0:	99 ab       	std	Y+49, r25	; 0x31
     be2:	88 ab       	std	Y+48, r24	; 0x30
		while(__ticks)
		{
			// wait 1/10 ms
			_delay_loop_2(((F_CPU) / 4e3) / 10);
			__ticks --;
     be4:	8e a5       	ldd	r24, Y+46	; 0x2e
     be6:	9f a5       	ldd	r25, Y+47	; 0x2f
     be8:	01 97       	sbiw	r24, 0x01	; 1
     bea:	9f a7       	std	Y+47, r25	; 0x2f
     bec:	8e a7       	std	Y+46, r24	; 0x2e
		__ticks = 1;
	else if (__tmp > 65535)
	{
		//	__ticks = requested delay in 1/10 ms
		__ticks = (uint16_t) (__ms * 10.0);
		while(__ticks)
     bee:	8e a5       	ldd	r24, Y+46	; 0x2e
     bf0:	9f a5       	ldd	r25, Y+47	; 0x2f
     bf2:	89 2b       	or	r24, r25
     bf4:	69 f7       	brne	.-38     	; 0xbd0 <u8x8_avr_delay+0x324>
     bf6:	14 c0       	rjmp	.+40     	; 0xc20 <u8x8_avr_delay+0x374>
			__ticks --;
		}
		return;
	}
	else
		__ticks = (uint16_t)__tmp;
     bf8:	6a a5       	ldd	r22, Y+42	; 0x2a
     bfa:	7b a5       	ldd	r23, Y+43	; 0x2b
     bfc:	8c a5       	ldd	r24, Y+44	; 0x2c
     bfe:	9d a5       	ldd	r25, Y+45	; 0x2d
     c00:	0e 94 21 24 	call	0x4842	; 0x4842 <__fixunssfsi>
     c04:	dc 01       	movw	r26, r24
     c06:	cb 01       	movw	r24, r22
     c08:	9f a7       	std	Y+47, r25	; 0x2f
     c0a:	8e a7       	std	Y+46, r24	; 0x2e
     c0c:	8e a5       	ldd	r24, Y+46	; 0x2e
     c0e:	9f a5       	ldd	r25, Y+47	; 0x2f
     c10:	9b ab       	std	Y+51, r25	; 0x33
     c12:	8a ab       	std	Y+50, r24	; 0x32
     c14:	8a a9       	ldd	r24, Y+50	; 0x32
     c16:	9b a9       	ldd	r25, Y+51	; 0x33
     c18:	01 97       	sbiw	r24, 0x01	; 1
     c1a:	f1 f7       	brne	.-4      	; 0xc18 <u8x8_avr_delay+0x36c>
     c1c:	9b ab       	std	Y+51, r25	; 0x33
     c1e:	8a ab       	std	Y+50, r24	; 0x32
     c20:	8b 81       	ldd	r24, Y+3	; 0x03
     c22:	9c 81       	ldd	r25, Y+4	; 0x04
     c24:	01 96       	adiw	r24, 0x01	; 1
     c26:	9c 83       	std	Y+4, r25	; 0x04
     c28:	8b 83       	std	Y+3, r24	; 0x03
     c2a:	8f a9       	ldd	r24, Y+55	; 0x37
     c2c:	28 2f       	mov	r18, r24
     c2e:	30 e0       	ldi	r19, 0x00	; 0
     c30:	8b 81       	ldd	r24, Y+3	; 0x03
     c32:	9c 81       	ldd	r25, Y+4	; 0x04
     c34:	82 17       	cp	r24, r18
     c36:	93 07       	cpc	r25, r19
     c38:	0c f4       	brge	.+2      	; 0xc3c <u8x8_avr_delay+0x390>
     c3a:	80 cf       	rjmp	.-256    	; 0xb3c <u8x8_avr_delay+0x290>
				_delay_ms(1);
			break;
     c3c:	05 c0       	rjmp	.+10     	; 0xc48 <u8x8_avr_delay+0x39c>
		default:
			return 0;
     c3e:	80 e0       	ldi	r24, 0x00	; 0
     c40:	04 c0       	rjmp	.+8      	; 0xc4a <u8x8_avr_delay+0x39e>

	switch(msg)
	{
		case U8X8_MSG_DELAY_NANO:     // delay arg_int * 1 nano second
			// At 20Mhz, each cycle is 50ns, the call itself is slower.
			break;
     c42:	00 00       	nop
     c44:	01 c0       	rjmp	.+2      	; 0xc48 <u8x8_avr_delay+0x39c>
#define CYCLES_PER_LOOP 4UL

			cycles = (100UL * arg_int) / (P_CPU_NS * CYCLES_PER_LOOP);

			if(cycles > CALL_CYCLES + RETURN_CYCLES + CALC_CYCLES) 
				break;
     c46:	00 00       	nop
				_delay_ms(1);
			break;
		default:
			return 0;
	}
	return 1;
     c48:	81 e0       	ldi	r24, 0x01	; 1
}
     c4a:	e9 96       	adiw	r28, 0x39	; 57
     c4c:	0f b6       	in	r0, 0x3f	; 63
     c4e:	f8 94       	cli
     c50:	de bf       	out	0x3e, r29	; 62
     c52:	0f be       	out	0x3f, r0	; 63
     c54:	cd bf       	out	0x3d, r28	; 61
     c56:	df 91       	pop	r29
     c58:	cf 91       	pop	r28
     c5a:	08 95       	ret

00000c5c <u8x8_avr_gpio_and_delay>:


uint8_t u8x8_avr_gpio_and_delay(u8x8_t *u8x8, uint8_t msg, uint8_t arg_int, void *arg_ptr)
{
     c5c:	cf 93       	push	r28
     c5e:	df 93       	push	r29
     c60:	00 d0       	rcall	.+0      	; 0xc62 <u8x8_avr_gpio_and_delay+0x6>
     c62:	00 d0       	rcall	.+0      	; 0xc64 <u8x8_avr_gpio_and_delay+0x8>
     c64:	00 d0       	rcall	.+0      	; 0xc66 <u8x8_avr_gpio_and_delay+0xa>
     c66:	cd b7       	in	r28, 0x3d	; 61
     c68:	de b7       	in	r29, 0x3e	; 62
     c6a:	9a 83       	std	Y+2, r25	; 0x02
     c6c:	89 83       	std	Y+1, r24	; 0x01
     c6e:	6b 83       	std	Y+3, r22	; 0x03
     c70:	4c 83       	std	Y+4, r20	; 0x04
     c72:	3e 83       	std	Y+6, r19	; 0x06
     c74:	2d 83       	std	Y+5, r18	; 0x05
	// Re-use library for delays

	switch(msg)
     c76:	8b 81       	ldd	r24, Y+3	; 0x03
     c78:	88 2f       	mov	r24, r24
     c7a:	90 e0       	ldi	r25, 0x00	; 0
     c7c:	8c 34       	cpi	r24, 0x4C	; 76
     c7e:	91 05       	cpc	r25, r1
     c80:	c9 f0       	breq	.+50     	; 0xcb4 <u8x8_avr_gpio_and_delay+0x58>
     c82:	8d 34       	cpi	r24, 0x4D	; 77
     c84:	91 05       	cpc	r25, r1
     c86:	69 f1       	breq	.+90     	; 0xce2 <u8x8_avr_gpio_and_delay+0x86>
     c88:	88 97       	sbiw	r24, 0x28	; 40
     c8a:	09 f0       	breq	.+2      	; 0xc8e <u8x8_avr_gpio_and_delay+0x32>
     c8c:	41 c0       	rjmp	.+130    	; 0xd10 <u8x8_avr_gpio_and_delay+0xb4>
	{
		case U8X8_MSG_GPIO_AND_DELAY_INIT:  // called once during init phase of u8g2/u8x8
			DISPLAY_CLK_DIR |= 1<<DISPLAY_CLK_PIN;
     c8e:	81 e3       	ldi	r24, 0x31	; 49
     c90:	90 e0       	ldi	r25, 0x00	; 0
     c92:	21 e3       	ldi	r18, 0x31	; 49
     c94:	30 e0       	ldi	r19, 0x00	; 0
     c96:	f9 01       	movw	r30, r18
     c98:	20 81       	ld	r18, Z
     c9a:	21 60       	ori	r18, 0x01	; 1
     c9c:	fc 01       	movw	r30, r24
     c9e:	20 83       	st	Z, r18
			DISPLAY_DATA_DIR |= 1<<DISPLAY_DATA_PIN;
     ca0:	81 e3       	ldi	r24, 0x31	; 49
     ca2:	90 e0       	ldi	r25, 0x00	; 0
     ca4:	21 e3       	ldi	r18, 0x31	; 49
     ca6:	30 e0       	ldi	r19, 0x00	; 0
     ca8:	f9 01       	movw	r30, r18
     caa:	20 81       	ld	r18, Z
     cac:	22 60       	ori	r18, 0x02	; 2
     cae:	fc 01       	movw	r30, r24
     cb0:	20 83       	st	Z, r18
			break;              // can be used to setup pins
     cb2:	3f c0       	rjmp	.+126    	; 0xd32 <u8x8_avr_gpio_and_delay+0xd6>
		case U8X8_MSG_GPIO_I2C_CLOCK:        // Clock pin: Output level in arg_int
			if(arg_int)
     cb4:	8c 81       	ldd	r24, Y+4	; 0x04
     cb6:	88 23       	and	r24, r24
     cb8:	51 f0       	breq	.+20     	; 0xcce <u8x8_avr_gpio_and_delay+0x72>
				DISPLAY_CLK_PORT |= (1<<DISPLAY_CLK_PIN);
     cba:	82 e3       	ldi	r24, 0x32	; 50
     cbc:	90 e0       	ldi	r25, 0x00	; 0
     cbe:	22 e3       	ldi	r18, 0x32	; 50
     cc0:	30 e0       	ldi	r19, 0x00	; 0
     cc2:	f9 01       	movw	r30, r18
     cc4:	20 81       	ld	r18, Z
     cc6:	21 60       	ori	r18, 0x01	; 1
     cc8:	fc 01       	movw	r30, r24
     cca:	20 83       	st	Z, r18
			else
				DISPLAY_CLK_PORT &= ~(1<<DISPLAY_CLK_PIN);
			break;
     ccc:	32 c0       	rjmp	.+100    	; 0xd32 <u8x8_avr_gpio_and_delay+0xd6>
			break;              // can be used to setup pins
		case U8X8_MSG_GPIO_I2C_CLOCK:        // Clock pin: Output level in arg_int
			if(arg_int)
				DISPLAY_CLK_PORT |= (1<<DISPLAY_CLK_PIN);
			else
				DISPLAY_CLK_PORT &= ~(1<<DISPLAY_CLK_PIN);
     cce:	82 e3       	ldi	r24, 0x32	; 50
     cd0:	90 e0       	ldi	r25, 0x00	; 0
     cd2:	22 e3       	ldi	r18, 0x32	; 50
     cd4:	30 e0       	ldi	r19, 0x00	; 0
     cd6:	f9 01       	movw	r30, r18
     cd8:	20 81       	ld	r18, Z
     cda:	2e 7f       	andi	r18, 0xFE	; 254
     cdc:	fc 01       	movw	r30, r24
     cde:	20 83       	st	Z, r18
			break;
     ce0:	28 c0       	rjmp	.+80     	; 0xd32 <u8x8_avr_gpio_and_delay+0xd6>
		case U8X8_MSG_GPIO_I2C_DATA:        // Data pin: Output level in arg_int
			if(arg_int)
     ce2:	8c 81       	ldd	r24, Y+4	; 0x04
     ce4:	88 23       	and	r24, r24
     ce6:	51 f0       	breq	.+20     	; 0xcfc <u8x8_avr_gpio_and_delay+0xa0>
				DISPLAY_DATA_PORT |= (1<<DISPLAY_DATA_PIN);
     ce8:	82 e3       	ldi	r24, 0x32	; 50
     cea:	90 e0       	ldi	r25, 0x00	; 0
     cec:	22 e3       	ldi	r18, 0x32	; 50
     cee:	30 e0       	ldi	r19, 0x00	; 0
     cf0:	f9 01       	movw	r30, r18
     cf2:	20 81       	ld	r18, Z
     cf4:	22 60       	ori	r18, 0x02	; 2
     cf6:	fc 01       	movw	r30, r24
     cf8:	20 83       	st	Z, r18
			else
				DISPLAY_DATA_PORT &= ~(1<<DISPLAY_DATA_PIN);
			break;
     cfa:	1b c0       	rjmp	.+54     	; 0xd32 <u8x8_avr_gpio_and_delay+0xd6>
			break;
		case U8X8_MSG_GPIO_I2C_DATA:        // Data pin: Output level in arg_int
			if(arg_int)
				DISPLAY_DATA_PORT |= (1<<DISPLAY_DATA_PIN);
			else
				DISPLAY_DATA_PORT &= ~(1<<DISPLAY_DATA_PIN);
     cfc:	82 e3       	ldi	r24, 0x32	; 50
     cfe:	90 e0       	ldi	r25, 0x00	; 0
     d00:	22 e3       	ldi	r18, 0x32	; 50
     d02:	30 e0       	ldi	r19, 0x00	; 0
     d04:	f9 01       	movw	r30, r18
     d06:	20 81       	ld	r18, Z
     d08:	2d 7f       	andi	r18, 0xFD	; 253
     d0a:	fc 01       	movw	r30, r24
     d0c:	20 83       	st	Z, r18
			break;
     d0e:	11 c0       	rjmp	.+34     	; 0xd32 <u8x8_avr_gpio_and_delay+0xd6>
		
		default:
			if (u8x8_avr_delay(u8x8, msg, arg_int, arg_ptr))	// check for any delay msgs
     d10:	2d 81       	ldd	r18, Y+5	; 0x05
     d12:	3e 81       	ldd	r19, Y+6	; 0x06
     d14:	89 81       	ldd	r24, Y+1	; 0x01
     d16:	9a 81       	ldd	r25, Y+2	; 0x02
     d18:	4c 81       	ldd	r20, Y+4	; 0x04
     d1a:	6b 81       	ldd	r22, Y+3	; 0x03
     d1c:	c7 dd       	rcall	.-1138   	; 0x8ac <u8x8_avr_delay>
     d1e:	88 23       	and	r24, r24
     d20:	11 f0       	breq	.+4      	; 0xd26 <u8x8_avr_gpio_and_delay+0xca>
				return 1;
     d22:	81 e0       	ldi	r24, 0x01	; 1
     d24:	07 c0       	rjmp	.+14     	; 0xd34 <u8x8_avr_gpio_and_delay+0xd8>
			u8x8_SetGPIOResult(u8x8, 1);      // default return value
     d26:	89 81       	ldd	r24, Y+1	; 0x01
     d28:	9a 81       	ldd	r25, Y+2	; 0x02
     d2a:	21 e0       	ldi	r18, 0x01	; 1
     d2c:	fc 01       	movw	r30, r24
     d2e:	22 8f       	std	Z+26, r18	; 0x1a
			break;
     d30:	00 00       	nop
	}
	return 1;
     d32:	81 e0       	ldi	r24, 0x01	; 1
}
     d34:	26 96       	adiw	r28, 0x06	; 6
     d36:	0f b6       	in	r0, 0x3f	; 63
     d38:	f8 94       	cli
     d3a:	de bf       	out	0x3e, r29	; 62
     d3c:	0f be       	out	0x3f, r0	; 63
     d3e:	cd bf       	out	0x3d, r28	; 61
     d40:	df 91       	pop	r29
     d42:	cf 91       	pop	r28
     d44:	08 95       	ret

00000d46 <u8g2_prepare>:


void u8g2_prepare(void) {
     d46:	cf 93       	push	r28
     d48:	df 93       	push	r29
     d4a:	cd b7       	in	r28, 0x3d	; 61
     d4c:	de b7       	in	r29, 0x3e	; 62
	u8g2_SetFont(&u8g2, u8g2_font_6x10_tf);
     d4e:	6c e8       	ldi	r22, 0x8C	; 140
     d50:	70 e0       	ldi	r23, 0x00	; 0
     d52:	81 e9       	ldi	r24, 0x91	; 145
     d54:	95 e0       	ldi	r25, 0x05	; 5
     d56:	0e 94 9e 11 	call	0x233c	; 0x233c <u8g2_SetFont>
	u8g2_SetFontRefHeightExtendedText(&u8g2);
     d5a:	81 e9       	ldi	r24, 0x91	; 145
     d5c:	95 e0       	ldi	r25, 0x05	; 5
     d5e:	0e 94 39 11 	call	0x2272	; 0x2272 <u8g2_SetFontRefHeightExtendedText>
	u8g2_SetDrawColor(&u8g2, 1);
     d62:	61 e0       	ldi	r22, 0x01	; 1
     d64:	81 e9       	ldi	r24, 0x91	; 145
     d66:	95 e0       	ldi	r25, 0x05	; 5
     d68:	0e 94 cc 13 	call	0x2798	; 0x2798 <u8g2_SetDrawColor>
	u8g2_SetFontPosTop(&u8g2);
     d6c:	81 e9       	ldi	r24, 0x91	; 145
     d6e:	95 e0       	ldi	r25, 0x05	; 5
     d70:	0e 94 8a 11 	call	0x2314	; 0x2314 <u8g2_SetFontPosTop>
	u8g2_SetFontDirection(&u8g2, 0);
     d74:	60 e0       	ldi	r22, 0x00	; 0
     d76:	81 e9       	ldi	r24, 0x91	; 145
     d78:	95 e0       	ldi	r25, 0x05	; 5
     d7a:	0e 94 5c 12 	call	0x24b8	; 0x24b8 <u8g2_SetFontDirection>

}
     d7e:	00 00       	nop
     d80:	df 91       	pop	r29
     d82:	cf 91       	pop	r28
     d84:	08 95       	ret

00000d86 <main>:




int main(void)
{
     d86:	cf 93       	push	r28
     d88:	df 93       	push	r29
     d8a:	cd b7       	in	r28, 0x3d	; 61
     d8c:	de b7       	in	r29, 0x3e	; 62
	
	u8g2_Setup_ssd1306_i2c_128x64_noname_f(&u8g2, U8G2_R0, u8x8_byte_sw_i2c, u8x8_avr_gpio_and_delay );
     d8e:	2e e2       	ldi	r18, 0x2E	; 46
     d90:	36 e0       	ldi	r19, 0x06	; 6
     d92:	4b e9       	ldi	r20, 0x9B	; 155
     d94:	5c e1       	ldi	r21, 0x1C	; 28
     d96:	64 e2       	ldi	r22, 0x24	; 36
     d98:	71 e0       	ldi	r23, 0x01	; 1
     d9a:	81 e9       	ldi	r24, 0x91	; 145
     d9c:	95 e0       	ldi	r25, 0x05	; 5
     d9e:	2f d2       	rcall	.+1118   	; 0x11fe <u8g2_Setup_ssd1306_i2c_128x64_noname_f>
	u8g2_SetI2CAddress(&u8g2, 0x78);
     da0:	81 e9       	ldi	r24, 0x91	; 145
     da2:	95 e0       	ldi	r25, 0x05	; 5
     da4:	28 e7       	ldi	r18, 0x78	; 120
     da6:	fc 01       	movw	r30, r24
     da8:	26 8b       	std	Z+22, r18	; 0x16
	u8g2_InitDisplay(&u8g2);
     daa:	81 e9       	ldi	r24, 0x91	; 145
     dac:	95 e0       	ldi	r25, 0x05	; 5
     dae:	0e 94 8e 20 	call	0x411c	; 0x411c <u8x8_InitDisplay>
	u8g2_SetPowerSave(&u8g2, 0);
     db2:	60 e0       	ldi	r22, 0x00	; 0
     db4:	81 e9       	ldi	r24, 0x91	; 145
     db6:	95 e0       	ldi	r25, 0x05	; 5
     db8:	0e 94 a9 20 	call	0x4152	; 0x4152 <u8x8_SetPowerSave>
	
	u8g2_prepare();
     dbc:	c4 df       	rcall	.-120    	; 0xd46 <u8g2_prepare>

	/*while(1){
		u8g2_DrawBox(&u8g2, 3,7,25,15);
	}*/
	
	DDRD = 0x00;	// 4,5,6,7   
     dbe:	81 e3       	ldi	r24, 0x31	; 49
     dc0:	90 e0       	ldi	r25, 0x00	; 0
     dc2:	fc 01       	movw	r30, r24
     dc4:	10 82       	st	Z, r1
	EIMSK = (1 << INT4) | (1 << INT5) | (1 << INT6) | (1 << INT7);
     dc6:	89 e5       	ldi	r24, 0x59	; 89
     dc8:	90 e0       	ldi	r25, 0x00	; 0
     dca:	20 ef       	ldi	r18, 0xF0	; 240
     dcc:	fc 01       	movw	r30, r24
     dce:	20 83       	st	Z, r18

	u8g2_UserInterfaceSelectionList(&u8g2, "Myoungmin's Game", 1, "SNAKE GAME\nTETRIS");
     dd0:	20 e0       	ldi	r18, 0x00	; 0
     dd2:	31 e0       	ldi	r19, 0x01	; 1
     dd4:	41 e0       	ldi	r20, 0x01	; 1
     dd6:	62 e1       	ldi	r22, 0x12	; 18
     dd8:	71 e0       	ldi	r23, 0x01	; 1
     dda:	81 e9       	ldi	r24, 0x91	; 145
     ddc:	95 e0       	ldi	r25, 0x05	; 5
     dde:	0e 94 f8 16 	call	0x2df0	; 0x2df0 <u8g2_UserInterfaceSelectionList>
     de2:	80 e0       	ldi	r24, 0x00	; 0
     de4:	90 e0       	ldi	r25, 0x00	; 0

     de6:	df 91       	pop	r29
     de8:	cf 91       	pop	r28
     dea:	08 95       	ret

00000dec <u8g2_DrawBox>:
/*
  draw a filled box
  restriction: does not work for w = 0 or h = 0
*/
void u8g2_DrawBox(u8g2_t *u8g2, u8g2_uint_t x, u8g2_uint_t y, u8g2_uint_t w, u8g2_uint_t h)
{
     dec:	0f 93       	push	r16
     dee:	cf 93       	push	r28
     df0:	df 93       	push	r29
     df2:	00 d0       	rcall	.+0      	; 0xdf4 <u8g2_DrawBox+0x8>
     df4:	00 d0       	rcall	.+0      	; 0xdf6 <u8g2_DrawBox+0xa>
     df6:	00 d0       	rcall	.+0      	; 0xdf8 <u8g2_DrawBox+0xc>
     df8:	cd b7       	in	r28, 0x3d	; 61
     dfa:	de b7       	in	r29, 0x3e	; 62
     dfc:	9a 83       	std	Y+2, r25	; 0x02
     dfe:	89 83       	std	Y+1, r24	; 0x01
     e00:	6b 83       	std	Y+3, r22	; 0x03
     e02:	4c 83       	std	Y+4, r20	; 0x04
     e04:	2d 83       	std	Y+5, r18	; 0x05
     e06:	0e 83       	std	Y+6, r16	; 0x06
#ifdef U8G2_WITH_INTERSECTION
  if ( u8g2_IsIntersection(u8g2, x, y, x+w, y+h) == 0 ) 
     e08:	9c 81       	ldd	r25, Y+4	; 0x04
     e0a:	8e 81       	ldd	r24, Y+6	; 0x06
     e0c:	39 2f       	mov	r19, r25
     e0e:	38 0f       	add	r19, r24
     e10:	9b 81       	ldd	r25, Y+3	; 0x03
     e12:	8d 81       	ldd	r24, Y+5	; 0x05
     e14:	29 2f       	mov	r18, r25
     e16:	28 0f       	add	r18, r24
     e18:	89 81       	ldd	r24, Y+1	; 0x01
     e1a:	9a 81       	ldd	r25, Y+2	; 0x02
     e1c:	03 2f       	mov	r16, r19
     e1e:	4c 81       	ldd	r20, Y+4	; 0x04
     e20:	6b 81       	ldd	r22, Y+3	; 0x03
     e22:	0e 94 1d 14 	call	0x283a	; 0x283a <u8g2_IsIntersection>
     e26:	88 23       	and	r24, r24
     e28:	99 f0       	breq	.+38     	; 0xe50 <u8g2_DrawBox+0x64>
    return;
#endif /* U8G2_WITH_INTERSECTION */
  while( h != 0 )
     e2a:	0e c0       	rjmp	.+28     	; 0xe48 <u8g2_DrawBox+0x5c>
  { 
    u8g2_DrawHVLine(u8g2, x, y, w, 0);
     e2c:	89 81       	ldd	r24, Y+1	; 0x01
     e2e:	9a 81       	ldd	r25, Y+2	; 0x02
     e30:	00 e0       	ldi	r16, 0x00	; 0
     e32:	2d 81       	ldd	r18, Y+5	; 0x05
     e34:	4c 81       	ldd	r20, Y+4	; 0x04
     e36:	6b 81       	ldd	r22, Y+3	; 0x03
     e38:	0e 94 04 13 	call	0x2608	; 0x2608 <u8g2_DrawHVLine>
    y++;    
     e3c:	8c 81       	ldd	r24, Y+4	; 0x04
     e3e:	8f 5f       	subi	r24, 0xFF	; 255
     e40:	8c 83       	std	Y+4, r24	; 0x04
    h--;
     e42:	8e 81       	ldd	r24, Y+6	; 0x06
     e44:	81 50       	subi	r24, 0x01	; 1
     e46:	8e 83       	std	Y+6, r24	; 0x06
{
#ifdef U8G2_WITH_INTERSECTION
  if ( u8g2_IsIntersection(u8g2, x, y, x+w, y+h) == 0 ) 
    return;
#endif /* U8G2_WITH_INTERSECTION */
  while( h != 0 )
     e48:	8e 81       	ldd	r24, Y+6	; 0x06
     e4a:	88 23       	and	r24, r24
     e4c:	79 f7       	brne	.-34     	; 0xe2c <u8g2_DrawBox+0x40>
     e4e:	01 c0       	rjmp	.+2      	; 0xe52 <u8g2_DrawBox+0x66>
*/
void u8g2_DrawBox(u8g2_t *u8g2, u8g2_uint_t x, u8g2_uint_t y, u8g2_uint_t w, u8g2_uint_t h)
{
#ifdef U8G2_WITH_INTERSECTION
  if ( u8g2_IsIntersection(u8g2, x, y, x+w, y+h) == 0 ) 
    return;
     e50:	00 00       	nop
  { 
    u8g2_DrawHVLine(u8g2, x, y, w, 0);
    y++;    
    h--;
  }
}
     e52:	26 96       	adiw	r28, 0x06	; 6
     e54:	0f b6       	in	r0, 0x3f	; 63
     e56:	f8 94       	cli
     e58:	de bf       	out	0x3e, r29	; 62
     e5a:	0f be       	out	0x3f, r0	; 63
     e5c:	cd bf       	out	0x3d, r28	; 61
     e5e:	df 91       	pop	r29
     e60:	cf 91       	pop	r28
     e62:	0f 91       	pop	r16
     e64:	08 95       	ret

00000e66 <u8g2_DrawFrame>:
  restriction: does not work for w = 0 or h = 0
  ToDo:
    pixel in the corners are drawn twice. This could be optimized.
*/
void u8g2_DrawFrame(u8g2_t *u8g2, u8g2_uint_t x, u8g2_uint_t y, u8g2_uint_t w, u8g2_uint_t h)
{
     e66:	0f 93       	push	r16
     e68:	cf 93       	push	r28
     e6a:	df 93       	push	r29
     e6c:	cd b7       	in	r28, 0x3d	; 61
     e6e:	de b7       	in	r29, 0x3e	; 62
     e70:	27 97       	sbiw	r28, 0x07	; 7
     e72:	0f b6       	in	r0, 0x3f	; 63
     e74:	f8 94       	cli
     e76:	de bf       	out	0x3e, r29	; 62
     e78:	0f be       	out	0x3f, r0	; 63
     e7a:	cd bf       	out	0x3d, r28	; 61
     e7c:	9b 83       	std	Y+3, r25	; 0x03
     e7e:	8a 83       	std	Y+2, r24	; 0x02
     e80:	6c 83       	std	Y+4, r22	; 0x04
     e82:	4d 83       	std	Y+5, r20	; 0x05
     e84:	2e 83       	std	Y+6, r18	; 0x06
     e86:	0f 83       	std	Y+7, r16	; 0x07
  u8g2_uint_t xtmp = x;
     e88:	8c 81       	ldd	r24, Y+4	; 0x04
     e8a:	89 83       	std	Y+1, r24	; 0x01
  
#ifdef U8G2_WITH_INTERSECTION
  if ( u8g2_IsIntersection(u8g2, x, y, x+w, y+h) == 0 ) 
     e8c:	9d 81       	ldd	r25, Y+5	; 0x05
     e8e:	8f 81       	ldd	r24, Y+7	; 0x07
     e90:	39 2f       	mov	r19, r25
     e92:	38 0f       	add	r19, r24
     e94:	9c 81       	ldd	r25, Y+4	; 0x04
     e96:	8e 81       	ldd	r24, Y+6	; 0x06
     e98:	29 2f       	mov	r18, r25
     e9a:	28 0f       	add	r18, r24
     e9c:	8a 81       	ldd	r24, Y+2	; 0x02
     e9e:	9b 81       	ldd	r25, Y+3	; 0x03
     ea0:	03 2f       	mov	r16, r19
     ea2:	4d 81       	ldd	r20, Y+5	; 0x05
     ea4:	6c 81       	ldd	r22, Y+4	; 0x04
     ea6:	0e 94 1d 14 	call	0x283a	; 0x283a <u8g2_IsIntersection>
     eaa:	88 23       	and	r24, r24
     eac:	79 f1       	breq	.+94     	; 0xf0c <u8g2_DrawFrame+0xa6>
    return;
#endif /* U8G2_WITH_INTERSECTION */
  
  u8g2_DrawHVLine(u8g2, x, y, w, 0);
     eae:	8a 81       	ldd	r24, Y+2	; 0x02
     eb0:	9b 81       	ldd	r25, Y+3	; 0x03
     eb2:	00 e0       	ldi	r16, 0x00	; 0
     eb4:	2e 81       	ldd	r18, Y+6	; 0x06
     eb6:	4d 81       	ldd	r20, Y+5	; 0x05
     eb8:	6c 81       	ldd	r22, Y+4	; 0x04
     eba:	0e 94 04 13 	call	0x2608	; 0x2608 <u8g2_DrawHVLine>
  u8g2_DrawHVLine(u8g2, x, y, h, 1);
     ebe:	8a 81       	ldd	r24, Y+2	; 0x02
     ec0:	9b 81       	ldd	r25, Y+3	; 0x03
     ec2:	01 e0       	ldi	r16, 0x01	; 1
     ec4:	2f 81       	ldd	r18, Y+7	; 0x07
     ec6:	4d 81       	ldd	r20, Y+5	; 0x05
     ec8:	6c 81       	ldd	r22, Y+4	; 0x04
     eca:	0e 94 04 13 	call	0x2608	; 0x2608 <u8g2_DrawHVLine>
  x+=w;
     ece:	9c 81       	ldd	r25, Y+4	; 0x04
     ed0:	8e 81       	ldd	r24, Y+6	; 0x06
     ed2:	89 0f       	add	r24, r25
     ed4:	8c 83       	std	Y+4, r24	; 0x04
  x--;
     ed6:	8c 81       	ldd	r24, Y+4	; 0x04
     ed8:	81 50       	subi	r24, 0x01	; 1
     eda:	8c 83       	std	Y+4, r24	; 0x04
  u8g2_DrawHVLine(u8g2, x, y, h, 1);
     edc:	8a 81       	ldd	r24, Y+2	; 0x02
     ede:	9b 81       	ldd	r25, Y+3	; 0x03
     ee0:	01 e0       	ldi	r16, 0x01	; 1
     ee2:	2f 81       	ldd	r18, Y+7	; 0x07
     ee4:	4d 81       	ldd	r20, Y+5	; 0x05
     ee6:	6c 81       	ldd	r22, Y+4	; 0x04
     ee8:	0e 94 04 13 	call	0x2608	; 0x2608 <u8g2_DrawHVLine>
  y+=h;
     eec:	9d 81       	ldd	r25, Y+5	; 0x05
     eee:	8f 81       	ldd	r24, Y+7	; 0x07
     ef0:	89 0f       	add	r24, r25
     ef2:	8d 83       	std	Y+5, r24	; 0x05
  y--;
     ef4:	8d 81       	ldd	r24, Y+5	; 0x05
     ef6:	81 50       	subi	r24, 0x01	; 1
     ef8:	8d 83       	std	Y+5, r24	; 0x05
  u8g2_DrawHVLine(u8g2, xtmp, y, w, 0);
     efa:	8a 81       	ldd	r24, Y+2	; 0x02
     efc:	9b 81       	ldd	r25, Y+3	; 0x03
     efe:	00 e0       	ldi	r16, 0x00	; 0
     f00:	2e 81       	ldd	r18, Y+6	; 0x06
     f02:	4d 81       	ldd	r20, Y+5	; 0x05
     f04:	69 81       	ldd	r22, Y+1	; 0x01
     f06:	0e 94 04 13 	call	0x2608	; 0x2608 <u8g2_DrawHVLine>
     f0a:	01 c0       	rjmp	.+2      	; 0xf0e <u8g2_DrawFrame+0xa8>
{
  u8g2_uint_t xtmp = x;
  
#ifdef U8G2_WITH_INTERSECTION
  if ( u8g2_IsIntersection(u8g2, x, y, x+w, y+h) == 0 ) 
    return;
     f0c:	00 00       	nop
  x--;
  u8g2_DrawHVLine(u8g2, x, y, h, 1);
  y+=h;
  y--;
  u8g2_DrawHVLine(u8g2, xtmp, y, w, 0);
}
     f0e:	27 96       	adiw	r28, 0x07	; 7
     f10:	0f b6       	in	r0, 0x3f	; 63
     f12:	f8 94       	cli
     f14:	de bf       	out	0x3e, r29	; 62
     f16:	0f be       	out	0x3f, r0	; 63
     f18:	cd bf       	out	0x3d, r28	; 61
     f1a:	df 91       	pop	r29
     f1c:	cf 91       	pop	r28
     f1e:	0f 91       	pop	r16
     f20:	08 95       	ret

00000f22 <u8g2_ClearBuffer>:
/* same as u8g2_send_buffer but also send the DISPLAY_REFRESH message (used by SSD1606) */
void u8g2_SendBuffer(u8g2_t *u8g2)
{
  u8g2_send_buffer(u8g2);
  u8x8_RefreshDisplay( u8g2_GetU8x8(u8g2) );  
}
     f22:	cf 93       	push	r28
     f24:	df 93       	push	r29
     f26:	00 d0       	rcall	.+0      	; 0xf28 <u8g2_ClearBuffer+0x6>
     f28:	00 d0       	rcall	.+0      	; 0xf2a <u8g2_ClearBuffer+0x8>
     f2a:	cd b7       	in	r28, 0x3d	; 61
     f2c:	de b7       	in	r29, 0x3e	; 62
     f2e:	9c 83       	std	Y+4, r25	; 0x04
     f30:	8b 83       	std	Y+3, r24	; 0x03
     f32:	8b 81       	ldd	r24, Y+3	; 0x03
     f34:	9c 81       	ldd	r25, Y+4	; 0x04
     f36:	fc 01       	movw	r30, r24
     f38:	80 81       	ld	r24, Z
     f3a:	91 81       	ldd	r25, Z+1	; 0x01
     f3c:	fc 01       	movw	r30, r24
     f3e:	80 89       	ldd	r24, Z+16	; 0x10
     f40:	88 2f       	mov	r24, r24
     f42:	90 e0       	ldi	r25, 0x00	; 0
     f44:	9a 83       	std	Y+2, r25	; 0x02
     f46:	89 83       	std	Y+1, r24	; 0x01
     f48:	8b 81       	ldd	r24, Y+3	; 0x03
     f4a:	9c 81       	ldd	r25, Y+4	; 0x04
     f4c:	fc 01       	movw	r30, r24
     f4e:	85 a1       	ldd	r24, Z+37	; 0x25
     f50:	28 2f       	mov	r18, r24
     f52:	30 e0       	ldi	r19, 0x00	; 0
     f54:	49 81       	ldd	r20, Y+1	; 0x01
     f56:	5a 81       	ldd	r21, Y+2	; 0x02
     f58:	42 9f       	mul	r20, r18
     f5a:	c0 01       	movw	r24, r0
     f5c:	43 9f       	mul	r20, r19
     f5e:	90 0d       	add	r25, r0
     f60:	52 9f       	mul	r21, r18
     f62:	90 0d       	add	r25, r0
     f64:	11 24       	eor	r1, r1
     f66:	9a 83       	std	Y+2, r25	; 0x02
     f68:	89 83       	std	Y+1, r24	; 0x01
     f6a:	89 81       	ldd	r24, Y+1	; 0x01
     f6c:	9a 81       	ldd	r25, Y+2	; 0x02
     f6e:	88 0f       	add	r24, r24
     f70:	99 1f       	adc	r25, r25
     f72:	88 0f       	add	r24, r24
     f74:	99 1f       	adc	r25, r25
     f76:	88 0f       	add	r24, r24
     f78:	99 1f       	adc	r25, r25
     f7a:	9a 83       	std	Y+2, r25	; 0x02
     f7c:	89 83       	std	Y+1, r24	; 0x01
     f7e:	8b 81       	ldd	r24, Y+3	; 0x03
     f80:	9c 81       	ldd	r25, Y+4	; 0x04
     f82:	fc 01       	movw	r30, r24
     f84:	83 a1       	ldd	r24, Z+35	; 0x23
     f86:	94 a1       	ldd	r25, Z+36	; 0x24
     f88:	29 81       	ldd	r18, Y+1	; 0x01
     f8a:	3a 81       	ldd	r19, Y+2	; 0x02
     f8c:	a9 01       	movw	r20, r18
     f8e:	60 e0       	ldi	r22, 0x00	; 0
     f90:	70 e0       	ldi	r23, 0x00	; 0
     f92:	0e 94 97 25 	call	0x4b2e	; 0x4b2e <memset>
     f96:	00 00       	nop
     f98:	0f 90       	pop	r0
     f9a:	0f 90       	pop	r0
     f9c:	0f 90       	pop	r0
     f9e:	0f 90       	pop	r0
     fa0:	df 91       	pop	r29
     fa2:	cf 91       	pop	r28
     fa4:	08 95       	ret

00000fa6 <u8g2_send_tile_row>:
     fa6:	0f 93       	push	r16
     fa8:	1f 93       	push	r17
     faa:	cf 93       	push	r28
     fac:	df 93       	push	r29
     fae:	cd b7       	in	r28, 0x3d	; 61
     fb0:	de b7       	in	r29, 0x3e	; 62
     fb2:	29 97       	sbiw	r28, 0x09	; 9
     fb4:	0f b6       	in	r0, 0x3f	; 63
     fb6:	f8 94       	cli
     fb8:	de bf       	out	0x3e, r29	; 62
     fba:	0f be       	out	0x3f, r0	; 63
     fbc:	cd bf       	out	0x3d, r28	; 61
     fbe:	9f 83       	std	Y+7, r25	; 0x07
     fc0:	8e 83       	std	Y+6, r24	; 0x06
     fc2:	68 87       	std	Y+8, r22	; 0x08
     fc4:	49 87       	std	Y+9, r20	; 0x09
     fc6:	8e 81       	ldd	r24, Y+6	; 0x06
     fc8:	9f 81       	ldd	r25, Y+7	; 0x07
     fca:	fc 01       	movw	r30, r24
     fcc:	80 81       	ld	r24, Z
     fce:	91 81       	ldd	r25, Z+1	; 0x01
     fd0:	fc 01       	movw	r30, r24
     fd2:	80 89       	ldd	r24, Z+16	; 0x10
     fd4:	89 83       	std	Y+1, r24	; 0x01
     fd6:	88 85       	ldd	r24, Y+8	; 0x08
     fd8:	88 2f       	mov	r24, r24
     fda:	90 e0       	ldi	r25, 0x00	; 0
     fdc:	9b 83       	std	Y+3, r25	; 0x03
     fde:	8a 83       	std	Y+2, r24	; 0x02
     fe0:	8e 81       	ldd	r24, Y+6	; 0x06
     fe2:	9f 81       	ldd	r25, Y+7	; 0x07
     fe4:	fc 01       	movw	r30, r24
     fe6:	83 a1       	ldd	r24, Z+35	; 0x23
     fe8:	94 a1       	ldd	r25, Z+36	; 0x24
     fea:	9d 83       	std	Y+5, r25	; 0x05
     fec:	8c 83       	std	Y+4, r24	; 0x04
     fee:	89 81       	ldd	r24, Y+1	; 0x01
     ff0:	28 2f       	mov	r18, r24
     ff2:	30 e0       	ldi	r19, 0x00	; 0
     ff4:	4a 81       	ldd	r20, Y+2	; 0x02
     ff6:	5b 81       	ldd	r21, Y+3	; 0x03
     ff8:	42 9f       	mul	r20, r18
     ffa:	c0 01       	movw	r24, r0
     ffc:	43 9f       	mul	r20, r19
     ffe:	90 0d       	add	r25, r0
    1000:	52 9f       	mul	r21, r18
    1002:	90 0d       	add	r25, r0
    1004:	11 24       	eor	r1, r1
    1006:	9b 83       	std	Y+3, r25	; 0x03
    1008:	8a 83       	std	Y+2, r24	; 0x02
    100a:	8a 81       	ldd	r24, Y+2	; 0x02
    100c:	9b 81       	ldd	r25, Y+3	; 0x03
    100e:	88 0f       	add	r24, r24
    1010:	99 1f       	adc	r25, r25
    1012:	88 0f       	add	r24, r24
    1014:	99 1f       	adc	r25, r25
    1016:	88 0f       	add	r24, r24
    1018:	99 1f       	adc	r25, r25
    101a:	9b 83       	std	Y+3, r25	; 0x03
    101c:	8a 83       	std	Y+2, r24	; 0x02
    101e:	2c 81       	ldd	r18, Y+4	; 0x04
    1020:	3d 81       	ldd	r19, Y+5	; 0x05
    1022:	8a 81       	ldd	r24, Y+2	; 0x02
    1024:	9b 81       	ldd	r25, Y+3	; 0x03
    1026:	82 0f       	add	r24, r18
    1028:	93 1f       	adc	r25, r19
    102a:	9d 83       	std	Y+5, r25	; 0x05
    102c:	8c 83       	std	Y+4, r24	; 0x04
    102e:	2c 81       	ldd	r18, Y+4	; 0x04
    1030:	3d 81       	ldd	r19, Y+5	; 0x05
    1032:	8e 81       	ldd	r24, Y+6	; 0x06
    1034:	9f 81       	ldd	r25, Y+7	; 0x07
    1036:	89 01       	movw	r16, r18
    1038:	29 81       	ldd	r18, Y+1	; 0x01
    103a:	49 85       	ldd	r20, Y+9	; 0x09
    103c:	60 e0       	ldi	r22, 0x00	; 0
    103e:	0e 94 3c 20 	call	0x4078	; 0x4078 <u8x8_DrawTile>
    1042:	00 00       	nop
    1044:	29 96       	adiw	r28, 0x09	; 9
    1046:	0f b6       	in	r0, 0x3f	; 63
    1048:	f8 94       	cli
    104a:	de bf       	out	0x3e, r29	; 62
    104c:	0f be       	out	0x3f, r0	; 63
    104e:	cd bf       	out	0x3d, r28	; 61
    1050:	df 91       	pop	r29
    1052:	cf 91       	pop	r28
    1054:	1f 91       	pop	r17
    1056:	0f 91       	pop	r16
    1058:	08 95       	ret

0000105a <u8g2_send_buffer>:
    105a:	cf 93       	push	r28
    105c:	df 93       	push	r29
    105e:	00 d0       	rcall	.+0      	; 0x1060 <u8g2_send_buffer+0x6>
    1060:	00 d0       	rcall	.+0      	; 0x1062 <u8g2_send_buffer+0x8>
    1062:	00 d0       	rcall	.+0      	; 0x1064 <u8g2_send_buffer+0xa>
    1064:	cd b7       	in	r28, 0x3d	; 61
    1066:	de b7       	in	r29, 0x3e	; 62
    1068:	9e 83       	std	Y+6, r25	; 0x06
    106a:	8d 83       	std	Y+5, r24	; 0x05
    106c:	19 82       	std	Y+1, r1	; 0x01
    106e:	8d 81       	ldd	r24, Y+5	; 0x05
    1070:	9e 81       	ldd	r25, Y+6	; 0x06
    1072:	fc 01       	movw	r30, r24
    1074:	85 a1       	ldd	r24, Z+37	; 0x25
    1076:	8b 83       	std	Y+3, r24	; 0x03
    1078:	8d 81       	ldd	r24, Y+5	; 0x05
    107a:	9e 81       	ldd	r25, Y+6	; 0x06
    107c:	fc 01       	movw	r30, r24
    107e:	86 a1       	ldd	r24, Z+38	; 0x26
    1080:	8a 83       	std	Y+2, r24	; 0x02
    1082:	8d 81       	ldd	r24, Y+5	; 0x05
    1084:	9e 81       	ldd	r25, Y+6	; 0x06
    1086:	fc 01       	movw	r30, r24
    1088:	80 81       	ld	r24, Z
    108a:	91 81       	ldd	r25, Z+1	; 0x01
    108c:	fc 01       	movw	r30, r24
    108e:	81 89       	ldd	r24, Z+17	; 0x11
    1090:	8c 83       	std	Y+4, r24	; 0x04
    1092:	8d 81       	ldd	r24, Y+5	; 0x05
    1094:	9e 81       	ldd	r25, Y+6	; 0x06
    1096:	4a 81       	ldd	r20, Y+2	; 0x02
    1098:	69 81       	ldd	r22, Y+1	; 0x01
    109a:	85 df       	rcall	.-246    	; 0xfa6 <u8g2_send_tile_row>
    109c:	89 81       	ldd	r24, Y+1	; 0x01
    109e:	8f 5f       	subi	r24, 0xFF	; 255
    10a0:	89 83       	std	Y+1, r24	; 0x01
    10a2:	8a 81       	ldd	r24, Y+2	; 0x02
    10a4:	8f 5f       	subi	r24, 0xFF	; 255
    10a6:	8a 83       	std	Y+2, r24	; 0x02
    10a8:	99 81       	ldd	r25, Y+1	; 0x01
    10aa:	8b 81       	ldd	r24, Y+3	; 0x03
    10ac:	98 17       	cp	r25, r24
    10ae:	20 f4       	brcc	.+8      	; 0x10b8 <u8g2_send_buffer+0x5e>
    10b0:	9a 81       	ldd	r25, Y+2	; 0x02
    10b2:	8c 81       	ldd	r24, Y+4	; 0x04
    10b4:	98 17       	cp	r25, r24
    10b6:	68 f3       	brcs	.-38     	; 0x1092 <u8g2_send_buffer+0x38>
    10b8:	00 00       	nop
    10ba:	26 96       	adiw	r28, 0x06	; 6
    10bc:	0f b6       	in	r0, 0x3f	; 63
    10be:	f8 94       	cli
    10c0:	de bf       	out	0x3e, r29	; 62
    10c2:	0f be       	out	0x3f, r0	; 63
    10c4:	cd bf       	out	0x3d, r28	; 61
    10c6:	df 91       	pop	r29
    10c8:	cf 91       	pop	r28
    10ca:	08 95       	ret

000010cc <u8g2_SetBufferCurrTileRow>:

/*============================================*/
void u8g2_SetBufferCurrTileRow(u8g2_t *u8g2, uint8_t row)
{
    10cc:	cf 93       	push	r28
    10ce:	df 93       	push	r29
    10d0:	00 d0       	rcall	.+0      	; 0x10d2 <u8g2_SetBufferCurrTileRow+0x6>
    10d2:	1f 92       	push	r1
    10d4:	cd b7       	in	r28, 0x3d	; 61
    10d6:	de b7       	in	r29, 0x3e	; 62
    10d8:	9a 83       	std	Y+2, r25	; 0x02
    10da:	89 83       	std	Y+1, r24	; 0x01
    10dc:	6b 83       	std	Y+3, r22	; 0x03
  u8g2->tile_curr_row = row;
    10de:	89 81       	ldd	r24, Y+1	; 0x01
    10e0:	9a 81       	ldd	r25, Y+2	; 0x02
    10e2:	2b 81       	ldd	r18, Y+3	; 0x03
    10e4:	fc 01       	movw	r30, r24
    10e6:	26 a3       	std	Z+38, r18	; 0x26
  u8g2->cb->update_dimension(u8g2);
    10e8:	89 81       	ldd	r24, Y+1	; 0x01
    10ea:	9a 81       	ldd	r25, Y+2	; 0x02
    10ec:	fc 01       	movw	r30, r24
    10ee:	81 a1       	ldd	r24, Z+33	; 0x21
    10f0:	92 a1       	ldd	r25, Z+34	; 0x22
    10f2:	fc 01       	movw	r30, r24
    10f4:	20 81       	ld	r18, Z
    10f6:	31 81       	ldd	r19, Z+1	; 0x01
    10f8:	89 81       	ldd	r24, Y+1	; 0x01
    10fa:	9a 81       	ldd	r25, Y+2	; 0x02
    10fc:	f9 01       	movw	r30, r18
    10fe:	09 95       	icall
  u8g2->cb->update_page_win(u8g2);
    1100:	89 81       	ldd	r24, Y+1	; 0x01
    1102:	9a 81       	ldd	r25, Y+2	; 0x02
    1104:	fc 01       	movw	r30, r24
    1106:	81 a1       	ldd	r24, Z+33	; 0x21
    1108:	92 a1       	ldd	r25, Z+34	; 0x22
    110a:	fc 01       	movw	r30, r24
    110c:	22 81       	ldd	r18, Z+2	; 0x02
    110e:	33 81       	ldd	r19, Z+3	; 0x03
    1110:	89 81       	ldd	r24, Y+1	; 0x01
    1112:	9a 81       	ldd	r25, Y+2	; 0x02
    1114:	f9 01       	movw	r30, r18
    1116:	09 95       	icall
}
    1118:	00 00       	nop
    111a:	0f 90       	pop	r0
    111c:	0f 90       	pop	r0
    111e:	0f 90       	pop	r0
    1120:	df 91       	pop	r29
    1122:	cf 91       	pop	r28
    1124:	08 95       	ret

00001126 <u8g2_FirstPage>:

void u8g2_FirstPage(u8g2_t *u8g2)
{
    1126:	cf 93       	push	r28
    1128:	df 93       	push	r29
    112a:	00 d0       	rcall	.+0      	; 0x112c <u8g2_FirstPage+0x6>
    112c:	cd b7       	in	r28, 0x3d	; 61
    112e:	de b7       	in	r29, 0x3e	; 62
    1130:	9a 83       	std	Y+2, r25	; 0x02
    1132:	89 83       	std	Y+1, r24	; 0x01
  if ( u8g2->is_auto_page_clear )
    1134:	89 81       	ldd	r24, Y+1	; 0x01
    1136:	9a 81       	ldd	r25, Y+2	; 0x02
    1138:	8b 59       	subi	r24, 0x9B	; 155
    113a:	9f 4f       	sbci	r25, 0xFF	; 255
    113c:	fc 01       	movw	r30, r24
    113e:	80 81       	ld	r24, Z
    1140:	88 23       	and	r24, r24
    1142:	19 f0       	breq	.+6      	; 0x114a <u8g2_FirstPage+0x24>
  {
    u8g2_ClearBuffer(u8g2);
    1144:	89 81       	ldd	r24, Y+1	; 0x01
    1146:	9a 81       	ldd	r25, Y+2	; 0x02
    1148:	ec de       	rcall	.-552    	; 0xf22 <u8g2_ClearBuffer>
  }
  u8g2_SetBufferCurrTileRow(u8g2, 0);
    114a:	89 81       	ldd	r24, Y+1	; 0x01
    114c:	9a 81       	ldd	r25, Y+2	; 0x02
    114e:	60 e0       	ldi	r22, 0x00	; 0
    1150:	bd df       	rcall	.-134    	; 0x10cc <u8g2_SetBufferCurrTileRow>
}
    1152:	00 00       	nop
    1154:	0f 90       	pop	r0
    1156:	0f 90       	pop	r0
    1158:	df 91       	pop	r29
    115a:	cf 91       	pop	r28
    115c:	08 95       	ret

0000115e <u8g2_NextPage>:

uint8_t u8g2_NextPage(u8g2_t *u8g2)
{
    115e:	cf 93       	push	r28
    1160:	df 93       	push	r29
    1162:	00 d0       	rcall	.+0      	; 0x1164 <u8g2_NextPage+0x6>
    1164:	1f 92       	push	r1
    1166:	cd b7       	in	r28, 0x3d	; 61
    1168:	de b7       	in	r29, 0x3e	; 62
    116a:	9b 83       	std	Y+3, r25	; 0x03
    116c:	8a 83       	std	Y+2, r24	; 0x02
  uint8_t row;
  u8g2_send_buffer(u8g2);
    116e:	8a 81       	ldd	r24, Y+2	; 0x02
    1170:	9b 81       	ldd	r25, Y+3	; 0x03
    1172:	73 df       	rcall	.-282    	; 0x105a <u8g2_send_buffer>
  row = u8g2->tile_curr_row;
    1174:	8a 81       	ldd	r24, Y+2	; 0x02
    1176:	9b 81       	ldd	r25, Y+3	; 0x03
    1178:	fc 01       	movw	r30, r24
    117a:	86 a1       	ldd	r24, Z+38	; 0x26
    117c:	89 83       	std	Y+1, r24	; 0x01
  row += u8g2->tile_buf_height;
    117e:	8a 81       	ldd	r24, Y+2	; 0x02
    1180:	9b 81       	ldd	r25, Y+3	; 0x03
    1182:	fc 01       	movw	r30, r24
    1184:	85 a1       	ldd	r24, Z+37	; 0x25
    1186:	99 81       	ldd	r25, Y+1	; 0x01
    1188:	89 0f       	add	r24, r25
    118a:	89 83       	std	Y+1, r24	; 0x01
  if ( row >= u8g2_GetU8x8(u8g2)->display_info->tile_height )
    118c:	8a 81       	ldd	r24, Y+2	; 0x02
    118e:	9b 81       	ldd	r25, Y+3	; 0x03
    1190:	fc 01       	movw	r30, r24
    1192:	80 81       	ld	r24, Z
    1194:	91 81       	ldd	r25, Z+1	; 0x01
    1196:	fc 01       	movw	r30, r24
    1198:	91 89       	ldd	r25, Z+17	; 0x11
    119a:	89 81       	ldd	r24, Y+1	; 0x01
    119c:	89 17       	cp	r24, r25
    119e:	30 f0       	brcs	.+12     	; 0x11ac <u8g2_NextPage+0x4e>
  {
    u8x8_RefreshDisplay( u8g2_GetU8x8(u8g2) );
    11a0:	8a 81       	ldd	r24, Y+2	; 0x02
    11a2:	9b 81       	ldd	r25, Y+3	; 0x03
    11a4:	0e 94 c7 20 	call	0x418e	; 0x418e <u8x8_RefreshDisplay>
    return 0;
    11a8:	80 e0       	ldi	r24, 0x00	; 0
    11aa:	10 c0       	rjmp	.+32     	; 0x11cc <u8g2_NextPage+0x6e>
  }
  if ( u8g2->is_auto_page_clear )
    11ac:	8a 81       	ldd	r24, Y+2	; 0x02
    11ae:	9b 81       	ldd	r25, Y+3	; 0x03
    11b0:	8b 59       	subi	r24, 0x9B	; 155
    11b2:	9f 4f       	sbci	r25, 0xFF	; 255
    11b4:	fc 01       	movw	r30, r24
    11b6:	80 81       	ld	r24, Z
    11b8:	88 23       	and	r24, r24
    11ba:	19 f0       	breq	.+6      	; 0x11c2 <u8g2_NextPage+0x64>
  {
    u8g2_ClearBuffer(u8g2);
    11bc:	8a 81       	ldd	r24, Y+2	; 0x02
    11be:	9b 81       	ldd	r25, Y+3	; 0x03
    11c0:	b0 de       	rcall	.-672    	; 0xf22 <u8g2_ClearBuffer>
  }
  u8g2_SetBufferCurrTileRow(u8g2, row);
    11c2:	8a 81       	ldd	r24, Y+2	; 0x02
    11c4:	9b 81       	ldd	r25, Y+3	; 0x03
    11c6:	69 81       	ldd	r22, Y+1	; 0x01
    11c8:	81 df       	rcall	.-254    	; 0x10cc <u8g2_SetBufferCurrTileRow>
  return 1;
    11ca:	81 e0       	ldi	r24, 0x01	; 1
}
    11cc:	0f 90       	pop	r0
    11ce:	0f 90       	pop	r0
    11d0:	0f 90       	pop	r0
    11d2:	df 91       	pop	r29
    11d4:	cf 91       	pop	r28
    11d6:	08 95       	ret

000011d8 <u8g2_m_16_8_f>:
  *page_cnt = 2;
  return buf;
  #endif
}
uint8_t *u8g2_m_16_8_f(uint8_t *page_cnt)
{
    11d8:	cf 93       	push	r28
    11da:	df 93       	push	r29
    11dc:	00 d0       	rcall	.+0      	; 0x11de <u8g2_m_16_8_f+0x6>
    11de:	cd b7       	in	r28, 0x3d	; 61
    11e0:	de b7       	in	r29, 0x3e	; 62
    11e2:	9a 83       	std	Y+2, r25	; 0x02
    11e4:	89 83       	std	Y+1, r24	; 0x01
  #ifdef U8G2_USE_DYNAMIC_ALLOC
  *page_cnt = 8;
  return 0;
  #else
  static uint8_t buf[1024];
  *page_cnt = 8;
    11e6:	89 81       	ldd	r24, Y+1	; 0x01
    11e8:	9a 81       	ldd	r25, Y+2	; 0x02
    11ea:	28 e0       	ldi	r18, 0x08	; 8
    11ec:	fc 01       	movw	r30, r24
    11ee:	20 83       	st	Z, r18
  return buf;
    11f0:	80 e9       	ldi	r24, 0x90	; 144
    11f2:	91 e0       	ldi	r25, 0x01	; 1
  #endif
}
    11f4:	0f 90       	pop	r0
    11f6:	0f 90       	pop	r0
    11f8:	df 91       	pop	r29
    11fa:	cf 91       	pop	r28
    11fc:	08 95       	ret

000011fe <u8g2_Setup_ssd1306_i2c_128x64_noname_f>:
  buf = u8g2_m_16_8_2(&tile_buf_height);
  u8g2_SetupBuffer(u8g2, buf, tile_buf_height, u8g2_ll_hvline_vertical_top_lsb, rotation);
}
/* ssd1306 f */
void u8g2_Setup_ssd1306_i2c_128x64_noname_f(u8g2_t *u8g2, const u8g2_cb_t *rotation, u8x8_msg_cb byte_cb, u8x8_msg_cb gpio_and_delay_cb)
{
    11fe:	0f 93       	push	r16
    1200:	1f 93       	push	r17
    1202:	cf 93       	push	r28
    1204:	df 93       	push	r29
    1206:	cd b7       	in	r28, 0x3d	; 61
    1208:	de b7       	in	r29, 0x3e	; 62
    120a:	2b 97       	sbiw	r28, 0x0b	; 11
    120c:	0f b6       	in	r0, 0x3f	; 63
    120e:	f8 94       	cli
    1210:	de bf       	out	0x3e, r29	; 62
    1212:	0f be       	out	0x3f, r0	; 63
    1214:	cd bf       	out	0x3d, r28	; 61
    1216:	9d 83       	std	Y+5, r25	; 0x05
    1218:	8c 83       	std	Y+4, r24	; 0x04
    121a:	7f 83       	std	Y+7, r23	; 0x07
    121c:	6e 83       	std	Y+6, r22	; 0x06
    121e:	59 87       	std	Y+9, r21	; 0x09
    1220:	48 87       	std	Y+8, r20	; 0x08
    1222:	3b 87       	std	Y+11, r19	; 0x0b
    1224:	2a 87       	std	Y+10, r18	; 0x0a
  uint8_t tile_buf_height;
  uint8_t *buf;
  u8g2_SetupDisplay(u8g2, u8x8_d_ssd1306_128x64_noname, u8x8_cad_ssd13xx_fast_i2c, byte_cb, gpio_and_delay_cb);
    1226:	4a 85       	ldd	r20, Y+10	; 0x0a
    1228:	5b 85       	ldd	r21, Y+11	; 0x0b
    122a:	28 85       	ldd	r18, Y+8	; 0x08
    122c:	39 85       	ldd	r19, Y+9	; 0x09
    122e:	8c 81       	ldd	r24, Y+4	; 0x04
    1230:	9d 81       	ldd	r25, Y+5	; 0x05
    1232:	8a 01       	movw	r16, r20
    1234:	47 e3       	ldi	r20, 0x37	; 55
    1236:	5e e1       	ldi	r21, 0x1E	; 30
    1238:	67 ea       	ldi	r22, 0xA7	; 167
    123a:	71 e2       	ldi	r23, 0x21	; 33
    123c:	0e 94 0c 23 	call	0x4618	; 0x4618 <u8x8_Setup>
  buf = u8g2_m_16_8_f(&tile_buf_height);
    1240:	ce 01       	movw	r24, r28
    1242:	03 96       	adiw	r24, 0x03	; 3
    1244:	c9 df       	rcall	.-110    	; 0x11d8 <u8g2_m_16_8_f>
    1246:	9a 83       	std	Y+2, r25	; 0x02
    1248:	89 83       	std	Y+1, r24	; 0x01
  u8g2_SetupBuffer(u8g2, buf, tile_buf_height, u8g2_ll_hvline_vertical_top_lsb, rotation);
    124a:	4b 81       	ldd	r20, Y+3	; 0x03
    124c:	2e 81       	ldd	r18, Y+6	; 0x06
    124e:	3f 81       	ldd	r19, Y+7	; 0x07
    1250:	69 81       	ldd	r22, Y+1	; 0x01
    1252:	7a 81       	ldd	r23, Y+2	; 0x02
    1254:	8c 81       	ldd	r24, Y+4	; 0x04
    1256:	9d 81       	ldd	r25, Y+5	; 0x05
    1258:	89 01       	movw	r16, r18
    125a:	21 e5       	ldi	r18, 0x51	; 81
    125c:	34 e1       	ldi	r19, 0x14	; 20
    125e:	0e 94 1e 18 	call	0x303c	; 0x303c <u8g2_SetupBuffer>
}
    1262:	00 00       	nop
    1264:	2b 96       	adiw	r28, 0x0b	; 11
    1266:	0f b6       	in	r0, 0x3f	; 63
    1268:	f8 94       	cli
    126a:	de bf       	out	0x3e, r29	; 62
    126c:	0f be       	out	0x3f, r0	; 63
    126e:	cd bf       	out	0x3d, r28	; 61
    1270:	df 91       	pop	r29
    1272:	cf 91       	pop	r28
    1274:	1f 91       	pop	r17
    1276:	0f 91       	pop	r16
    1278:	08 95       	ret

0000127a <u8g2_font_get_byte>:

u8g2_uint_t u8g2_GetExactStrWidth(u8g2_t *u8g2, const char *s)
{
  u8g2->u8x8.next_cb = u8x8_ascii_next;
  return u8g2_calculate_exact_string_width(u8g2, s);
}
    127a:	cf 93       	push	r28
    127c:	df 93       	push	r29
    127e:	00 d0       	rcall	.+0      	; 0x1280 <u8g2_font_get_byte+0x6>
    1280:	00 d0       	rcall	.+0      	; 0x1282 <u8g2_font_get_byte+0x8>
    1282:	00 d0       	rcall	.+0      	; 0x1284 <u8g2_font_get_byte+0xa>
    1284:	cd b7       	in	r28, 0x3d	; 61
    1286:	de b7       	in	r29, 0x3e	; 62
    1288:	9d 83       	std	Y+5, r25	; 0x05
    128a:	8c 83       	std	Y+4, r24	; 0x04
    128c:	6e 83       	std	Y+6, r22	; 0x06
    128e:	8e 81       	ldd	r24, Y+6	; 0x06
    1290:	88 2f       	mov	r24, r24
    1292:	90 e0       	ldi	r25, 0x00	; 0
    1294:	2c 81       	ldd	r18, Y+4	; 0x04
    1296:	3d 81       	ldd	r19, Y+5	; 0x05
    1298:	82 0f       	add	r24, r18
    129a:	93 1f       	adc	r25, r19
    129c:	9d 83       	std	Y+5, r25	; 0x05
    129e:	8c 83       	std	Y+4, r24	; 0x04
    12a0:	8c 81       	ldd	r24, Y+4	; 0x04
    12a2:	9d 81       	ldd	r25, Y+5	; 0x05
    12a4:	9a 83       	std	Y+2, r25	; 0x02
    12a6:	89 83       	std	Y+1, r24	; 0x01
    12a8:	89 81       	ldd	r24, Y+1	; 0x01
    12aa:	9a 81       	ldd	r25, Y+2	; 0x02
    12ac:	fc 01       	movw	r30, r24
    12ae:	84 91       	lpm	r24, Z
    12b0:	8b 83       	std	Y+3, r24	; 0x03
    12b2:	8b 81       	ldd	r24, Y+3	; 0x03
    12b4:	26 96       	adiw	r28, 0x06	; 6
    12b6:	0f b6       	in	r0, 0x3f	; 63
    12b8:	f8 94       	cli
    12ba:	de bf       	out	0x3e, r29	; 62
    12bc:	0f be       	out	0x3f, r0	; 63
    12be:	cd bf       	out	0x3d, r28	; 61
    12c0:	df 91       	pop	r29
    12c2:	cf 91       	pop	r28
    12c4:	08 95       	ret

000012c6 <u8g2_font_get_word>:
    12c6:	cf 93       	push	r28
    12c8:	df 93       	push	r29
    12ca:	cd b7       	in	r28, 0x3d	; 61
    12cc:	de b7       	in	r29, 0x3e	; 62
    12ce:	2b 97       	sbiw	r28, 0x0b	; 11
    12d0:	0f b6       	in	r0, 0x3f	; 63
    12d2:	f8 94       	cli
    12d4:	de bf       	out	0x3e, r29	; 62
    12d6:	0f be       	out	0x3f, r0	; 63
    12d8:	cd bf       	out	0x3d, r28	; 61
    12da:	9a 87       	std	Y+10, r25	; 0x0a
    12dc:	89 87       	std	Y+9, r24	; 0x09
    12de:	6b 87       	std	Y+11, r22	; 0x0b
    12e0:	8b 85       	ldd	r24, Y+11	; 0x0b
    12e2:	88 2f       	mov	r24, r24
    12e4:	90 e0       	ldi	r25, 0x00	; 0
    12e6:	29 85       	ldd	r18, Y+9	; 0x09
    12e8:	3a 85       	ldd	r19, Y+10	; 0x0a
    12ea:	82 0f       	add	r24, r18
    12ec:	93 1f       	adc	r25, r19
    12ee:	9a 87       	std	Y+10, r25	; 0x0a
    12f0:	89 87       	std	Y+9, r24	; 0x09
    12f2:	89 85       	ldd	r24, Y+9	; 0x09
    12f4:	9a 85       	ldd	r25, Y+10	; 0x0a
    12f6:	9a 83       	std	Y+2, r25	; 0x02
    12f8:	89 83       	std	Y+1, r24	; 0x01
    12fa:	89 81       	ldd	r24, Y+1	; 0x01
    12fc:	9a 81       	ldd	r25, Y+2	; 0x02
    12fe:	fc 01       	movw	r30, r24
    1300:	84 91       	lpm	r24, Z
    1302:	8b 83       	std	Y+3, r24	; 0x03
    1304:	8b 81       	ldd	r24, Y+3	; 0x03
    1306:	88 2f       	mov	r24, r24
    1308:	90 e0       	ldi	r25, 0x00	; 0
    130a:	9d 83       	std	Y+5, r25	; 0x05
    130c:	8c 83       	std	Y+4, r24	; 0x04
    130e:	89 85       	ldd	r24, Y+9	; 0x09
    1310:	9a 85       	ldd	r25, Y+10	; 0x0a
    1312:	01 96       	adiw	r24, 0x01	; 1
    1314:	9a 87       	std	Y+10, r25	; 0x0a
    1316:	89 87       	std	Y+9, r24	; 0x09
    1318:	8c 81       	ldd	r24, Y+4	; 0x04
    131a:	9d 81       	ldd	r25, Y+5	; 0x05
    131c:	98 2f       	mov	r25, r24
    131e:	88 27       	eor	r24, r24
    1320:	9d 83       	std	Y+5, r25	; 0x05
    1322:	8c 83       	std	Y+4, r24	; 0x04
    1324:	89 85       	ldd	r24, Y+9	; 0x09
    1326:	9a 85       	ldd	r25, Y+10	; 0x0a
    1328:	9f 83       	std	Y+7, r25	; 0x07
    132a:	8e 83       	std	Y+6, r24	; 0x06
    132c:	8e 81       	ldd	r24, Y+6	; 0x06
    132e:	9f 81       	ldd	r25, Y+7	; 0x07
    1330:	fc 01       	movw	r30, r24
    1332:	84 91       	lpm	r24, Z
    1334:	88 87       	std	Y+8, r24	; 0x08
    1336:	88 85       	ldd	r24, Y+8	; 0x08
    1338:	88 2f       	mov	r24, r24
    133a:	90 e0       	ldi	r25, 0x00	; 0
    133c:	2c 81       	ldd	r18, Y+4	; 0x04
    133e:	3d 81       	ldd	r19, Y+5	; 0x05
    1340:	82 0f       	add	r24, r18
    1342:	93 1f       	adc	r25, r19
    1344:	9d 83       	std	Y+5, r25	; 0x05
    1346:	8c 83       	std	Y+4, r24	; 0x04
    1348:	8c 81       	ldd	r24, Y+4	; 0x04
    134a:	9d 81       	ldd	r25, Y+5	; 0x05
    134c:	2b 96       	adiw	r28, 0x0b	; 11
    134e:	0f b6       	in	r0, 0x3f	; 63
    1350:	f8 94       	cli
    1352:	de bf       	out	0x3e, r29	; 62
    1354:	0f be       	out	0x3f, r0	; 63
    1356:	cd bf       	out	0x3d, r28	; 61
    1358:	df 91       	pop	r29
    135a:	cf 91       	pop	r28
    135c:	08 95       	ret

0000135e <u8g2_read_font_info>:
    135e:	cf 93       	push	r28
    1360:	df 93       	push	r29
    1362:	00 d0       	rcall	.+0      	; 0x1364 <u8g2_read_font_info+0x6>
    1364:	00 d0       	rcall	.+0      	; 0x1366 <u8g2_read_font_info+0x8>
    1366:	cd b7       	in	r28, 0x3d	; 61
    1368:	de b7       	in	r29, 0x3e	; 62
    136a:	9a 83       	std	Y+2, r25	; 0x02
    136c:	89 83       	std	Y+1, r24	; 0x01
    136e:	7c 83       	std	Y+4, r23	; 0x04
    1370:	6b 83       	std	Y+3, r22	; 0x03
    1372:	8b 81       	ldd	r24, Y+3	; 0x03
    1374:	9c 81       	ldd	r25, Y+4	; 0x04
    1376:	60 e0       	ldi	r22, 0x00	; 0
    1378:	80 df       	rcall	.-256    	; 0x127a <u8g2_font_get_byte>
    137a:	28 2f       	mov	r18, r24
    137c:	89 81       	ldd	r24, Y+1	; 0x01
    137e:	9a 81       	ldd	r25, Y+2	; 0x02
    1380:	fc 01       	movw	r30, r24
    1382:	20 83       	st	Z, r18
    1384:	8b 81       	ldd	r24, Y+3	; 0x03
    1386:	9c 81       	ldd	r25, Y+4	; 0x04
    1388:	61 e0       	ldi	r22, 0x01	; 1
    138a:	77 df       	rcall	.-274    	; 0x127a <u8g2_font_get_byte>
    138c:	28 2f       	mov	r18, r24
    138e:	89 81       	ldd	r24, Y+1	; 0x01
    1390:	9a 81       	ldd	r25, Y+2	; 0x02
    1392:	fc 01       	movw	r30, r24
    1394:	21 83       	std	Z+1, r18	; 0x01
    1396:	8b 81       	ldd	r24, Y+3	; 0x03
    1398:	9c 81       	ldd	r25, Y+4	; 0x04
    139a:	62 e0       	ldi	r22, 0x02	; 2
    139c:	6e df       	rcall	.-292    	; 0x127a <u8g2_font_get_byte>
    139e:	28 2f       	mov	r18, r24
    13a0:	89 81       	ldd	r24, Y+1	; 0x01
    13a2:	9a 81       	ldd	r25, Y+2	; 0x02
    13a4:	fc 01       	movw	r30, r24
    13a6:	22 83       	std	Z+2, r18	; 0x02
    13a8:	8b 81       	ldd	r24, Y+3	; 0x03
    13aa:	9c 81       	ldd	r25, Y+4	; 0x04
    13ac:	63 e0       	ldi	r22, 0x03	; 3
    13ae:	65 df       	rcall	.-310    	; 0x127a <u8g2_font_get_byte>
    13b0:	28 2f       	mov	r18, r24
    13b2:	89 81       	ldd	r24, Y+1	; 0x01
    13b4:	9a 81       	ldd	r25, Y+2	; 0x02
    13b6:	fc 01       	movw	r30, r24
    13b8:	23 83       	std	Z+3, r18	; 0x03
    13ba:	8b 81       	ldd	r24, Y+3	; 0x03
    13bc:	9c 81       	ldd	r25, Y+4	; 0x04
    13be:	64 e0       	ldi	r22, 0x04	; 4
    13c0:	5c df       	rcall	.-328    	; 0x127a <u8g2_font_get_byte>
    13c2:	28 2f       	mov	r18, r24
    13c4:	89 81       	ldd	r24, Y+1	; 0x01
    13c6:	9a 81       	ldd	r25, Y+2	; 0x02
    13c8:	fc 01       	movw	r30, r24
    13ca:	24 83       	std	Z+4, r18	; 0x04
    13cc:	8b 81       	ldd	r24, Y+3	; 0x03
    13ce:	9c 81       	ldd	r25, Y+4	; 0x04
    13d0:	65 e0       	ldi	r22, 0x05	; 5
    13d2:	53 df       	rcall	.-346    	; 0x127a <u8g2_font_get_byte>
    13d4:	28 2f       	mov	r18, r24
    13d6:	89 81       	ldd	r24, Y+1	; 0x01
    13d8:	9a 81       	ldd	r25, Y+2	; 0x02
    13da:	fc 01       	movw	r30, r24
    13dc:	25 83       	std	Z+5, r18	; 0x05
    13de:	8b 81       	ldd	r24, Y+3	; 0x03
    13e0:	9c 81       	ldd	r25, Y+4	; 0x04
    13e2:	66 e0       	ldi	r22, 0x06	; 6
    13e4:	4a df       	rcall	.-364    	; 0x127a <u8g2_font_get_byte>
    13e6:	28 2f       	mov	r18, r24
    13e8:	89 81       	ldd	r24, Y+1	; 0x01
    13ea:	9a 81       	ldd	r25, Y+2	; 0x02
    13ec:	fc 01       	movw	r30, r24
    13ee:	26 83       	std	Z+6, r18	; 0x06
    13f0:	8b 81       	ldd	r24, Y+3	; 0x03
    13f2:	9c 81       	ldd	r25, Y+4	; 0x04
    13f4:	67 e0       	ldi	r22, 0x07	; 7
    13f6:	41 df       	rcall	.-382    	; 0x127a <u8g2_font_get_byte>
    13f8:	28 2f       	mov	r18, r24
    13fa:	89 81       	ldd	r24, Y+1	; 0x01
    13fc:	9a 81       	ldd	r25, Y+2	; 0x02
    13fe:	fc 01       	movw	r30, r24
    1400:	27 83       	std	Z+7, r18	; 0x07
    1402:	8b 81       	ldd	r24, Y+3	; 0x03
    1404:	9c 81       	ldd	r25, Y+4	; 0x04
    1406:	68 e0       	ldi	r22, 0x08	; 8
    1408:	38 df       	rcall	.-400    	; 0x127a <u8g2_font_get_byte>
    140a:	28 2f       	mov	r18, r24
    140c:	89 81       	ldd	r24, Y+1	; 0x01
    140e:	9a 81       	ldd	r25, Y+2	; 0x02
    1410:	fc 01       	movw	r30, r24
    1412:	20 87       	std	Z+8, r18	; 0x08
    1414:	8b 81       	ldd	r24, Y+3	; 0x03
    1416:	9c 81       	ldd	r25, Y+4	; 0x04
    1418:	69 e0       	ldi	r22, 0x09	; 9
    141a:	2f df       	rcall	.-418    	; 0x127a <u8g2_font_get_byte>
    141c:	28 2f       	mov	r18, r24
    141e:	89 81       	ldd	r24, Y+1	; 0x01
    1420:	9a 81       	ldd	r25, Y+2	; 0x02
    1422:	fc 01       	movw	r30, r24
    1424:	21 87       	std	Z+9, r18	; 0x09
    1426:	8b 81       	ldd	r24, Y+3	; 0x03
    1428:	9c 81       	ldd	r25, Y+4	; 0x04
    142a:	6a e0       	ldi	r22, 0x0A	; 10
    142c:	26 df       	rcall	.-436    	; 0x127a <u8g2_font_get_byte>
    142e:	28 2f       	mov	r18, r24
    1430:	89 81       	ldd	r24, Y+1	; 0x01
    1432:	9a 81       	ldd	r25, Y+2	; 0x02
    1434:	fc 01       	movw	r30, r24
    1436:	22 87       	std	Z+10, r18	; 0x0a
    1438:	8b 81       	ldd	r24, Y+3	; 0x03
    143a:	9c 81       	ldd	r25, Y+4	; 0x04
    143c:	6b e0       	ldi	r22, 0x0B	; 11
    143e:	1d df       	rcall	.-454    	; 0x127a <u8g2_font_get_byte>
    1440:	28 2f       	mov	r18, r24
    1442:	89 81       	ldd	r24, Y+1	; 0x01
    1444:	9a 81       	ldd	r25, Y+2	; 0x02
    1446:	fc 01       	movw	r30, r24
    1448:	23 87       	std	Z+11, r18	; 0x0b
    144a:	8b 81       	ldd	r24, Y+3	; 0x03
    144c:	9c 81       	ldd	r25, Y+4	; 0x04
    144e:	6c e0       	ldi	r22, 0x0C	; 12
    1450:	14 df       	rcall	.-472    	; 0x127a <u8g2_font_get_byte>
    1452:	28 2f       	mov	r18, r24
    1454:	89 81       	ldd	r24, Y+1	; 0x01
    1456:	9a 81       	ldd	r25, Y+2	; 0x02
    1458:	fc 01       	movw	r30, r24
    145a:	24 87       	std	Z+12, r18	; 0x0c
    145c:	8b 81       	ldd	r24, Y+3	; 0x03
    145e:	9c 81       	ldd	r25, Y+4	; 0x04
    1460:	6d e0       	ldi	r22, 0x0D	; 13
    1462:	0b df       	rcall	.-490    	; 0x127a <u8g2_font_get_byte>
    1464:	28 2f       	mov	r18, r24
    1466:	89 81       	ldd	r24, Y+1	; 0x01
    1468:	9a 81       	ldd	r25, Y+2	; 0x02
    146a:	fc 01       	movw	r30, r24
    146c:	25 87       	std	Z+13, r18	; 0x0d
    146e:	8b 81       	ldd	r24, Y+3	; 0x03
    1470:	9c 81       	ldd	r25, Y+4	; 0x04
    1472:	6e e0       	ldi	r22, 0x0E	; 14
    1474:	02 df       	rcall	.-508    	; 0x127a <u8g2_font_get_byte>
    1476:	28 2f       	mov	r18, r24
    1478:	89 81       	ldd	r24, Y+1	; 0x01
    147a:	9a 81       	ldd	r25, Y+2	; 0x02
    147c:	fc 01       	movw	r30, r24
    147e:	26 87       	std	Z+14, r18	; 0x0e
    1480:	8b 81       	ldd	r24, Y+3	; 0x03
    1482:	9c 81       	ldd	r25, Y+4	; 0x04
    1484:	6f e0       	ldi	r22, 0x0F	; 15
    1486:	f9 de       	rcall	.-526    	; 0x127a <u8g2_font_get_byte>
    1488:	28 2f       	mov	r18, r24
    148a:	89 81       	ldd	r24, Y+1	; 0x01
    148c:	9a 81       	ldd	r25, Y+2	; 0x02
    148e:	fc 01       	movw	r30, r24
    1490:	27 87       	std	Z+15, r18	; 0x0f
    1492:	8b 81       	ldd	r24, Y+3	; 0x03
    1494:	9c 81       	ldd	r25, Y+4	; 0x04
    1496:	60 e1       	ldi	r22, 0x10	; 16
    1498:	f0 de       	rcall	.-544    	; 0x127a <u8g2_font_get_byte>
    149a:	28 2f       	mov	r18, r24
    149c:	89 81       	ldd	r24, Y+1	; 0x01
    149e:	9a 81       	ldd	r25, Y+2	; 0x02
    14a0:	fc 01       	movw	r30, r24
    14a2:	20 8b       	std	Z+16, r18	; 0x10
    14a4:	8b 81       	ldd	r24, Y+3	; 0x03
    14a6:	9c 81       	ldd	r25, Y+4	; 0x04
    14a8:	61 e1       	ldi	r22, 0x11	; 17
    14aa:	0d df       	rcall	.-486    	; 0x12c6 <u8g2_font_get_word>
    14ac:	9c 01       	movw	r18, r24
    14ae:	89 81       	ldd	r24, Y+1	; 0x01
    14b0:	9a 81       	ldd	r25, Y+2	; 0x02
    14b2:	fc 01       	movw	r30, r24
    14b4:	32 8b       	std	Z+18, r19	; 0x12
    14b6:	21 8b       	std	Z+17, r18	; 0x11
    14b8:	8b 81       	ldd	r24, Y+3	; 0x03
    14ba:	9c 81       	ldd	r25, Y+4	; 0x04
    14bc:	63 e1       	ldi	r22, 0x13	; 19
    14be:	03 df       	rcall	.-506    	; 0x12c6 <u8g2_font_get_word>
    14c0:	9c 01       	movw	r18, r24
    14c2:	89 81       	ldd	r24, Y+1	; 0x01
    14c4:	9a 81       	ldd	r25, Y+2	; 0x02
    14c6:	fc 01       	movw	r30, r24
    14c8:	34 8b       	std	Z+20, r19	; 0x14
    14ca:	23 8b       	std	Z+19, r18	; 0x13
    14cc:	8b 81       	ldd	r24, Y+3	; 0x03
    14ce:	9c 81       	ldd	r25, Y+4	; 0x04
    14d0:	65 e1       	ldi	r22, 0x15	; 21
    14d2:	f9 de       	rcall	.-526    	; 0x12c6 <u8g2_font_get_word>
    14d4:	9c 01       	movw	r18, r24
    14d6:	89 81       	ldd	r24, Y+1	; 0x01
    14d8:	9a 81       	ldd	r25, Y+2	; 0x02
    14da:	fc 01       	movw	r30, r24
    14dc:	36 8b       	std	Z+22, r19	; 0x16
    14de:	25 8b       	std	Z+21, r18	; 0x15
    14e0:	00 00       	nop
    14e2:	0f 90       	pop	r0
    14e4:	0f 90       	pop	r0
    14e6:	0f 90       	pop	r0
    14e8:	0f 90       	pop	r0
    14ea:	df 91       	pop	r29
    14ec:	cf 91       	pop	r28
    14ee:	08 95       	ret

000014f0 <u8g2_font_decode_get_unsigned_bits>:
    14f0:	cf 93       	push	r28
    14f2:	df 93       	push	r29
    14f4:	cd b7       	in	r28, 0x3d	; 61
    14f6:	de b7       	in	r29, 0x3e	; 62
    14f8:	2d 97       	sbiw	r28, 0x0d	; 13
    14fa:	0f b6       	in	r0, 0x3f	; 63
    14fc:	f8 94       	cli
    14fe:	de bf       	out	0x3e, r29	; 62
    1500:	0f be       	out	0x3f, r0	; 63
    1502:	cd bf       	out	0x3d, r28	; 61
    1504:	9c 87       	std	Y+12, r25	; 0x0c
    1506:	8b 87       	std	Y+11, r24	; 0x0b
    1508:	6d 87       	std	Y+13, r22	; 0x0d
    150a:	8b 85       	ldd	r24, Y+11	; 0x0b
    150c:	9c 85       	ldd	r25, Y+12	; 0x0c
    150e:	fc 01       	movw	r30, r24
    1510:	80 85       	ldd	r24, Z+8	; 0x08
    1512:	8b 83       	std	Y+3, r24	; 0x03
    1514:	8b 85       	ldd	r24, Y+11	; 0x0b
    1516:	9c 85       	ldd	r25, Y+12	; 0x0c
    1518:	fc 01       	movw	r30, r24
    151a:	80 81       	ld	r24, Z
    151c:	91 81       	ldd	r25, Z+1	; 0x01
    151e:	9d 83       	std	Y+5, r25	; 0x05
    1520:	8c 83       	std	Y+4, r24	; 0x04
    1522:	8c 81       	ldd	r24, Y+4	; 0x04
    1524:	9d 81       	ldd	r25, Y+5	; 0x05
    1526:	fc 01       	movw	r30, r24
    1528:	84 91       	lpm	r24, Z
    152a:	8e 83       	std	Y+6, r24	; 0x06
    152c:	8e 81       	ldd	r24, Y+6	; 0x06
    152e:	89 83       	std	Y+1, r24	; 0x01
    1530:	89 81       	ldd	r24, Y+1	; 0x01
    1532:	88 2f       	mov	r24, r24
    1534:	90 e0       	ldi	r25, 0x00	; 0
    1536:	2b 81       	ldd	r18, Y+3	; 0x03
    1538:	22 2f       	mov	r18, r18
    153a:	30 e0       	ldi	r19, 0x00	; 0
    153c:	02 c0       	rjmp	.+4      	; 0x1542 <u8g2_font_decode_get_unsigned_bits+0x52>
    153e:	95 95       	asr	r25
    1540:	87 95       	ror	r24
    1542:	2a 95       	dec	r18
    1544:	e2 f7       	brpl	.-8      	; 0x153e <u8g2_font_decode_get_unsigned_bits+0x4e>
    1546:	89 83       	std	Y+1, r24	; 0x01
    1548:	8b 81       	ldd	r24, Y+3	; 0x03
    154a:	8a 83       	std	Y+2, r24	; 0x02
    154c:	9a 81       	ldd	r25, Y+2	; 0x02
    154e:	8d 85       	ldd	r24, Y+13	; 0x0d
    1550:	89 0f       	add	r24, r25
    1552:	8a 83       	std	Y+2, r24	; 0x02
    1554:	8a 81       	ldd	r24, Y+2	; 0x02
    1556:	88 30       	cpi	r24, 0x08	; 8
    1558:	98 f1       	brcs	.+102    	; 0x15c0 <u8g2_font_decode_get_unsigned_bits+0xd0>
    155a:	88 e0       	ldi	r24, 0x08	; 8
    155c:	8f 83       	std	Y+7, r24	; 0x07
    155e:	9f 81       	ldd	r25, Y+7	; 0x07
    1560:	8b 81       	ldd	r24, Y+3	; 0x03
    1562:	f9 2f       	mov	r31, r25
    1564:	f8 1b       	sub	r31, r24
    1566:	8f 2f       	mov	r24, r31
    1568:	8f 83       	std	Y+7, r24	; 0x07
    156a:	8b 85       	ldd	r24, Y+11	; 0x0b
    156c:	9c 85       	ldd	r25, Y+12	; 0x0c
    156e:	fc 01       	movw	r30, r24
    1570:	80 81       	ld	r24, Z
    1572:	91 81       	ldd	r25, Z+1	; 0x01
    1574:	9c 01       	movw	r18, r24
    1576:	2f 5f       	subi	r18, 0xFF	; 255
    1578:	3f 4f       	sbci	r19, 0xFF	; 255
    157a:	8b 85       	ldd	r24, Y+11	; 0x0b
    157c:	9c 85       	ldd	r25, Y+12	; 0x0c
    157e:	fc 01       	movw	r30, r24
    1580:	31 83       	std	Z+1, r19	; 0x01
    1582:	20 83       	st	Z, r18
    1584:	8b 85       	ldd	r24, Y+11	; 0x0b
    1586:	9c 85       	ldd	r25, Y+12	; 0x0c
    1588:	fc 01       	movw	r30, r24
    158a:	80 81       	ld	r24, Z
    158c:	91 81       	ldd	r25, Z+1	; 0x01
    158e:	99 87       	std	Y+9, r25	; 0x09
    1590:	88 87       	std	Y+8, r24	; 0x08
    1592:	88 85       	ldd	r24, Y+8	; 0x08
    1594:	99 85       	ldd	r25, Y+9	; 0x09
    1596:	fc 01       	movw	r30, r24
    1598:	84 91       	lpm	r24, Z
    159a:	8a 87       	std	Y+10, r24	; 0x0a
    159c:	8a 85       	ldd	r24, Y+10	; 0x0a
    159e:	88 2f       	mov	r24, r24
    15a0:	90 e0       	ldi	r25, 0x00	; 0
    15a2:	2f 81       	ldd	r18, Y+7	; 0x07
    15a4:	22 2f       	mov	r18, r18
    15a6:	30 e0       	ldi	r19, 0x00	; 0
    15a8:	02 c0       	rjmp	.+4      	; 0x15ae <u8g2_font_decode_get_unsigned_bits+0xbe>
    15aa:	88 0f       	add	r24, r24
    15ac:	99 1f       	adc	r25, r25
    15ae:	2a 95       	dec	r18
    15b0:	e2 f7       	brpl	.-8      	; 0x15aa <u8g2_font_decode_get_unsigned_bits+0xba>
    15b2:	98 2f       	mov	r25, r24
    15b4:	89 81       	ldd	r24, Y+1	; 0x01
    15b6:	89 2b       	or	r24, r25
    15b8:	89 83       	std	Y+1, r24	; 0x01
    15ba:	8a 81       	ldd	r24, Y+2	; 0x02
    15bc:	88 50       	subi	r24, 0x08	; 8
    15be:	8a 83       	std	Y+2, r24	; 0x02
    15c0:	8d 85       	ldd	r24, Y+13	; 0x0d
    15c2:	28 2f       	mov	r18, r24
    15c4:	30 e0       	ldi	r19, 0x00	; 0
    15c6:	81 e0       	ldi	r24, 0x01	; 1
    15c8:	90 e0       	ldi	r25, 0x00	; 0
    15ca:	02 c0       	rjmp	.+4      	; 0x15d0 <u8g2_font_decode_get_unsigned_bits+0xe0>
    15cc:	88 0f       	add	r24, r24
    15ce:	99 1f       	adc	r25, r25
    15d0:	2a 95       	dec	r18
    15d2:	e2 f7       	brpl	.-8      	; 0x15cc <u8g2_font_decode_get_unsigned_bits+0xdc>
    15d4:	81 50       	subi	r24, 0x01	; 1
    15d6:	99 81       	ldd	r25, Y+1	; 0x01
    15d8:	89 23       	and	r24, r25
    15da:	89 83       	std	Y+1, r24	; 0x01
    15dc:	8b 85       	ldd	r24, Y+11	; 0x0b
    15de:	9c 85       	ldd	r25, Y+12	; 0x0c
    15e0:	2a 81       	ldd	r18, Y+2	; 0x02
    15e2:	fc 01       	movw	r30, r24
    15e4:	20 87       	std	Z+8, r18	; 0x08
    15e6:	89 81       	ldd	r24, Y+1	; 0x01
    15e8:	2d 96       	adiw	r28, 0x0d	; 13
    15ea:	0f b6       	in	r0, 0x3f	; 63
    15ec:	f8 94       	cli
    15ee:	de bf       	out	0x3e, r29	; 62
    15f0:	0f be       	out	0x3f, r0	; 63
    15f2:	cd bf       	out	0x3d, r28	; 61
    15f4:	df 91       	pop	r29
    15f6:	cf 91       	pop	r28
    15f8:	08 95       	ret

000015fa <u8g2_font_decode_get_signed_bits>:
    15fa:	cf 93       	push	r28
    15fc:	df 93       	push	r29
    15fe:	00 d0       	rcall	.+0      	; 0x1600 <u8g2_font_decode_get_signed_bits+0x6>
    1600:	00 d0       	rcall	.+0      	; 0x1602 <u8g2_font_decode_get_signed_bits+0x8>
    1602:	1f 92       	push	r1
    1604:	cd b7       	in	r28, 0x3d	; 61
    1606:	de b7       	in	r29, 0x3e	; 62
    1608:	9c 83       	std	Y+4, r25	; 0x04
    160a:	8b 83       	std	Y+3, r24	; 0x03
    160c:	6d 83       	std	Y+5, r22	; 0x05
    160e:	8b 81       	ldd	r24, Y+3	; 0x03
    1610:	9c 81       	ldd	r25, Y+4	; 0x04
    1612:	6d 81       	ldd	r22, Y+5	; 0x05
    1614:	6d df       	rcall	.-294    	; 0x14f0 <u8g2_font_decode_get_unsigned_bits>
    1616:	89 83       	std	Y+1, r24	; 0x01
    1618:	81 e0       	ldi	r24, 0x01	; 1
    161a:	8a 83       	std	Y+2, r24	; 0x02
    161c:	8d 81       	ldd	r24, Y+5	; 0x05
    161e:	81 50       	subi	r24, 0x01	; 1
    1620:	8d 83       	std	Y+5, r24	; 0x05
    1622:	8a 81       	ldd	r24, Y+2	; 0x02
    1624:	08 2e       	mov	r0, r24
    1626:	00 0c       	add	r0, r0
    1628:	99 0b       	sbc	r25, r25
    162a:	2d 81       	ldd	r18, Y+5	; 0x05
    162c:	22 2f       	mov	r18, r18
    162e:	30 e0       	ldi	r19, 0x00	; 0
    1630:	02 c0       	rjmp	.+4      	; 0x1636 <u8g2_font_decode_get_signed_bits+0x3c>
    1632:	88 0f       	add	r24, r24
    1634:	99 1f       	adc	r25, r25
    1636:	2a 95       	dec	r18
    1638:	e2 f7       	brpl	.-8      	; 0x1632 <u8g2_font_decode_get_signed_bits+0x38>
    163a:	8a 83       	std	Y+2, r24	; 0x02
    163c:	99 81       	ldd	r25, Y+1	; 0x01
    163e:	8a 81       	ldd	r24, Y+2	; 0x02
    1640:	29 2f       	mov	r18, r25
    1642:	28 1b       	sub	r18, r24
    1644:	82 2f       	mov	r24, r18
    1646:	89 83       	std	Y+1, r24	; 0x01
    1648:	89 81       	ldd	r24, Y+1	; 0x01
    164a:	0f 90       	pop	r0
    164c:	0f 90       	pop	r0
    164e:	0f 90       	pop	r0
    1650:	0f 90       	pop	r0
    1652:	0f 90       	pop	r0
    1654:	df 91       	pop	r29
    1656:	cf 91       	pop	r28
    1658:	08 95       	ret

0000165a <u8g2_add_vector_y>:
    165a:	cf 93       	push	r28
    165c:	df 93       	push	r29
    165e:	00 d0       	rcall	.+0      	; 0x1660 <u8g2_add_vector_y+0x6>
    1660:	00 d0       	rcall	.+0      	; 0x1662 <u8g2_add_vector_y+0x8>
    1662:	cd b7       	in	r28, 0x3d	; 61
    1664:	de b7       	in	r29, 0x3e	; 62
    1666:	89 83       	std	Y+1, r24	; 0x01
    1668:	6a 83       	std	Y+2, r22	; 0x02
    166a:	4b 83       	std	Y+3, r20	; 0x03
    166c:	2c 83       	std	Y+4, r18	; 0x04
    166e:	8c 81       	ldd	r24, Y+4	; 0x04
    1670:	88 2f       	mov	r24, r24
    1672:	90 e0       	ldi	r25, 0x00	; 0
    1674:	81 30       	cpi	r24, 0x01	; 1
    1676:	91 05       	cpc	r25, r1
    1678:	51 f0       	breq	.+20     	; 0x168e <u8g2_add_vector_y+0x34>
    167a:	82 30       	cpi	r24, 0x02	; 2
    167c:	91 05       	cpc	r25, r1
    167e:	61 f0       	breq	.+24     	; 0x1698 <u8g2_add_vector_y+0x3e>
    1680:	89 2b       	or	r24, r25
    1682:	89 f4       	brne	.+34     	; 0x16a6 <u8g2_add_vector_y+0x4c>
    1684:	8b 81       	ldd	r24, Y+3	; 0x03
    1686:	99 81       	ldd	r25, Y+1	; 0x01
    1688:	89 0f       	add	r24, r25
    168a:	89 83       	std	Y+1, r24	; 0x01
    168c:	13 c0       	rjmp	.+38     	; 0x16b4 <u8g2_add_vector_y+0x5a>
    168e:	8a 81       	ldd	r24, Y+2	; 0x02
    1690:	99 81       	ldd	r25, Y+1	; 0x01
    1692:	89 0f       	add	r24, r25
    1694:	89 83       	std	Y+1, r24	; 0x01
    1696:	0e c0       	rjmp	.+28     	; 0x16b4 <u8g2_add_vector_y+0x5a>
    1698:	8b 81       	ldd	r24, Y+3	; 0x03
    169a:	99 81       	ldd	r25, Y+1	; 0x01
    169c:	29 2f       	mov	r18, r25
    169e:	28 1b       	sub	r18, r24
    16a0:	82 2f       	mov	r24, r18
    16a2:	89 83       	std	Y+1, r24	; 0x01
    16a4:	07 c0       	rjmp	.+14     	; 0x16b4 <u8g2_add_vector_y+0x5a>
    16a6:	8a 81       	ldd	r24, Y+2	; 0x02
    16a8:	99 81       	ldd	r25, Y+1	; 0x01
    16aa:	29 2f       	mov	r18, r25
    16ac:	28 1b       	sub	r18, r24
    16ae:	82 2f       	mov	r24, r18
    16b0:	89 83       	std	Y+1, r24	; 0x01
    16b2:	00 00       	nop
    16b4:	89 81       	ldd	r24, Y+1	; 0x01
    16b6:	0f 90       	pop	r0
    16b8:	0f 90       	pop	r0
    16ba:	0f 90       	pop	r0
    16bc:	0f 90       	pop	r0
    16be:	df 91       	pop	r29
    16c0:	cf 91       	pop	r28
    16c2:	08 95       	ret

000016c4 <u8g2_add_vector_x>:
    16c4:	cf 93       	push	r28
    16c6:	df 93       	push	r29
    16c8:	00 d0       	rcall	.+0      	; 0x16ca <u8g2_add_vector_x+0x6>
    16ca:	00 d0       	rcall	.+0      	; 0x16cc <u8g2_add_vector_x+0x8>
    16cc:	cd b7       	in	r28, 0x3d	; 61
    16ce:	de b7       	in	r29, 0x3e	; 62
    16d0:	89 83       	std	Y+1, r24	; 0x01
    16d2:	6a 83       	std	Y+2, r22	; 0x02
    16d4:	4b 83       	std	Y+3, r20	; 0x03
    16d6:	2c 83       	std	Y+4, r18	; 0x04
    16d8:	8c 81       	ldd	r24, Y+4	; 0x04
    16da:	88 2f       	mov	r24, r24
    16dc:	90 e0       	ldi	r25, 0x00	; 0
    16de:	81 30       	cpi	r24, 0x01	; 1
    16e0:	91 05       	cpc	r25, r1
    16e2:	51 f0       	breq	.+20     	; 0x16f8 <u8g2_add_vector_x+0x34>
    16e4:	82 30       	cpi	r24, 0x02	; 2
    16e6:	91 05       	cpc	r25, r1
    16e8:	71 f0       	breq	.+28     	; 0x1706 <u8g2_add_vector_x+0x42>
    16ea:	89 2b       	or	r24, r25
    16ec:	99 f4       	brne	.+38     	; 0x1714 <u8g2_add_vector_x+0x50>
    16ee:	8a 81       	ldd	r24, Y+2	; 0x02
    16f0:	99 81       	ldd	r25, Y+1	; 0x01
    16f2:	89 0f       	add	r24, r25
    16f4:	89 83       	std	Y+1, r24	; 0x01
    16f6:	13 c0       	rjmp	.+38     	; 0x171e <u8g2_add_vector_x+0x5a>
    16f8:	8b 81       	ldd	r24, Y+3	; 0x03
    16fa:	99 81       	ldd	r25, Y+1	; 0x01
    16fc:	29 2f       	mov	r18, r25
    16fe:	28 1b       	sub	r18, r24
    1700:	82 2f       	mov	r24, r18
    1702:	89 83       	std	Y+1, r24	; 0x01
    1704:	0c c0       	rjmp	.+24     	; 0x171e <u8g2_add_vector_x+0x5a>
    1706:	8a 81       	ldd	r24, Y+2	; 0x02
    1708:	99 81       	ldd	r25, Y+1	; 0x01
    170a:	29 2f       	mov	r18, r25
    170c:	28 1b       	sub	r18, r24
    170e:	82 2f       	mov	r24, r18
    1710:	89 83       	std	Y+1, r24	; 0x01
    1712:	05 c0       	rjmp	.+10     	; 0x171e <u8g2_add_vector_x+0x5a>
    1714:	8b 81       	ldd	r24, Y+3	; 0x03
    1716:	99 81       	ldd	r25, Y+1	; 0x01
    1718:	89 0f       	add	r24, r25
    171a:	89 83       	std	Y+1, r24	; 0x01
    171c:	00 00       	nop
    171e:	89 81       	ldd	r24, Y+1	; 0x01
    1720:	0f 90       	pop	r0
    1722:	0f 90       	pop	r0
    1724:	0f 90       	pop	r0
    1726:	0f 90       	pop	r0
    1728:	df 91       	pop	r29
    172a:	cf 91       	pop	r28
    172c:	08 95       	ret

0000172e <u8g2_font_decode_len>:
    172e:	0f 93       	push	r16
    1730:	cf 93       	push	r28
    1732:	df 93       	push	r29
    1734:	cd b7       	in	r28, 0x3d	; 61
    1736:	de b7       	in	r29, 0x3e	; 62
    1738:	2d 97       	sbiw	r28, 0x0d	; 13
    173a:	0f b6       	in	r0, 0x3f	; 63
    173c:	f8 94       	cli
    173e:	de bf       	out	0x3e, r29	; 62
    1740:	0f be       	out	0x3f, r0	; 63
    1742:	cd bf       	out	0x3d, r28	; 61
    1744:	9b 87       	std	Y+11, r25	; 0x0b
    1746:	8a 87       	std	Y+10, r24	; 0x0a
    1748:	6c 87       	std	Y+12, r22	; 0x0c
    174a:	4d 87       	std	Y+13, r20	; 0x0d
    174c:	8a 85       	ldd	r24, Y+10	; 0x0a
    174e:	9b 85       	ldd	r25, Y+11	; 0x0b
    1750:	ca 96       	adiw	r24, 0x3a	; 58
    1752:	9e 83       	std	Y+6, r25	; 0x06
    1754:	8d 83       	std	Y+5, r24	; 0x05
    1756:	8c 85       	ldd	r24, Y+12	; 0x0c
    1758:	89 83       	std	Y+1, r24	; 0x01
    175a:	8d 81       	ldd	r24, Y+5	; 0x05
    175c:	9e 81       	ldd	r25, Y+6	; 0x06
    175e:	fc 01       	movw	r30, r24
    1760:	84 81       	ldd	r24, Z+4	; 0x04
    1762:	8b 83       	std	Y+3, r24	; 0x03
    1764:	8d 81       	ldd	r24, Y+5	; 0x05
    1766:	9e 81       	ldd	r25, Y+6	; 0x06
    1768:	fc 01       	movw	r30, r24
    176a:	85 81       	ldd	r24, Z+5	; 0x05
    176c:	8c 83       	std	Y+4, r24	; 0x04
    176e:	8d 81       	ldd	r24, Y+5	; 0x05
    1770:	9e 81       	ldd	r25, Y+6	; 0x06
    1772:	fc 01       	movw	r30, r24
    1774:	86 81       	ldd	r24, Z+6	; 0x06
    1776:	8f 83       	std	Y+7, r24	; 0x07
    1778:	9f 81       	ldd	r25, Y+7	; 0x07
    177a:	8b 81       	ldd	r24, Y+3	; 0x03
    177c:	f9 2f       	mov	r31, r25
    177e:	f8 1b       	sub	r31, r24
    1780:	8f 2f       	mov	r24, r31
    1782:	8f 83       	std	Y+7, r24	; 0x07
    1784:	8f 81       	ldd	r24, Y+7	; 0x07
    1786:	8a 83       	std	Y+2, r24	; 0x02
    1788:	99 81       	ldd	r25, Y+1	; 0x01
    178a:	8f 81       	ldd	r24, Y+7	; 0x07
    178c:	98 17       	cp	r25, r24
    178e:	10 f4       	brcc	.+4      	; 0x1794 <u8g2_font_decode_len+0x66>
    1790:	89 81       	ldd	r24, Y+1	; 0x01
    1792:	8a 83       	std	Y+2, r24	; 0x02
    1794:	8d 81       	ldd	r24, Y+5	; 0x05
    1796:	9e 81       	ldd	r25, Y+6	; 0x06
    1798:	fc 01       	movw	r30, r24
    179a:	82 81       	ldd	r24, Z+2	; 0x02
    179c:	88 87       	std	Y+8, r24	; 0x08
    179e:	8d 81       	ldd	r24, Y+5	; 0x05
    17a0:	9e 81       	ldd	r25, Y+6	; 0x06
    17a2:	fc 01       	movw	r30, r24
    17a4:	83 81       	ldd	r24, Z+3	; 0x03
    17a6:	89 87       	std	Y+9, r24	; 0x09
    17a8:	8d 81       	ldd	r24, Y+5	; 0x05
    17aa:	9e 81       	ldd	r25, Y+6	; 0x06
    17ac:	fc 01       	movw	r30, r24
    17ae:	24 85       	ldd	r18, Z+12	; 0x0c
    17b0:	9c 81       	ldd	r25, Y+4	; 0x04
    17b2:	8b 81       	ldd	r24, Y+3	; 0x03
    17b4:	49 2f       	mov	r20, r25
    17b6:	68 2f       	mov	r22, r24
    17b8:	88 85       	ldd	r24, Y+8	; 0x08
    17ba:	84 df       	rcall	.-248    	; 0x16c4 <u8g2_add_vector_x>
    17bc:	88 87       	std	Y+8, r24	; 0x08
    17be:	8d 81       	ldd	r24, Y+5	; 0x05
    17c0:	9e 81       	ldd	r25, Y+6	; 0x06
    17c2:	fc 01       	movw	r30, r24
    17c4:	24 85       	ldd	r18, Z+12	; 0x0c
    17c6:	9c 81       	ldd	r25, Y+4	; 0x04
    17c8:	8b 81       	ldd	r24, Y+3	; 0x03
    17ca:	49 2f       	mov	r20, r25
    17cc:	68 2f       	mov	r22, r24
    17ce:	89 85       	ldd	r24, Y+9	; 0x09
    17d0:	44 df       	rcall	.-376    	; 0x165a <u8g2_add_vector_y>
    17d2:	89 87       	std	Y+9, r24	; 0x09
    17d4:	8d 85       	ldd	r24, Y+13	; 0x0d
    17d6:	88 23       	and	r24, r24
    17d8:	b1 f0       	breq	.+44     	; 0x1806 <u8g2_font_decode_len+0xd8>
    17da:	8d 81       	ldd	r24, Y+5	; 0x05
    17dc:	9e 81       	ldd	r25, Y+6	; 0x06
    17de:	fc 01       	movw	r30, r24
    17e0:	22 85       	ldd	r18, Z+10	; 0x0a
    17e2:	8a 85       	ldd	r24, Y+10	; 0x0a
    17e4:	9b 85       	ldd	r25, Y+11	; 0x0b
    17e6:	8c 59       	subi	r24, 0x9C	; 156
    17e8:	9f 4f       	sbci	r25, 0xFF	; 255
    17ea:	fc 01       	movw	r30, r24
    17ec:	20 83       	st	Z, r18
    17ee:	8d 81       	ldd	r24, Y+5	; 0x05
    17f0:	9e 81       	ldd	r25, Y+6	; 0x06
    17f2:	fc 01       	movw	r30, r24
    17f4:	24 85       	ldd	r18, Z+12	; 0x0c
    17f6:	8a 85       	ldd	r24, Y+10	; 0x0a
    17f8:	9b 85       	ldd	r25, Y+11	; 0x0b
    17fa:	02 2f       	mov	r16, r18
    17fc:	2a 81       	ldd	r18, Y+2	; 0x02
    17fe:	49 85       	ldd	r20, Y+9	; 0x09
    1800:	68 85       	ldd	r22, Y+8	; 0x08
    1802:	02 d7       	rcall	.+3588   	; 0x2608 <u8g2_DrawHVLine>
    1804:	1b c0       	rjmp	.+54     	; 0x183c <u8g2_font_decode_len+0x10e>
    1806:	8d 81       	ldd	r24, Y+5	; 0x05
    1808:	9e 81       	ldd	r25, Y+6	; 0x06
    180a:	fc 01       	movw	r30, r24
    180c:	81 85       	ldd	r24, Z+9	; 0x09
    180e:	88 23       	and	r24, r24
    1810:	a9 f4       	brne	.+42     	; 0x183c <u8g2_font_decode_len+0x10e>
    1812:	8d 81       	ldd	r24, Y+5	; 0x05
    1814:	9e 81       	ldd	r25, Y+6	; 0x06
    1816:	fc 01       	movw	r30, r24
    1818:	23 85       	ldd	r18, Z+11	; 0x0b
    181a:	8a 85       	ldd	r24, Y+10	; 0x0a
    181c:	9b 85       	ldd	r25, Y+11	; 0x0b
    181e:	8c 59       	subi	r24, 0x9C	; 156
    1820:	9f 4f       	sbci	r25, 0xFF	; 255
    1822:	fc 01       	movw	r30, r24
    1824:	20 83       	st	Z, r18
    1826:	8d 81       	ldd	r24, Y+5	; 0x05
    1828:	9e 81       	ldd	r25, Y+6	; 0x06
    182a:	fc 01       	movw	r30, r24
    182c:	24 85       	ldd	r18, Z+12	; 0x0c
    182e:	8a 85       	ldd	r24, Y+10	; 0x0a
    1830:	9b 85       	ldd	r25, Y+11	; 0x0b
    1832:	02 2f       	mov	r16, r18
    1834:	2a 81       	ldd	r18, Y+2	; 0x02
    1836:	49 85       	ldd	r20, Y+9	; 0x09
    1838:	68 85       	ldd	r22, Y+8	; 0x08
    183a:	e6 d6       	rcall	.+3532   	; 0x2608 <u8g2_DrawHVLine>
    183c:	99 81       	ldd	r25, Y+1	; 0x01
    183e:	8f 81       	ldd	r24, Y+7	; 0x07
    1840:	98 17       	cp	r25, r24
    1842:	58 f0       	brcs	.+22     	; 0x185a <u8g2_font_decode_len+0x12c>
    1844:	99 81       	ldd	r25, Y+1	; 0x01
    1846:	8f 81       	ldd	r24, Y+7	; 0x07
    1848:	f9 2f       	mov	r31, r25
    184a:	f8 1b       	sub	r31, r24
    184c:	8f 2f       	mov	r24, r31
    184e:	89 83       	std	Y+1, r24	; 0x01
    1850:	1b 82       	std	Y+3, r1	; 0x03
    1852:	8c 81       	ldd	r24, Y+4	; 0x04
    1854:	8f 5f       	subi	r24, 0xFF	; 255
    1856:	8c 83       	std	Y+4, r24	; 0x04
    1858:	8a cf       	rjmp	.-236    	; 0x176e <u8g2_font_decode_len+0x40>
    185a:	00 00       	nop
    185c:	9b 81       	ldd	r25, Y+3	; 0x03
    185e:	89 81       	ldd	r24, Y+1	; 0x01
    1860:	89 0f       	add	r24, r25
    1862:	8b 83       	std	Y+3, r24	; 0x03
    1864:	2b 81       	ldd	r18, Y+3	; 0x03
    1866:	8d 81       	ldd	r24, Y+5	; 0x05
    1868:	9e 81       	ldd	r25, Y+6	; 0x06
    186a:	fc 01       	movw	r30, r24
    186c:	24 83       	std	Z+4, r18	; 0x04
    186e:	2c 81       	ldd	r18, Y+4	; 0x04
    1870:	8d 81       	ldd	r24, Y+5	; 0x05
    1872:	9e 81       	ldd	r25, Y+6	; 0x06
    1874:	fc 01       	movw	r30, r24
    1876:	25 83       	std	Z+5, r18	; 0x05
    1878:	00 00       	nop
    187a:	2d 96       	adiw	r28, 0x0d	; 13
    187c:	0f b6       	in	r0, 0x3f	; 63
    187e:	f8 94       	cli
    1880:	de bf       	out	0x3e, r29	; 62
    1882:	0f be       	out	0x3f, r0	; 63
    1884:	cd bf       	out	0x3d, r28	; 61
    1886:	df 91       	pop	r29
    1888:	cf 91       	pop	r28
    188a:	0f 91       	pop	r16
    188c:	08 95       	ret

0000188e <u8g2_font_setup_decode>:
    188e:	cf 93       	push	r28
    1890:	df 93       	push	r29
    1892:	00 d0       	rcall	.+0      	; 0x1894 <u8g2_font_setup_decode+0x6>
    1894:	00 d0       	rcall	.+0      	; 0x1896 <u8g2_font_setup_decode+0x8>
    1896:	00 d0       	rcall	.+0      	; 0x1898 <u8g2_font_setup_decode+0xa>
    1898:	cd b7       	in	r28, 0x3d	; 61
    189a:	de b7       	in	r29, 0x3e	; 62
    189c:	9c 83       	std	Y+4, r25	; 0x04
    189e:	8b 83       	std	Y+3, r24	; 0x03
    18a0:	7e 83       	std	Y+6, r23	; 0x06
    18a2:	6d 83       	std	Y+5, r22	; 0x05
    18a4:	8b 81       	ldd	r24, Y+3	; 0x03
    18a6:	9c 81       	ldd	r25, Y+4	; 0x04
    18a8:	ca 96       	adiw	r24, 0x3a	; 58
    18aa:	9a 83       	std	Y+2, r25	; 0x02
    18ac:	89 83       	std	Y+1, r24	; 0x01
    18ae:	89 81       	ldd	r24, Y+1	; 0x01
    18b0:	9a 81       	ldd	r25, Y+2	; 0x02
    18b2:	2d 81       	ldd	r18, Y+5	; 0x05
    18b4:	3e 81       	ldd	r19, Y+6	; 0x06
    18b6:	fc 01       	movw	r30, r24
    18b8:	31 83       	std	Z+1, r19	; 0x01
    18ba:	20 83       	st	Z, r18
    18bc:	89 81       	ldd	r24, Y+1	; 0x01
    18be:	9a 81       	ldd	r25, Y+2	; 0x02
    18c0:	fc 01       	movw	r30, r24
    18c2:	10 86       	std	Z+8, r1	; 0x08
    18c4:	8b 81       	ldd	r24, Y+3	; 0x03
    18c6:	9c 81       	ldd	r25, Y+4	; 0x04
    18c8:	85 5b       	subi	r24, 0xB5	; 181
    18ca:	9f 4f       	sbci	r25, 0xFF	; 255
    18cc:	fc 01       	movw	r30, r24
    18ce:	20 81       	ld	r18, Z
    18d0:	89 81       	ldd	r24, Y+1	; 0x01
    18d2:	9a 81       	ldd	r25, Y+2	; 0x02
    18d4:	62 2f       	mov	r22, r18
    18d6:	0c de       	rcall	.-1000   	; 0x14f0 <u8g2_font_decode_get_unsigned_bits>
    18d8:	28 2f       	mov	r18, r24
    18da:	89 81       	ldd	r24, Y+1	; 0x01
    18dc:	9a 81       	ldd	r25, Y+2	; 0x02
    18de:	fc 01       	movw	r30, r24
    18e0:	26 83       	std	Z+6, r18	; 0x06
    18e2:	8b 81       	ldd	r24, Y+3	; 0x03
    18e4:	9c 81       	ldd	r25, Y+4	; 0x04
    18e6:	84 5b       	subi	r24, 0xB4	; 180
    18e8:	9f 4f       	sbci	r25, 0xFF	; 255
    18ea:	fc 01       	movw	r30, r24
    18ec:	20 81       	ld	r18, Z
    18ee:	89 81       	ldd	r24, Y+1	; 0x01
    18f0:	9a 81       	ldd	r25, Y+2	; 0x02
    18f2:	62 2f       	mov	r22, r18
    18f4:	fd dd       	rcall	.-1030   	; 0x14f0 <u8g2_font_decode_get_unsigned_bits>
    18f6:	28 2f       	mov	r18, r24
    18f8:	89 81       	ldd	r24, Y+1	; 0x01
    18fa:	9a 81       	ldd	r25, Y+2	; 0x02
    18fc:	fc 01       	movw	r30, r24
    18fe:	27 83       	std	Z+7, r18	; 0x07
    1900:	8b 81       	ldd	r24, Y+3	; 0x03
    1902:	9c 81       	ldd	r25, Y+4	; 0x04
    1904:	8c 59       	subi	r24, 0x9C	; 156
    1906:	9f 4f       	sbci	r25, 0xFF	; 255
    1908:	fc 01       	movw	r30, r24
    190a:	20 81       	ld	r18, Z
    190c:	89 81       	ldd	r24, Y+1	; 0x01
    190e:	9a 81       	ldd	r25, Y+2	; 0x02
    1910:	fc 01       	movw	r30, r24
    1912:	22 87       	std	Z+10, r18	; 0x0a
    1914:	89 81       	ldd	r24, Y+1	; 0x01
    1916:	9a 81       	ldd	r25, Y+2	; 0x02
    1918:	fc 01       	movw	r30, r24
    191a:	92 85       	ldd	r25, Z+10	; 0x0a
    191c:	81 e0       	ldi	r24, 0x01	; 1
    191e:	99 23       	and	r25, r25
    1920:	09 f0       	breq	.+2      	; 0x1924 <u8g2_font_setup_decode+0x96>
    1922:	80 e0       	ldi	r24, 0x00	; 0
    1924:	28 2f       	mov	r18, r24
    1926:	89 81       	ldd	r24, Y+1	; 0x01
    1928:	9a 81       	ldd	r25, Y+2	; 0x02
    192a:	fc 01       	movw	r30, r24
    192c:	23 87       	std	Z+11, r18	; 0x0b
    192e:	00 00       	nop
    1930:	26 96       	adiw	r28, 0x06	; 6
    1932:	0f b6       	in	r0, 0x3f	; 63
    1934:	f8 94       	cli
    1936:	de bf       	out	0x3e, r29	; 62
    1938:	0f be       	out	0x3f, r0	; 63
    193a:	cd bf       	out	0x3d, r28	; 61
    193c:	df 91       	pop	r29
    193e:	cf 91       	pop	r28
    1940:	08 95       	ret

00001942 <u8g2_font_decode_glyph>:
    1942:	0f 93       	push	r16
    1944:	cf 93       	push	r28
    1946:	df 93       	push	r29
    1948:	cd b7       	in	r28, 0x3d	; 61
    194a:	de b7       	in	r29, 0x3e	; 62
    194c:	60 97       	sbiw	r28, 0x10	; 16
    194e:	0f b6       	in	r0, 0x3f	; 63
    1950:	f8 94       	cli
    1952:	de bf       	out	0x3e, r29	; 62
    1954:	0f be       	out	0x3f, r0	; 63
    1956:	cd bf       	out	0x3d, r28	; 61
    1958:	9e 87       	std	Y+14, r25	; 0x0e
    195a:	8d 87       	std	Y+13, r24	; 0x0d
    195c:	78 8b       	std	Y+16, r23	; 0x10
    195e:	6f 87       	std	Y+15, r22	; 0x0f
    1960:	8d 85       	ldd	r24, Y+13	; 0x0d
    1962:	9e 85       	ldd	r25, Y+14	; 0x0e
    1964:	ca 96       	adiw	r24, 0x3a	; 58
    1966:	9e 83       	std	Y+6, r25	; 0x06
    1968:	8d 83       	std	Y+5, r24	; 0x05
    196a:	2f 85       	ldd	r18, Y+15	; 0x0f
    196c:	38 89       	ldd	r19, Y+16	; 0x10
    196e:	8d 85       	ldd	r24, Y+13	; 0x0d
    1970:	9e 85       	ldd	r25, Y+14	; 0x0e
    1972:	b9 01       	movw	r22, r18
    1974:	8c df       	rcall	.-232    	; 0x188e <u8g2_font_setup_decode>
    1976:	8d 85       	ldd	r24, Y+13	; 0x0d
    1978:	9e 85       	ldd	r25, Y+14	; 0x0e
    197a:	8f 5b       	subi	r24, 0xBF	; 191
    197c:	9f 4f       	sbci	r25, 0xFF	; 255
    197e:	fc 01       	movw	r30, r24
    1980:	80 81       	ld	r24, Z
    1982:	8f 83       	std	Y+7, r24	; 0x07
    1984:	8d 85       	ldd	r24, Y+13	; 0x0d
    1986:	9e 85       	ldd	r25, Y+14	; 0x0e
    1988:	83 5b       	subi	r24, 0xB3	; 179
    198a:	9f 4f       	sbci	r25, 0xFF	; 255
    198c:	fc 01       	movw	r30, r24
    198e:	20 81       	ld	r18, Z
    1990:	8d 81       	ldd	r24, Y+5	; 0x05
    1992:	9e 81       	ldd	r25, Y+6	; 0x06
    1994:	62 2f       	mov	r22, r18
    1996:	31 de       	rcall	.-926    	; 0x15fa <u8g2_font_decode_get_signed_bits>
    1998:	88 87       	std	Y+8, r24	; 0x08
    199a:	8d 85       	ldd	r24, Y+13	; 0x0d
    199c:	9e 85       	ldd	r25, Y+14	; 0x0e
    199e:	82 5b       	subi	r24, 0xB2	; 178
    19a0:	9f 4f       	sbci	r25, 0xFF	; 255
    19a2:	fc 01       	movw	r30, r24
    19a4:	20 81       	ld	r18, Z
    19a6:	8d 81       	ldd	r24, Y+5	; 0x05
    19a8:	9e 81       	ldd	r25, Y+6	; 0x06
    19aa:	62 2f       	mov	r22, r18
    19ac:	26 de       	rcall	.-948    	; 0x15fa <u8g2_font_decode_get_signed_bits>
    19ae:	89 87       	std	Y+9, r24	; 0x09
    19b0:	8d 85       	ldd	r24, Y+13	; 0x0d
    19b2:	9e 85       	ldd	r25, Y+14	; 0x0e
    19b4:	81 5b       	subi	r24, 0xB1	; 177
    19b6:	9f 4f       	sbci	r25, 0xFF	; 255
    19b8:	fc 01       	movw	r30, r24
    19ba:	20 81       	ld	r18, Z
    19bc:	8d 81       	ldd	r24, Y+5	; 0x05
    19be:	9e 81       	ldd	r25, Y+6	; 0x06
    19c0:	62 2f       	mov	r22, r18
    19c2:	1b de       	rcall	.-970    	; 0x15fa <u8g2_font_decode_get_signed_bits>
    19c4:	8a 87       	std	Y+10, r24	; 0x0a
    19c6:	8d 81       	ldd	r24, Y+5	; 0x05
    19c8:	9e 81       	ldd	r25, Y+6	; 0x06
    19ca:	fc 01       	movw	r30, r24
    19cc:	86 81       	ldd	r24, Z+6	; 0x06
    19ce:	18 16       	cp	r1, r24
    19d0:	0c f0       	brlt	.+2      	; 0x19d4 <u8g2_font_decode_glyph+0x92>
    19d2:	ea c0       	rjmp	.+468    	; 0x1ba8 <u8g2_font_decode_glyph+0x266>
    19d4:	8d 81       	ldd	r24, Y+5	; 0x05
    19d6:	9e 81       	ldd	r25, Y+6	; 0x06
    19d8:	fc 01       	movw	r30, r24
    19da:	24 85       	ldd	r18, Z+12	; 0x0c
    19dc:	9f 81       	ldd	r25, Y+7	; 0x07
    19de:	89 85       	ldd	r24, Y+9	; 0x09
    19e0:	89 0f       	add	r24, r25
    19e2:	81 95       	neg	r24
    19e4:	38 2f       	mov	r19, r24
    19e6:	8d 81       	ldd	r24, Y+5	; 0x05
    19e8:	9e 81       	ldd	r25, Y+6	; 0x06
    19ea:	fc 01       	movw	r30, r24
    19ec:	82 81       	ldd	r24, Z+2	; 0x02
    19ee:	43 2f       	mov	r20, r19
    19f0:	68 85       	ldd	r22, Y+8	; 0x08
    19f2:	68 de       	rcall	.-816    	; 0x16c4 <u8g2_add_vector_x>
    19f4:	28 2f       	mov	r18, r24
    19f6:	8d 81       	ldd	r24, Y+5	; 0x05
    19f8:	9e 81       	ldd	r25, Y+6	; 0x06
    19fa:	fc 01       	movw	r30, r24
    19fc:	22 83       	std	Z+2, r18	; 0x02
    19fe:	8d 81       	ldd	r24, Y+5	; 0x05
    1a00:	9e 81       	ldd	r25, Y+6	; 0x06
    1a02:	fc 01       	movw	r30, r24
    1a04:	24 85       	ldd	r18, Z+12	; 0x0c
    1a06:	9f 81       	ldd	r25, Y+7	; 0x07
    1a08:	89 85       	ldd	r24, Y+9	; 0x09
    1a0a:	89 0f       	add	r24, r25
    1a0c:	81 95       	neg	r24
    1a0e:	38 2f       	mov	r19, r24
    1a10:	8d 81       	ldd	r24, Y+5	; 0x05
    1a12:	9e 81       	ldd	r25, Y+6	; 0x06
    1a14:	fc 01       	movw	r30, r24
    1a16:	83 81       	ldd	r24, Z+3	; 0x03
    1a18:	43 2f       	mov	r20, r19
    1a1a:	68 85       	ldd	r22, Y+8	; 0x08
    1a1c:	1e de       	rcall	.-964    	; 0x165a <u8g2_add_vector_y>
    1a1e:	28 2f       	mov	r18, r24
    1a20:	8d 81       	ldd	r24, Y+5	; 0x05
    1a22:	9e 81       	ldd	r25, Y+6	; 0x06
    1a24:	fc 01       	movw	r30, r24
    1a26:	23 83       	std	Z+3, r18	; 0x03
    1a28:	8d 81       	ldd	r24, Y+5	; 0x05
    1a2a:	9e 81       	ldd	r25, Y+6	; 0x06
    1a2c:	fc 01       	movw	r30, r24
    1a2e:	82 81       	ldd	r24, Z+2	; 0x02
    1a30:	89 83       	std	Y+1, r24	; 0x01
    1a32:	8d 81       	ldd	r24, Y+5	; 0x05
    1a34:	9e 81       	ldd	r25, Y+6	; 0x06
    1a36:	fc 01       	movw	r30, r24
    1a38:	83 81       	ldd	r24, Z+3	; 0x03
    1a3a:	8b 83       	std	Y+3, r24	; 0x03
    1a3c:	89 81       	ldd	r24, Y+1	; 0x01
    1a3e:	8a 83       	std	Y+2, r24	; 0x02
    1a40:	8b 81       	ldd	r24, Y+3	; 0x03
    1a42:	8c 83       	std	Y+4, r24	; 0x04
    1a44:	8d 81       	ldd	r24, Y+5	; 0x05
    1a46:	9e 81       	ldd	r25, Y+6	; 0x06
    1a48:	fc 01       	movw	r30, r24
    1a4a:	84 85       	ldd	r24, Z+12	; 0x0c
    1a4c:	88 2f       	mov	r24, r24
    1a4e:	90 e0       	ldi	r25, 0x00	; 0
    1a50:	81 30       	cpi	r24, 0x01	; 1
    1a52:	91 05       	cpc	r25, r1
    1a54:	d1 f0       	breq	.+52     	; 0x1a8a <u8g2_font_decode_glyph+0x148>
    1a56:	82 30       	cpi	r24, 0x02	; 2
    1a58:	91 05       	cpc	r25, r1
    1a5a:	1c f4       	brge	.+6      	; 0x1a62 <u8g2_font_decode_glyph+0x120>
    1a5c:	89 2b       	or	r24, r25
    1a5e:	41 f0       	breq	.+16     	; 0x1a70 <u8g2_font_decode_glyph+0x12e>
    1a60:	57 c0       	rjmp	.+174    	; 0x1b10 <u8g2_font_decode_glyph+0x1ce>
    1a62:	82 30       	cpi	r24, 0x02	; 2
    1a64:	91 05       	cpc	r25, r1
    1a66:	31 f1       	breq	.+76     	; 0x1ab4 <u8g2_font_decode_glyph+0x172>
    1a68:	03 97       	sbiw	r24, 0x03	; 3
    1a6a:	09 f4       	brne	.+2      	; 0x1a6e <u8g2_font_decode_glyph+0x12c>
    1a6c:	3e c0       	rjmp	.+124    	; 0x1aea <u8g2_font_decode_glyph+0x1a8>
    1a6e:	50 c0       	rjmp	.+160    	; 0x1b10 <u8g2_font_decode_glyph+0x1ce>
    1a70:	8d 81       	ldd	r24, Y+5	; 0x05
    1a72:	9e 81       	ldd	r25, Y+6	; 0x06
    1a74:	fc 01       	movw	r30, r24
    1a76:	86 81       	ldd	r24, Z+6	; 0x06
    1a78:	98 2f       	mov	r25, r24
    1a7a:	8a 81       	ldd	r24, Y+2	; 0x02
    1a7c:	89 0f       	add	r24, r25
    1a7e:	8a 83       	std	Y+2, r24	; 0x02
    1a80:	8f 81       	ldd	r24, Y+7	; 0x07
    1a82:	9c 81       	ldd	r25, Y+4	; 0x04
    1a84:	89 0f       	add	r24, r25
    1a86:	8c 83       	std	Y+4, r24	; 0x04
    1a88:	43 c0       	rjmp	.+134    	; 0x1b10 <u8g2_font_decode_glyph+0x1ce>
    1a8a:	8f 81       	ldd	r24, Y+7	; 0x07
    1a8c:	99 81       	ldd	r25, Y+1	; 0x01
    1a8e:	f9 2f       	mov	r31, r25
    1a90:	f8 1b       	sub	r31, r24
    1a92:	8f 2f       	mov	r24, r31
    1a94:	89 83       	std	Y+1, r24	; 0x01
    1a96:	89 81       	ldd	r24, Y+1	; 0x01
    1a98:	8f 5f       	subi	r24, 0xFF	; 255
    1a9a:	89 83       	std	Y+1, r24	; 0x01
    1a9c:	8a 81       	ldd	r24, Y+2	; 0x02
    1a9e:	8f 5f       	subi	r24, 0xFF	; 255
    1aa0:	8a 83       	std	Y+2, r24	; 0x02
    1aa2:	8d 81       	ldd	r24, Y+5	; 0x05
    1aa4:	9e 81       	ldd	r25, Y+6	; 0x06
    1aa6:	fc 01       	movw	r30, r24
    1aa8:	86 81       	ldd	r24, Z+6	; 0x06
    1aaa:	98 2f       	mov	r25, r24
    1aac:	8c 81       	ldd	r24, Y+4	; 0x04
    1aae:	89 0f       	add	r24, r25
    1ab0:	8c 83       	std	Y+4, r24	; 0x04
    1ab2:	2e c0       	rjmp	.+92     	; 0x1b10 <u8g2_font_decode_glyph+0x1ce>
    1ab4:	8d 81       	ldd	r24, Y+5	; 0x05
    1ab6:	9e 81       	ldd	r25, Y+6	; 0x06
    1ab8:	fc 01       	movw	r30, r24
    1aba:	86 81       	ldd	r24, Z+6	; 0x06
    1abc:	98 2f       	mov	r25, r24
    1abe:	89 81       	ldd	r24, Y+1	; 0x01
    1ac0:	89 1b       	sub	r24, r25
    1ac2:	89 83       	std	Y+1, r24	; 0x01
    1ac4:	89 81       	ldd	r24, Y+1	; 0x01
    1ac6:	8f 5f       	subi	r24, 0xFF	; 255
    1ac8:	89 83       	std	Y+1, r24	; 0x01
    1aca:	8a 81       	ldd	r24, Y+2	; 0x02
    1acc:	8f 5f       	subi	r24, 0xFF	; 255
    1ace:	8a 83       	std	Y+2, r24	; 0x02
    1ad0:	8f 81       	ldd	r24, Y+7	; 0x07
    1ad2:	9b 81       	ldd	r25, Y+3	; 0x03
    1ad4:	f9 2f       	mov	r31, r25
    1ad6:	f8 1b       	sub	r31, r24
    1ad8:	8f 2f       	mov	r24, r31
    1ada:	8b 83       	std	Y+3, r24	; 0x03
    1adc:	8b 81       	ldd	r24, Y+3	; 0x03
    1ade:	8f 5f       	subi	r24, 0xFF	; 255
    1ae0:	8b 83       	std	Y+3, r24	; 0x03
    1ae2:	8c 81       	ldd	r24, Y+4	; 0x04
    1ae4:	8f 5f       	subi	r24, 0xFF	; 255
    1ae6:	8c 83       	std	Y+4, r24	; 0x04
    1ae8:	13 c0       	rjmp	.+38     	; 0x1b10 <u8g2_font_decode_glyph+0x1ce>
    1aea:	8f 81       	ldd	r24, Y+7	; 0x07
    1aec:	9a 81       	ldd	r25, Y+2	; 0x02
    1aee:	89 0f       	add	r24, r25
    1af0:	8a 83       	std	Y+2, r24	; 0x02
    1af2:	8d 81       	ldd	r24, Y+5	; 0x05
    1af4:	9e 81       	ldd	r25, Y+6	; 0x06
    1af6:	fc 01       	movw	r30, r24
    1af8:	86 81       	ldd	r24, Z+6	; 0x06
    1afa:	98 2f       	mov	r25, r24
    1afc:	8b 81       	ldd	r24, Y+3	; 0x03
    1afe:	89 1b       	sub	r24, r25
    1b00:	8b 83       	std	Y+3, r24	; 0x03
    1b02:	8b 81       	ldd	r24, Y+3	; 0x03
    1b04:	8f 5f       	subi	r24, 0xFF	; 255
    1b06:	8b 83       	std	Y+3, r24	; 0x03
    1b08:	8c 81       	ldd	r24, Y+4	; 0x04
    1b0a:	8f 5f       	subi	r24, 0xFF	; 255
    1b0c:	8c 83       	std	Y+4, r24	; 0x04
    1b0e:	00 00       	nop
    1b10:	8d 85       	ldd	r24, Y+13	; 0x0d
    1b12:	9e 85       	ldd	r25, Y+14	; 0x0e
    1b14:	0c 81       	ldd	r16, Y+4	; 0x04
    1b16:	2a 81       	ldd	r18, Y+2	; 0x02
    1b18:	4b 81       	ldd	r20, Y+3	; 0x03
    1b1a:	69 81       	ldd	r22, Y+1	; 0x01
    1b1c:	8e d6       	rcall	.+3356   	; 0x283a <u8g2_IsIntersection>
    1b1e:	88 23       	and	r24, r24
    1b20:	11 f4       	brne	.+4      	; 0x1b26 <u8g2_font_decode_glyph+0x1e4>
    1b22:	8a 85       	ldd	r24, Y+10	; 0x0a
    1b24:	42 c0       	rjmp	.+132    	; 0x1baa <u8g2_font_decode_glyph+0x268>
    1b26:	8d 81       	ldd	r24, Y+5	; 0x05
    1b28:	9e 81       	ldd	r25, Y+6	; 0x06
    1b2a:	fc 01       	movw	r30, r24
    1b2c:	14 82       	std	Z+4, r1	; 0x04
    1b2e:	8d 81       	ldd	r24, Y+5	; 0x05
    1b30:	9e 81       	ldd	r25, Y+6	; 0x06
    1b32:	fc 01       	movw	r30, r24
    1b34:	15 82       	std	Z+5, r1	; 0x05
    1b36:	8d 85       	ldd	r24, Y+13	; 0x0d
    1b38:	9e 85       	ldd	r25, Y+14	; 0x0e
    1b3a:	87 5b       	subi	r24, 0xB7	; 183
    1b3c:	9f 4f       	sbci	r25, 0xFF	; 255
    1b3e:	fc 01       	movw	r30, r24
    1b40:	20 81       	ld	r18, Z
    1b42:	8d 81       	ldd	r24, Y+5	; 0x05
    1b44:	9e 81       	ldd	r25, Y+6	; 0x06
    1b46:	62 2f       	mov	r22, r18
    1b48:	d3 dc       	rcall	.-1626   	; 0x14f0 <u8g2_font_decode_get_unsigned_bits>
    1b4a:	8b 87       	std	Y+11, r24	; 0x0b
    1b4c:	8d 85       	ldd	r24, Y+13	; 0x0d
    1b4e:	9e 85       	ldd	r25, Y+14	; 0x0e
    1b50:	86 5b       	subi	r24, 0xB6	; 182
    1b52:	9f 4f       	sbci	r25, 0xFF	; 255
    1b54:	fc 01       	movw	r30, r24
    1b56:	20 81       	ld	r18, Z
    1b58:	8d 81       	ldd	r24, Y+5	; 0x05
    1b5a:	9e 81       	ldd	r25, Y+6	; 0x06
    1b5c:	62 2f       	mov	r22, r18
    1b5e:	c8 dc       	rcall	.-1648   	; 0x14f0 <u8g2_font_decode_get_unsigned_bits>
    1b60:	8c 87       	std	Y+12, r24	; 0x0c
    1b62:	8d 85       	ldd	r24, Y+13	; 0x0d
    1b64:	9e 85       	ldd	r25, Y+14	; 0x0e
    1b66:	40 e0       	ldi	r20, 0x00	; 0
    1b68:	6b 85       	ldd	r22, Y+11	; 0x0b
    1b6a:	e1 dd       	rcall	.-1086   	; 0x172e <u8g2_font_decode_len>
    1b6c:	8d 85       	ldd	r24, Y+13	; 0x0d
    1b6e:	9e 85       	ldd	r25, Y+14	; 0x0e
    1b70:	41 e0       	ldi	r20, 0x01	; 1
    1b72:	6c 85       	ldd	r22, Y+12	; 0x0c
    1b74:	dc dd       	rcall	.-1096   	; 0x172e <u8g2_font_decode_len>
    1b76:	8d 81       	ldd	r24, Y+5	; 0x05
    1b78:	9e 81       	ldd	r25, Y+6	; 0x06
    1b7a:	61 e0       	ldi	r22, 0x01	; 1
    1b7c:	b9 dc       	rcall	.-1678   	; 0x14f0 <u8g2_font_decode_get_unsigned_bits>
    1b7e:	88 23       	and	r24, r24
    1b80:	81 f7       	brne	.-32     	; 0x1b62 <u8g2_font_decode_glyph+0x220>
    1b82:	8d 81       	ldd	r24, Y+5	; 0x05
    1b84:	9e 81       	ldd	r25, Y+6	; 0x06
    1b86:	fc 01       	movw	r30, r24
    1b88:	95 81       	ldd	r25, Z+5	; 0x05
    1b8a:	8f 81       	ldd	r24, Y+7	; 0x07
    1b8c:	98 17       	cp	r25, r24
    1b8e:	0c f4       	brge	.+2      	; 0x1b92 <u8g2_font_decode_glyph+0x250>
    1b90:	d2 cf       	rjmp	.-92     	; 0x1b36 <u8g2_font_decode_glyph+0x1f4>
    1b92:	00 00       	nop
    1b94:	8d 81       	ldd	r24, Y+5	; 0x05
    1b96:	9e 81       	ldd	r25, Y+6	; 0x06
    1b98:	fc 01       	movw	r30, r24
    1b9a:	22 85       	ldd	r18, Z+10	; 0x0a
    1b9c:	8d 85       	ldd	r24, Y+13	; 0x0d
    1b9e:	9e 85       	ldd	r25, Y+14	; 0x0e
    1ba0:	8c 59       	subi	r24, 0x9C	; 156
    1ba2:	9f 4f       	sbci	r25, 0xFF	; 255
    1ba4:	fc 01       	movw	r30, r24
    1ba6:	20 83       	st	Z, r18
    1ba8:	8a 85       	ldd	r24, Y+10	; 0x0a
    1baa:	60 96       	adiw	r28, 0x10	; 16
    1bac:	0f b6       	in	r0, 0x3f	; 63
    1bae:	f8 94       	cli
    1bb0:	de bf       	out	0x3e, r29	; 62
    1bb2:	0f be       	out	0x3f, r0	; 63
    1bb4:	cd bf       	out	0x3d, r28	; 61
    1bb6:	df 91       	pop	r29
    1bb8:	cf 91       	pop	r28
    1bba:	0f 91       	pop	r16
    1bbc:	08 95       	ret

00001bbe <u8g2_font_get_glyph_data>:
    1bbe:	cf 93       	push	r28
    1bc0:	df 93       	push	r29
    1bc2:	cd b7       	in	r28, 0x3d	; 61
    1bc4:	de b7       	in	r29, 0x3e	; 62
    1bc6:	6c 97       	sbiw	r28, 0x1c	; 28
    1bc8:	0f b6       	in	r0, 0x3f	; 63
    1bca:	f8 94       	cli
    1bcc:	de bf       	out	0x3e, r29	; 62
    1bce:	0f be       	out	0x3f, r0	; 63
    1bd0:	cd bf       	out	0x3d, r28	; 61
    1bd2:	9a 8f       	std	Y+26, r25	; 0x1a
    1bd4:	89 8f       	std	Y+25, r24	; 0x19
    1bd6:	7c 8f       	std	Y+28, r23	; 0x1c
    1bd8:	6b 8f       	std	Y+27, r22	; 0x1b
    1bda:	89 8d       	ldd	r24, Y+25	; 0x19
    1bdc:	9a 8d       	ldd	r25, Y+26	; 0x1a
    1bde:	fc 01       	movw	r30, r24
    1be0:	86 a9       	ldd	r24, Z+54	; 0x36
    1be2:	97 a9       	ldd	r25, Z+55	; 0x37
    1be4:	9a 83       	std	Y+2, r25	; 0x02
    1be6:	89 83       	std	Y+1, r24	; 0x01
    1be8:	89 81       	ldd	r24, Y+1	; 0x01
    1bea:	9a 81       	ldd	r25, Y+2	; 0x02
    1bec:	47 96       	adiw	r24, 0x17	; 23
    1bee:	9a 83       	std	Y+2, r25	; 0x02
    1bf0:	89 83       	std	Y+1, r24	; 0x01
    1bf2:	8b 8d       	ldd	r24, Y+27	; 0x1b
    1bf4:	9c 8d       	ldd	r25, Y+28	; 0x1c
    1bf6:	8f 3f       	cpi	r24, 0xFF	; 255
    1bf8:	91 05       	cpc	r25, r1
    1bfa:	11 f0       	breq	.+4      	; 0x1c00 <u8g2_font_get_glyph_data+0x42>
    1bfc:	08 f0       	brcs	.+2      	; 0x1c00 <u8g2_font_get_glyph_data+0x42>
    1bfe:	5c c0       	rjmp	.+184    	; 0x1cb8 <u8g2_font_get_glyph_data+0xfa>
    1c00:	8b 8d       	ldd	r24, Y+27	; 0x1b
    1c02:	9c 8d       	ldd	r25, Y+28	; 0x1c
    1c04:	81 36       	cpi	r24, 0x61	; 97
    1c06:	91 05       	cpc	r25, r1
    1c08:	70 f0       	brcs	.+28     	; 0x1c26 <u8g2_font_get_glyph_data+0x68>
    1c0a:	89 8d       	ldd	r24, Y+25	; 0x19
    1c0c:	9a 8d       	ldd	r25, Y+26	; 0x1a
    1c0e:	86 5a       	subi	r24, 0xA6	; 166
    1c10:	9f 4f       	sbci	r25, 0xFF	; 255
    1c12:	fc 01       	movw	r30, r24
    1c14:	80 81       	ld	r24, Z
    1c16:	91 81       	ldd	r25, Z+1	; 0x01
    1c18:	29 81       	ldd	r18, Y+1	; 0x01
    1c1a:	3a 81       	ldd	r19, Y+2	; 0x02
    1c1c:	82 0f       	add	r24, r18
    1c1e:	93 1f       	adc	r25, r19
    1c20:	9a 83       	std	Y+2, r25	; 0x02
    1c22:	89 83       	std	Y+1, r24	; 0x01
    1c24:	12 c0       	rjmp	.+36     	; 0x1c4a <u8g2_font_get_glyph_data+0x8c>
    1c26:	8b 8d       	ldd	r24, Y+27	; 0x1b
    1c28:	9c 8d       	ldd	r25, Y+28	; 0x1c
    1c2a:	81 34       	cpi	r24, 0x41	; 65
    1c2c:	91 05       	cpc	r25, r1
    1c2e:	68 f0       	brcs	.+26     	; 0x1c4a <u8g2_font_get_glyph_data+0x8c>
    1c30:	89 8d       	ldd	r24, Y+25	; 0x19
    1c32:	9a 8d       	ldd	r25, Y+26	; 0x1a
    1c34:	88 5a       	subi	r24, 0xA8	; 168
    1c36:	9f 4f       	sbci	r25, 0xFF	; 255
    1c38:	fc 01       	movw	r30, r24
    1c3a:	80 81       	ld	r24, Z
    1c3c:	91 81       	ldd	r25, Z+1	; 0x01
    1c3e:	29 81       	ldd	r18, Y+1	; 0x01
    1c40:	3a 81       	ldd	r19, Y+2	; 0x02
    1c42:	82 0f       	add	r24, r18
    1c44:	93 1f       	adc	r25, r19
    1c46:	9a 83       	std	Y+2, r25	; 0x02
    1c48:	89 83       	std	Y+1, r24	; 0x01
    1c4a:	89 81       	ldd	r24, Y+1	; 0x01
    1c4c:	9a 81       	ldd	r25, Y+2	; 0x02
    1c4e:	01 96       	adiw	r24, 0x01	; 1
    1c50:	9e 83       	std	Y+6, r25	; 0x06
    1c52:	8d 83       	std	Y+5, r24	; 0x05
    1c54:	8d 81       	ldd	r24, Y+5	; 0x05
    1c56:	9e 81       	ldd	r25, Y+6	; 0x06
    1c58:	fc 01       	movw	r30, r24
    1c5a:	84 91       	lpm	r24, Z
    1c5c:	8f 83       	std	Y+7, r24	; 0x07
    1c5e:	8f 81       	ldd	r24, Y+7	; 0x07
    1c60:	88 23       	and	r24, r24
    1c62:	09 f4       	brne	.+2      	; 0x1c66 <u8g2_font_get_glyph_data+0xa8>
    1c64:	a1 c0       	rjmp	.+322    	; 0x1da8 <u8g2_font_get_glyph_data+0x1ea>
    1c66:	89 81       	ldd	r24, Y+1	; 0x01
    1c68:	9a 81       	ldd	r25, Y+2	; 0x02
    1c6a:	99 87       	std	Y+9, r25	; 0x09
    1c6c:	88 87       	std	Y+8, r24	; 0x08
    1c6e:	88 85       	ldd	r24, Y+8	; 0x08
    1c70:	99 85       	ldd	r25, Y+9	; 0x09
    1c72:	fc 01       	movw	r30, r24
    1c74:	84 91       	lpm	r24, Z
    1c76:	8a 87       	std	Y+10, r24	; 0x0a
    1c78:	8a 85       	ldd	r24, Y+10	; 0x0a
    1c7a:	28 2f       	mov	r18, r24
    1c7c:	30 e0       	ldi	r19, 0x00	; 0
    1c7e:	8b 8d       	ldd	r24, Y+27	; 0x1b
    1c80:	9c 8d       	ldd	r25, Y+28	; 0x1c
    1c82:	28 17       	cp	r18, r24
    1c84:	39 07       	cpc	r19, r25
    1c86:	21 f4       	brne	.+8      	; 0x1c90 <u8g2_font_get_glyph_data+0xd2>
    1c88:	89 81       	ldd	r24, Y+1	; 0x01
    1c8a:	9a 81       	ldd	r25, Y+2	; 0x02
    1c8c:	02 96       	adiw	r24, 0x02	; 2
    1c8e:	91 c0       	rjmp	.+290    	; 0x1db2 <u8g2_font_get_glyph_data+0x1f4>
    1c90:	89 81       	ldd	r24, Y+1	; 0x01
    1c92:	9a 81       	ldd	r25, Y+2	; 0x02
    1c94:	01 96       	adiw	r24, 0x01	; 1
    1c96:	9c 87       	std	Y+12, r25	; 0x0c
    1c98:	8b 87       	std	Y+11, r24	; 0x0b
    1c9a:	8b 85       	ldd	r24, Y+11	; 0x0b
    1c9c:	9c 85       	ldd	r25, Y+12	; 0x0c
    1c9e:	fc 01       	movw	r30, r24
    1ca0:	84 91       	lpm	r24, Z
    1ca2:	8d 87       	std	Y+13, r24	; 0x0d
    1ca4:	8d 85       	ldd	r24, Y+13	; 0x0d
    1ca6:	88 2f       	mov	r24, r24
    1ca8:	90 e0       	ldi	r25, 0x00	; 0
    1caa:	29 81       	ldd	r18, Y+1	; 0x01
    1cac:	3a 81       	ldd	r19, Y+2	; 0x02
    1cae:	82 0f       	add	r24, r18
    1cb0:	93 1f       	adc	r25, r19
    1cb2:	9a 83       	std	Y+2, r25	; 0x02
    1cb4:	89 83       	std	Y+1, r24	; 0x01
    1cb6:	c9 cf       	rjmp	.-110    	; 0x1c4a <u8g2_font_get_glyph_data+0x8c>
    1cb8:	89 8d       	ldd	r24, Y+25	; 0x19
    1cba:	9a 8d       	ldd	r25, Y+26	; 0x1a
    1cbc:	84 5a       	subi	r24, 0xA4	; 164
    1cbe:	9f 4f       	sbci	r25, 0xFF	; 255
    1cc0:	fc 01       	movw	r30, r24
    1cc2:	80 81       	ld	r24, Z
    1cc4:	91 81       	ldd	r25, Z+1	; 0x01
    1cc6:	29 81       	ldd	r18, Y+1	; 0x01
    1cc8:	3a 81       	ldd	r19, Y+2	; 0x02
    1cca:	82 0f       	add	r24, r18
    1ccc:	93 1f       	adc	r25, r19
    1cce:	9a 83       	std	Y+2, r25	; 0x02
    1cd0:	89 83       	std	Y+1, r24	; 0x01
    1cd2:	89 81       	ldd	r24, Y+1	; 0x01
    1cd4:	9a 81       	ldd	r25, Y+2	; 0x02
    1cd6:	9c 83       	std	Y+4, r25	; 0x04
    1cd8:	8b 83       	std	Y+3, r24	; 0x03
    1cda:	8b 81       	ldd	r24, Y+3	; 0x03
    1cdc:	9c 81       	ldd	r25, Y+4	; 0x04
    1cde:	60 e0       	ldi	r22, 0x00	; 0
    1ce0:	f2 da       	rcall	.-2588   	; 0x12c6 <u8g2_font_get_word>
    1ce2:	9c 01       	movw	r18, r24
    1ce4:	89 81       	ldd	r24, Y+1	; 0x01
    1ce6:	9a 81       	ldd	r25, Y+2	; 0x02
    1ce8:	82 0f       	add	r24, r18
    1cea:	93 1f       	adc	r25, r19
    1cec:	9a 83       	std	Y+2, r25	; 0x02
    1cee:	89 83       	std	Y+1, r24	; 0x01
    1cf0:	8b 81       	ldd	r24, Y+3	; 0x03
    1cf2:	9c 81       	ldd	r25, Y+4	; 0x04
    1cf4:	62 e0       	ldi	r22, 0x02	; 2
    1cf6:	e7 da       	rcall	.-2610   	; 0x12c6 <u8g2_font_get_word>
    1cf8:	9f 87       	std	Y+15, r25	; 0x0f
    1cfa:	8e 87       	std	Y+14, r24	; 0x0e
    1cfc:	8b 81       	ldd	r24, Y+3	; 0x03
    1cfe:	9c 81       	ldd	r25, Y+4	; 0x04
    1d00:	04 96       	adiw	r24, 0x04	; 4
    1d02:	9c 83       	std	Y+4, r25	; 0x04
    1d04:	8b 83       	std	Y+3, r24	; 0x03
    1d06:	2e 85       	ldd	r18, Y+14	; 0x0e
    1d08:	3f 85       	ldd	r19, Y+15	; 0x0f
    1d0a:	8b 8d       	ldd	r24, Y+27	; 0x1b
    1d0c:	9c 8d       	ldd	r25, Y+28	; 0x1c
    1d0e:	28 17       	cp	r18, r24
    1d10:	39 07       	cpc	r19, r25
    1d12:	18 f3       	brcs	.-58     	; 0x1cda <u8g2_font_get_glyph_data+0x11c>
    1d14:	89 81       	ldd	r24, Y+1	; 0x01
    1d16:	9a 81       	ldd	r25, Y+2	; 0x02
    1d18:	99 8b       	std	Y+17, r25	; 0x11
    1d1a:	88 8b       	std	Y+16, r24	; 0x10
    1d1c:	88 89       	ldd	r24, Y+16	; 0x10
    1d1e:	99 89       	ldd	r25, Y+17	; 0x11
    1d20:	fc 01       	movw	r30, r24
    1d22:	84 91       	lpm	r24, Z
    1d24:	8a 8b       	std	Y+18, r24	; 0x12
    1d26:	8a 89       	ldd	r24, Y+18	; 0x12
    1d28:	88 2f       	mov	r24, r24
    1d2a:	90 e0       	ldi	r25, 0x00	; 0
    1d2c:	9f 87       	std	Y+15, r25	; 0x0f
    1d2e:	8e 87       	std	Y+14, r24	; 0x0e
    1d30:	8e 85       	ldd	r24, Y+14	; 0x0e
    1d32:	9f 85       	ldd	r25, Y+15	; 0x0f
    1d34:	98 2f       	mov	r25, r24
    1d36:	88 27       	eor	r24, r24
    1d38:	9f 87       	std	Y+15, r25	; 0x0f
    1d3a:	8e 87       	std	Y+14, r24	; 0x0e
    1d3c:	89 81       	ldd	r24, Y+1	; 0x01
    1d3e:	9a 81       	ldd	r25, Y+2	; 0x02
    1d40:	01 96       	adiw	r24, 0x01	; 1
    1d42:	9c 8b       	std	Y+20, r25	; 0x14
    1d44:	8b 8b       	std	Y+19, r24	; 0x13
    1d46:	8b 89       	ldd	r24, Y+19	; 0x13
    1d48:	9c 89       	ldd	r25, Y+20	; 0x14
    1d4a:	fc 01       	movw	r30, r24
    1d4c:	84 91       	lpm	r24, Z
    1d4e:	8d 8b       	std	Y+21, r24	; 0x15
    1d50:	8d 89       	ldd	r24, Y+21	; 0x15
    1d52:	88 2f       	mov	r24, r24
    1d54:	90 e0       	ldi	r25, 0x00	; 0
    1d56:	2e 85       	ldd	r18, Y+14	; 0x0e
    1d58:	3f 85       	ldd	r19, Y+15	; 0x0f
    1d5a:	82 2b       	or	r24, r18
    1d5c:	93 2b       	or	r25, r19
    1d5e:	9f 87       	std	Y+15, r25	; 0x0f
    1d60:	8e 87       	std	Y+14, r24	; 0x0e
    1d62:	8e 85       	ldd	r24, Y+14	; 0x0e
    1d64:	9f 85       	ldd	r25, Y+15	; 0x0f
    1d66:	89 2b       	or	r24, r25
    1d68:	09 f1       	breq	.+66     	; 0x1dac <u8g2_font_get_glyph_data+0x1ee>
    1d6a:	2e 85       	ldd	r18, Y+14	; 0x0e
    1d6c:	3f 85       	ldd	r19, Y+15	; 0x0f
    1d6e:	8b 8d       	ldd	r24, Y+27	; 0x1b
    1d70:	9c 8d       	ldd	r25, Y+28	; 0x1c
    1d72:	28 17       	cp	r18, r24
    1d74:	39 07       	cpc	r19, r25
    1d76:	21 f4       	brne	.+8      	; 0x1d80 <u8g2_font_get_glyph_data+0x1c2>
    1d78:	89 81       	ldd	r24, Y+1	; 0x01
    1d7a:	9a 81       	ldd	r25, Y+2	; 0x02
    1d7c:	03 96       	adiw	r24, 0x03	; 3
    1d7e:	19 c0       	rjmp	.+50     	; 0x1db2 <u8g2_font_get_glyph_data+0x1f4>
    1d80:	89 81       	ldd	r24, Y+1	; 0x01
    1d82:	9a 81       	ldd	r25, Y+2	; 0x02
    1d84:	02 96       	adiw	r24, 0x02	; 2
    1d86:	9f 8b       	std	Y+23, r25	; 0x17
    1d88:	8e 8b       	std	Y+22, r24	; 0x16
    1d8a:	8e 89       	ldd	r24, Y+22	; 0x16
    1d8c:	9f 89       	ldd	r25, Y+23	; 0x17
    1d8e:	fc 01       	movw	r30, r24
    1d90:	84 91       	lpm	r24, Z
    1d92:	88 8f       	std	Y+24, r24	; 0x18
    1d94:	88 8d       	ldd	r24, Y+24	; 0x18
    1d96:	88 2f       	mov	r24, r24
    1d98:	90 e0       	ldi	r25, 0x00	; 0
    1d9a:	29 81       	ldd	r18, Y+1	; 0x01
    1d9c:	3a 81       	ldd	r19, Y+2	; 0x02
    1d9e:	82 0f       	add	r24, r18
    1da0:	93 1f       	adc	r25, r19
    1da2:	9a 83       	std	Y+2, r25	; 0x02
    1da4:	89 83       	std	Y+1, r24	; 0x01
    1da6:	b6 cf       	rjmp	.-148    	; 0x1d14 <u8g2_font_get_glyph_data+0x156>
    1da8:	00 00       	nop
    1daa:	01 c0       	rjmp	.+2      	; 0x1dae <u8g2_font_get_glyph_data+0x1f0>
    1dac:	00 00       	nop
    1dae:	80 e0       	ldi	r24, 0x00	; 0
    1db0:	90 e0       	ldi	r25, 0x00	; 0
    1db2:	6c 96       	adiw	r28, 0x1c	; 28
    1db4:	0f b6       	in	r0, 0x3f	; 63
    1db6:	f8 94       	cli
    1db8:	de bf       	out	0x3e, r29	; 62
    1dba:	0f be       	out	0x3f, r0	; 63
    1dbc:	cd bf       	out	0x3d, r28	; 61
    1dbe:	df 91       	pop	r29
    1dc0:	cf 91       	pop	r28
    1dc2:	08 95       	ret

00001dc4 <u8g2_font_draw_glyph>:
    1dc4:	cf 93       	push	r28
    1dc6:	df 93       	push	r29
    1dc8:	cd b7       	in	r28, 0x3d	; 61
    1dca:	de b7       	in	r29, 0x3e	; 62
    1dcc:	29 97       	sbiw	r28, 0x09	; 9
    1dce:	0f b6       	in	r0, 0x3f	; 63
    1dd0:	f8 94       	cli
    1dd2:	de bf       	out	0x3e, r29	; 62
    1dd4:	0f be       	out	0x3f, r0	; 63
    1dd6:	cd bf       	out	0x3d, r28	; 61
    1dd8:	9d 83       	std	Y+5, r25	; 0x05
    1dda:	8c 83       	std	Y+4, r24	; 0x04
    1ddc:	6e 83       	std	Y+6, r22	; 0x06
    1dde:	4f 83       	std	Y+7, r20	; 0x07
    1de0:	39 87       	std	Y+9, r19	; 0x09
    1de2:	28 87       	std	Y+8, r18	; 0x08
    1de4:	19 82       	std	Y+1, r1	; 0x01
    1de6:	8c 81       	ldd	r24, Y+4	; 0x04
    1de8:	9d 81       	ldd	r25, Y+5	; 0x05
    1dea:	2e 81       	ldd	r18, Y+6	; 0x06
    1dec:	fc 01       	movw	r30, r24
    1dee:	24 af       	std	Z+60, r18	; 0x3c
    1df0:	8c 81       	ldd	r24, Y+4	; 0x04
    1df2:	9d 81       	ldd	r25, Y+5	; 0x05
    1df4:	2f 81       	ldd	r18, Y+7	; 0x07
    1df6:	fc 01       	movw	r30, r24
    1df8:	25 af       	std	Z+61, r18	; 0x3d
    1dfa:	28 85       	ldd	r18, Y+8	; 0x08
    1dfc:	39 85       	ldd	r19, Y+9	; 0x09
    1dfe:	8c 81       	ldd	r24, Y+4	; 0x04
    1e00:	9d 81       	ldd	r25, Y+5	; 0x05
    1e02:	b9 01       	movw	r22, r18
    1e04:	dc de       	rcall	.-584    	; 0x1bbe <u8g2_font_get_glyph_data>
    1e06:	9b 83       	std	Y+3, r25	; 0x03
    1e08:	8a 83       	std	Y+2, r24	; 0x02
    1e0a:	8a 81       	ldd	r24, Y+2	; 0x02
    1e0c:	9b 81       	ldd	r25, Y+3	; 0x03
    1e0e:	89 2b       	or	r24, r25
    1e10:	39 f0       	breq	.+14     	; 0x1e20 <u8g2_font_draw_glyph+0x5c>
    1e12:	2a 81       	ldd	r18, Y+2	; 0x02
    1e14:	3b 81       	ldd	r19, Y+3	; 0x03
    1e16:	8c 81       	ldd	r24, Y+4	; 0x04
    1e18:	9d 81       	ldd	r25, Y+5	; 0x05
    1e1a:	b9 01       	movw	r22, r18
    1e1c:	92 dd       	rcall	.-1244   	; 0x1942 <u8g2_font_decode_glyph>
    1e1e:	89 83       	std	Y+1, r24	; 0x01
    1e20:	89 81       	ldd	r24, Y+1	; 0x01
    1e22:	29 96       	adiw	r28, 0x09	; 9
    1e24:	0f b6       	in	r0, 0x3f	; 63
    1e26:	f8 94       	cli
    1e28:	de bf       	out	0x3e, r29	; 62
    1e2a:	0f be       	out	0x3f, r0	; 63
    1e2c:	cd bf       	out	0x3d, r28	; 61
    1e2e:	df 91       	pop	r29
    1e30:	cf 91       	pop	r28
    1e32:	08 95       	ret

00001e34 <u8g2_GetGlyphWidth>:
    1e34:	cf 93       	push	r28
    1e36:	df 93       	push	r29
    1e38:	00 d0       	rcall	.+0      	; 0x1e3a <u8g2_GetGlyphWidth+0x6>
    1e3a:	00 d0       	rcall	.+0      	; 0x1e3c <u8g2_GetGlyphWidth+0x8>
    1e3c:	00 d0       	rcall	.+0      	; 0x1e3e <u8g2_GetGlyphWidth+0xa>
    1e3e:	cd b7       	in	r28, 0x3d	; 61
    1e40:	de b7       	in	r29, 0x3e	; 62
    1e42:	9c 83       	std	Y+4, r25	; 0x04
    1e44:	8b 83       	std	Y+3, r24	; 0x03
    1e46:	7e 83       	std	Y+6, r23	; 0x06
    1e48:	6d 83       	std	Y+5, r22	; 0x05
    1e4a:	2d 81       	ldd	r18, Y+5	; 0x05
    1e4c:	3e 81       	ldd	r19, Y+6	; 0x06
    1e4e:	8b 81       	ldd	r24, Y+3	; 0x03
    1e50:	9c 81       	ldd	r25, Y+4	; 0x04
    1e52:	b9 01       	movw	r22, r18
    1e54:	b4 de       	rcall	.-664    	; 0x1bbe <u8g2_font_get_glyph_data>
    1e56:	9a 83       	std	Y+2, r25	; 0x02
    1e58:	89 83       	std	Y+1, r24	; 0x01
    1e5a:	89 81       	ldd	r24, Y+1	; 0x01
    1e5c:	9a 81       	ldd	r25, Y+2	; 0x02
    1e5e:	89 2b       	or	r24, r25
    1e60:	11 f4       	brne	.+4      	; 0x1e66 <u8g2_GetGlyphWidth+0x32>
    1e62:	80 e0       	ldi	r24, 0x00	; 0
    1e64:	2e c0       	rjmp	.+92     	; 0x1ec2 <u8g2_GetGlyphWidth+0x8e>
    1e66:	29 81       	ldd	r18, Y+1	; 0x01
    1e68:	3a 81       	ldd	r19, Y+2	; 0x02
    1e6a:	8b 81       	ldd	r24, Y+3	; 0x03
    1e6c:	9c 81       	ldd	r25, Y+4	; 0x04
    1e6e:	b9 01       	movw	r22, r18
    1e70:	0e dd       	rcall	.-1508   	; 0x188e <u8g2_font_setup_decode>
    1e72:	8b 81       	ldd	r24, Y+3	; 0x03
    1e74:	9c 81       	ldd	r25, Y+4	; 0x04
    1e76:	83 5b       	subi	r24, 0xB3	; 179
    1e78:	9f 4f       	sbci	r25, 0xFF	; 255
    1e7a:	fc 01       	movw	r30, r24
    1e7c:	20 81       	ld	r18, Z
    1e7e:	8b 81       	ldd	r24, Y+3	; 0x03
    1e80:	9c 81       	ldd	r25, Y+4	; 0x04
    1e82:	ca 96       	adiw	r24, 0x3a	; 58
    1e84:	62 2f       	mov	r22, r18
    1e86:	b9 db       	rcall	.-2190   	; 0x15fa <u8g2_font_decode_get_signed_bits>
    1e88:	28 2f       	mov	r18, r24
    1e8a:	8b 81       	ldd	r24, Y+3	; 0x03
    1e8c:	9c 81       	ldd	r25, Y+4	; 0x04
    1e8e:	8e 59       	subi	r24, 0x9E	; 158
    1e90:	9f 4f       	sbci	r25, 0xFF	; 255
    1e92:	fc 01       	movw	r30, r24
    1e94:	20 83       	st	Z, r18
    1e96:	8b 81       	ldd	r24, Y+3	; 0x03
    1e98:	9c 81       	ldd	r25, Y+4	; 0x04
    1e9a:	82 5b       	subi	r24, 0xB2	; 178
    1e9c:	9f 4f       	sbci	r25, 0xFF	; 255
    1e9e:	fc 01       	movw	r30, r24
    1ea0:	20 81       	ld	r18, Z
    1ea2:	8b 81       	ldd	r24, Y+3	; 0x03
    1ea4:	9c 81       	ldd	r25, Y+4	; 0x04
    1ea6:	ca 96       	adiw	r24, 0x3a	; 58
    1ea8:	62 2f       	mov	r22, r18
    1eaa:	a7 db       	rcall	.-2226   	; 0x15fa <u8g2_font_decode_get_signed_bits>
    1eac:	8b 81       	ldd	r24, Y+3	; 0x03
    1eae:	9c 81       	ldd	r25, Y+4	; 0x04
    1eb0:	81 5b       	subi	r24, 0xB1	; 177
    1eb2:	9f 4f       	sbci	r25, 0xFF	; 255
    1eb4:	fc 01       	movw	r30, r24
    1eb6:	20 81       	ld	r18, Z
    1eb8:	8b 81       	ldd	r24, Y+3	; 0x03
    1eba:	9c 81       	ldd	r25, Y+4	; 0x04
    1ebc:	ca 96       	adiw	r24, 0x3a	; 58
    1ebe:	62 2f       	mov	r22, r18
    1ec0:	9c db       	rcall	.-2248   	; 0x15fa <u8g2_font_decode_get_signed_bits>
    1ec2:	26 96       	adiw	r28, 0x06	; 6
    1ec4:	0f b6       	in	r0, 0x3f	; 63
    1ec6:	f8 94       	cli
    1ec8:	de bf       	out	0x3e, r29	; 62
    1eca:	0f be       	out	0x3f, r0	; 63
    1ecc:	cd bf       	out	0x3d, r28	; 61
    1ece:	df 91       	pop	r29
    1ed0:	cf 91       	pop	r28
    1ed2:	08 95       	ret

00001ed4 <u8g2_DrawGlyph>:
    1ed4:	cf 93       	push	r28
    1ed6:	df 93       	push	r29
    1ed8:	00 d0       	rcall	.+0      	; 0x1eda <u8g2_DrawGlyph+0x6>
    1eda:	00 d0       	rcall	.+0      	; 0x1edc <u8g2_DrawGlyph+0x8>
    1edc:	00 d0       	rcall	.+0      	; 0x1ede <u8g2_DrawGlyph+0xa>
    1ede:	cd b7       	in	r28, 0x3d	; 61
    1ee0:	de b7       	in	r29, 0x3e	; 62
    1ee2:	9a 83       	std	Y+2, r25	; 0x02
    1ee4:	89 83       	std	Y+1, r24	; 0x01
    1ee6:	6b 83       	std	Y+3, r22	; 0x03
    1ee8:	4c 83       	std	Y+4, r20	; 0x04
    1eea:	3e 83       	std	Y+6, r19	; 0x06
    1eec:	2d 83       	std	Y+5, r18	; 0x05
    1eee:	89 81       	ldd	r24, Y+1	; 0x01
    1ef0:	9a 81       	ldd	r25, Y+2	; 0x02
    1ef2:	8a 5b       	subi	r24, 0xBA	; 186
    1ef4:	9f 4f       	sbci	r25, 0xFF	; 255
    1ef6:	fc 01       	movw	r30, r24
    1ef8:	80 81       	ld	r24, Z
    1efa:	88 2f       	mov	r24, r24
    1efc:	90 e0       	ldi	r25, 0x00	; 0
    1efe:	81 30       	cpi	r24, 0x01	; 1
    1f00:	91 05       	cpc	r25, r1
    1f02:	d1 f0       	breq	.+52     	; 0x1f38 <u8g2_DrawGlyph+0x64>
    1f04:	82 30       	cpi	r24, 0x02	; 2
    1f06:	91 05       	cpc	r25, r1
    1f08:	1c f4       	brge	.+6      	; 0x1f10 <u8g2_DrawGlyph+0x3c>
    1f0a:	89 2b       	or	r24, r25
    1f0c:	39 f0       	breq	.+14     	; 0x1f1c <u8g2_DrawGlyph+0x48>
    1f0e:	3e c0       	rjmp	.+124    	; 0x1f8c <u8g2_DrawGlyph+0xb8>
    1f10:	82 30       	cpi	r24, 0x02	; 2
    1f12:	91 05       	cpc	r25, r1
    1f14:	f9 f0       	breq	.+62     	; 0x1f54 <u8g2_DrawGlyph+0x80>
    1f16:	03 97       	sbiw	r24, 0x03	; 3
    1f18:	59 f1       	breq	.+86     	; 0x1f70 <u8g2_DrawGlyph+0x9c>
    1f1a:	38 c0       	rjmp	.+112    	; 0x1f8c <u8g2_DrawGlyph+0xb8>
    1f1c:	89 81       	ldd	r24, Y+1	; 0x01
    1f1e:	9a 81       	ldd	r25, Y+2	; 0x02
    1f20:	fc 01       	movw	r30, r24
    1f22:	20 ad       	ldd	r18, Z+56	; 0x38
    1f24:	31 ad       	ldd	r19, Z+57	; 0x39
    1f26:	89 81       	ldd	r24, Y+1	; 0x01
    1f28:	9a 81       	ldd	r25, Y+2	; 0x02
    1f2a:	f9 01       	movw	r30, r18
    1f2c:	09 95       	icall
    1f2e:	98 2f       	mov	r25, r24
    1f30:	8c 81       	ldd	r24, Y+4	; 0x04
    1f32:	89 0f       	add	r24, r25
    1f34:	8c 83       	std	Y+4, r24	; 0x04
    1f36:	2a c0       	rjmp	.+84     	; 0x1f8c <u8g2_DrawGlyph+0xb8>
    1f38:	89 81       	ldd	r24, Y+1	; 0x01
    1f3a:	9a 81       	ldd	r25, Y+2	; 0x02
    1f3c:	fc 01       	movw	r30, r24
    1f3e:	20 ad       	ldd	r18, Z+56	; 0x38
    1f40:	31 ad       	ldd	r19, Z+57	; 0x39
    1f42:	89 81       	ldd	r24, Y+1	; 0x01
    1f44:	9a 81       	ldd	r25, Y+2	; 0x02
    1f46:	f9 01       	movw	r30, r18
    1f48:	09 95       	icall
    1f4a:	98 2f       	mov	r25, r24
    1f4c:	8b 81       	ldd	r24, Y+3	; 0x03
    1f4e:	89 1b       	sub	r24, r25
    1f50:	8b 83       	std	Y+3, r24	; 0x03
    1f52:	1c c0       	rjmp	.+56     	; 0x1f8c <u8g2_DrawGlyph+0xb8>
    1f54:	89 81       	ldd	r24, Y+1	; 0x01
    1f56:	9a 81       	ldd	r25, Y+2	; 0x02
    1f58:	fc 01       	movw	r30, r24
    1f5a:	20 ad       	ldd	r18, Z+56	; 0x38
    1f5c:	31 ad       	ldd	r19, Z+57	; 0x39
    1f5e:	89 81       	ldd	r24, Y+1	; 0x01
    1f60:	9a 81       	ldd	r25, Y+2	; 0x02
    1f62:	f9 01       	movw	r30, r18
    1f64:	09 95       	icall
    1f66:	98 2f       	mov	r25, r24
    1f68:	8c 81       	ldd	r24, Y+4	; 0x04
    1f6a:	89 1b       	sub	r24, r25
    1f6c:	8c 83       	std	Y+4, r24	; 0x04
    1f6e:	0e c0       	rjmp	.+28     	; 0x1f8c <u8g2_DrawGlyph+0xb8>
    1f70:	89 81       	ldd	r24, Y+1	; 0x01
    1f72:	9a 81       	ldd	r25, Y+2	; 0x02
    1f74:	fc 01       	movw	r30, r24
    1f76:	20 ad       	ldd	r18, Z+56	; 0x38
    1f78:	31 ad       	ldd	r19, Z+57	; 0x39
    1f7a:	89 81       	ldd	r24, Y+1	; 0x01
    1f7c:	9a 81       	ldd	r25, Y+2	; 0x02
    1f7e:	f9 01       	movw	r30, r18
    1f80:	09 95       	icall
    1f82:	98 2f       	mov	r25, r24
    1f84:	8b 81       	ldd	r24, Y+3	; 0x03
    1f86:	89 0f       	add	r24, r25
    1f88:	8b 83       	std	Y+3, r24	; 0x03
    1f8a:	00 00       	nop
    1f8c:	2d 81       	ldd	r18, Y+5	; 0x05
    1f8e:	3e 81       	ldd	r19, Y+6	; 0x06
    1f90:	89 81       	ldd	r24, Y+1	; 0x01
    1f92:	9a 81       	ldd	r25, Y+2	; 0x02
    1f94:	4c 81       	ldd	r20, Y+4	; 0x04
    1f96:	6b 81       	ldd	r22, Y+3	; 0x03
    1f98:	15 df       	rcall	.-470    	; 0x1dc4 <u8g2_font_draw_glyph>
    1f9a:	26 96       	adiw	r28, 0x06	; 6
    1f9c:	0f b6       	in	r0, 0x3f	; 63
    1f9e:	f8 94       	cli
    1fa0:	de bf       	out	0x3e, r29	; 62
    1fa2:	0f be       	out	0x3f, r0	; 63
    1fa4:	cd bf       	out	0x3d, r28	; 61
    1fa6:	df 91       	pop	r29
    1fa8:	cf 91       	pop	r28
    1faa:	08 95       	ret

00001fac <u8g2_draw_string>:
    1fac:	cf 93       	push	r28
    1fae:	df 93       	push	r29
    1fb0:	cd b7       	in	r28, 0x3d	; 61
    1fb2:	de b7       	in	r29, 0x3e	; 62
    1fb4:	2a 97       	sbiw	r28, 0x0a	; 10
    1fb6:	0f b6       	in	r0, 0x3f	; 63
    1fb8:	f8 94       	cli
    1fba:	de bf       	out	0x3e, r29	; 62
    1fbc:	0f be       	out	0x3f, r0	; 63
    1fbe:	cd bf       	out	0x3d, r28	; 61
    1fc0:	9e 83       	std	Y+6, r25	; 0x06
    1fc2:	8d 83       	std	Y+5, r24	; 0x05
    1fc4:	6f 83       	std	Y+7, r22	; 0x07
    1fc6:	48 87       	std	Y+8, r20	; 0x08
    1fc8:	3a 87       	std	Y+10, r19	; 0x0a
    1fca:	29 87       	std	Y+9, r18	; 0x09
    1fcc:	8d 81       	ldd	r24, Y+5	; 0x05
    1fce:	9e 81       	ldd	r25, Y+6	; 0x06
    1fd0:	0e 94 1d 1a 	call	0x343a	; 0x343a <u8x8_utf8_init>
    1fd4:	19 82       	std	Y+1, r1	; 0x01
    1fd6:	8d 81       	ldd	r24, Y+5	; 0x05
    1fd8:	9e 81       	ldd	r25, Y+6	; 0x06
    1fda:	fc 01       	movw	r30, r24
    1fdc:	22 81       	ldd	r18, Z+2	; 0x02
    1fde:	33 81       	ldd	r19, Z+3	; 0x03
    1fe0:	89 85       	ldd	r24, Y+9	; 0x09
    1fe2:	9a 85       	ldd	r25, Y+10	; 0x0a
    1fe4:	fc 01       	movw	r30, r24
    1fe6:	80 81       	ld	r24, Z
    1fe8:	48 2f       	mov	r20, r24
    1fea:	8d 81       	ldd	r24, Y+5	; 0x05
    1fec:	9e 81       	ldd	r25, Y+6	; 0x06
    1fee:	64 2f       	mov	r22, r20
    1ff0:	f9 01       	movw	r30, r18
    1ff2:	09 95       	icall
    1ff4:	9b 83       	std	Y+3, r25	; 0x03
    1ff6:	8a 83       	std	Y+2, r24	; 0x02
    1ff8:	8a 81       	ldd	r24, Y+2	; 0x02
    1ffa:	9b 81       	ldd	r25, Y+3	; 0x03
    1ffc:	01 96       	adiw	r24, 0x01	; 1
    1ffe:	09 f4       	brne	.+2      	; 0x2002 <u8g2_draw_string+0x56>
    2000:	45 c0       	rjmp	.+138    	; 0x208c <u8g2_draw_string+0xe0>
    2002:	89 85       	ldd	r24, Y+9	; 0x09
    2004:	9a 85       	ldd	r25, Y+10	; 0x0a
    2006:	01 96       	adiw	r24, 0x01	; 1
    2008:	9a 87       	std	Y+10, r25	; 0x0a
    200a:	89 87       	std	Y+9, r24	; 0x09
    200c:	8a 81       	ldd	r24, Y+2	; 0x02
    200e:	9b 81       	ldd	r25, Y+3	; 0x03
    2010:	02 96       	adiw	r24, 0x02	; 2
    2012:	09 f3       	breq	.-62     	; 0x1fd6 <u8g2_draw_string+0x2a>
    2014:	2a 81       	ldd	r18, Y+2	; 0x02
    2016:	3b 81       	ldd	r19, Y+3	; 0x03
    2018:	8d 81       	ldd	r24, Y+5	; 0x05
    201a:	9e 81       	ldd	r25, Y+6	; 0x06
    201c:	48 85       	ldd	r20, Y+8	; 0x08
    201e:	6f 81       	ldd	r22, Y+7	; 0x07
    2020:	59 df       	rcall	.-334    	; 0x1ed4 <u8g2_DrawGlyph>
    2022:	8c 83       	std	Y+4, r24	; 0x04
    2024:	8d 81       	ldd	r24, Y+5	; 0x05
    2026:	9e 81       	ldd	r25, Y+6	; 0x06
    2028:	8a 5b       	subi	r24, 0xBA	; 186
    202a:	9f 4f       	sbci	r25, 0xFF	; 255
    202c:	fc 01       	movw	r30, r24
    202e:	80 81       	ld	r24, Z
    2030:	88 2f       	mov	r24, r24
    2032:	90 e0       	ldi	r25, 0x00	; 0
    2034:	81 30       	cpi	r24, 0x01	; 1
    2036:	91 05       	cpc	r25, r1
    2038:	89 f0       	breq	.+34     	; 0x205c <u8g2_draw_string+0xb0>
    203a:	82 30       	cpi	r24, 0x02	; 2
    203c:	91 05       	cpc	r25, r1
    203e:	1c f4       	brge	.+6      	; 0x2046 <u8g2_draw_string+0x9a>
    2040:	89 2b       	or	r24, r25
    2042:	39 f0       	breq	.+14     	; 0x2052 <u8g2_draw_string+0xa6>
    2044:	1e c0       	rjmp	.+60     	; 0x2082 <u8g2_draw_string+0xd6>
    2046:	82 30       	cpi	r24, 0x02	; 2
    2048:	91 05       	cpc	r25, r1
    204a:	69 f0       	breq	.+26     	; 0x2066 <u8g2_draw_string+0xba>
    204c:	03 97       	sbiw	r24, 0x03	; 3
    204e:	91 f0       	breq	.+36     	; 0x2074 <u8g2_draw_string+0xc8>
    2050:	18 c0       	rjmp	.+48     	; 0x2082 <u8g2_draw_string+0xd6>
    2052:	9f 81       	ldd	r25, Y+7	; 0x07
    2054:	8c 81       	ldd	r24, Y+4	; 0x04
    2056:	89 0f       	add	r24, r25
    2058:	8f 83       	std	Y+7, r24	; 0x07
    205a:	13 c0       	rjmp	.+38     	; 0x2082 <u8g2_draw_string+0xd6>
    205c:	98 85       	ldd	r25, Y+8	; 0x08
    205e:	8c 81       	ldd	r24, Y+4	; 0x04
    2060:	89 0f       	add	r24, r25
    2062:	88 87       	std	Y+8, r24	; 0x08
    2064:	0e c0       	rjmp	.+28     	; 0x2082 <u8g2_draw_string+0xd6>
    2066:	9f 81       	ldd	r25, Y+7	; 0x07
    2068:	8c 81       	ldd	r24, Y+4	; 0x04
    206a:	f9 2f       	mov	r31, r25
    206c:	f8 1b       	sub	r31, r24
    206e:	8f 2f       	mov	r24, r31
    2070:	8f 83       	std	Y+7, r24	; 0x07
    2072:	07 c0       	rjmp	.+14     	; 0x2082 <u8g2_draw_string+0xd6>
    2074:	98 85       	ldd	r25, Y+8	; 0x08
    2076:	8c 81       	ldd	r24, Y+4	; 0x04
    2078:	29 2f       	mov	r18, r25
    207a:	28 1b       	sub	r18, r24
    207c:	82 2f       	mov	r24, r18
    207e:	88 87       	std	Y+8, r24	; 0x08
    2080:	00 00       	nop
    2082:	99 81       	ldd	r25, Y+1	; 0x01
    2084:	8c 81       	ldd	r24, Y+4	; 0x04
    2086:	89 0f       	add	r24, r25
    2088:	89 83       	std	Y+1, r24	; 0x01
    208a:	a5 cf       	rjmp	.-182    	; 0x1fd6 <u8g2_draw_string+0x2a>
    208c:	00 00       	nop
    208e:	89 81       	ldd	r24, Y+1	; 0x01
    2090:	2a 96       	adiw	r28, 0x0a	; 10
    2092:	0f b6       	in	r0, 0x3f	; 63
    2094:	f8 94       	cli
    2096:	de bf       	out	0x3e, r29	; 62
    2098:	0f be       	out	0x3f, r0	; 63
    209a:	cd bf       	out	0x3d, r28	; 61
    209c:	df 91       	pop	r29
    209e:	cf 91       	pop	r28
    20a0:	08 95       	ret

000020a2 <u8g2_DrawUTF8>:
    20a2:	cf 93       	push	r28
    20a4:	df 93       	push	r29
    20a6:	00 d0       	rcall	.+0      	; 0x20a8 <u8g2_DrawUTF8+0x6>
    20a8:	00 d0       	rcall	.+0      	; 0x20aa <u8g2_DrawUTF8+0x8>
    20aa:	00 d0       	rcall	.+0      	; 0x20ac <u8g2_DrawUTF8+0xa>
    20ac:	cd b7       	in	r28, 0x3d	; 61
    20ae:	de b7       	in	r29, 0x3e	; 62
    20b0:	9a 83       	std	Y+2, r25	; 0x02
    20b2:	89 83       	std	Y+1, r24	; 0x01
    20b4:	6b 83       	std	Y+3, r22	; 0x03
    20b6:	4c 83       	std	Y+4, r20	; 0x04
    20b8:	3e 83       	std	Y+6, r19	; 0x06
    20ba:	2d 83       	std	Y+5, r18	; 0x05
    20bc:	89 81       	ldd	r24, Y+1	; 0x01
    20be:	9a 81       	ldd	r25, Y+2	; 0x02
    20c0:	2e e2       	ldi	r18, 0x2E	; 46
    20c2:	3a e1       	ldi	r19, 0x1A	; 26
    20c4:	fc 01       	movw	r30, r24
    20c6:	33 83       	std	Z+3, r19	; 0x03
    20c8:	22 83       	std	Z+2, r18	; 0x02
    20ca:	2d 81       	ldd	r18, Y+5	; 0x05
    20cc:	3e 81       	ldd	r19, Y+6	; 0x06
    20ce:	89 81       	ldd	r24, Y+1	; 0x01
    20d0:	9a 81       	ldd	r25, Y+2	; 0x02
    20d2:	4c 81       	ldd	r20, Y+4	; 0x04
    20d4:	6b 81       	ldd	r22, Y+3	; 0x03
    20d6:	6a df       	rcall	.-300    	; 0x1fac <u8g2_draw_string>
    20d8:	26 96       	adiw	r28, 0x06	; 6
    20da:	0f b6       	in	r0, 0x3f	; 63
    20dc:	f8 94       	cli
    20de:	de bf       	out	0x3e, r29	; 62
    20e0:	0f be       	out	0x3f, r0	; 63
    20e2:	cd bf       	out	0x3d, r28	; 61
    20e4:	df 91       	pop	r29
    20e6:	cf 91       	pop	r28
    20e8:	08 95       	ret

000020ea <u8g2_UpdateRefHeight>:
    20ea:	cf 93       	push	r28
    20ec:	df 93       	push	r29
    20ee:	00 d0       	rcall	.+0      	; 0x20f0 <u8g2_UpdateRefHeight+0x6>
    20f0:	cd b7       	in	r28, 0x3d	; 61
    20f2:	de b7       	in	r29, 0x3e	; 62
    20f4:	9a 83       	std	Y+2, r25	; 0x02
    20f6:	89 83       	std	Y+1, r24	; 0x01
    20f8:	89 81       	ldd	r24, Y+1	; 0x01
    20fa:	9a 81       	ldd	r25, Y+2	; 0x02
    20fc:	fc 01       	movw	r30, r24
    20fe:	86 a9       	ldd	r24, Z+54	; 0x36
    2100:	97 a9       	ldd	r25, Z+55	; 0x37
    2102:	89 2b       	or	r24, r25
    2104:	09 f4       	brne	.+2      	; 0x2108 <u8g2_UpdateRefHeight+0x1e>
    2106:	af c0       	rjmp	.+350    	; 0x2266 <u8g2_UpdateRefHeight+0x17c>
    2108:	89 81       	ldd	r24, Y+1	; 0x01
    210a:	9a 81       	ldd	r25, Y+2	; 0x02
    210c:	8c 5a       	subi	r24, 0xAC	; 172
    210e:	9f 4f       	sbci	r25, 0xFF	; 255
    2110:	fc 01       	movw	r30, r24
    2112:	20 81       	ld	r18, Z
    2114:	89 81       	ldd	r24, Y+1	; 0x01
    2116:	9a 81       	ldd	r25, Y+2	; 0x02
    2118:	80 5a       	subi	r24, 0xA0	; 160
    211a:	9f 4f       	sbci	r25, 0xFF	; 255
    211c:	fc 01       	movw	r30, r24
    211e:	20 83       	st	Z, r18
    2120:	89 81       	ldd	r24, Y+1	; 0x01
    2122:	9a 81       	ldd	r25, Y+2	; 0x02
    2124:	8b 5a       	subi	r24, 0xAB	; 171
    2126:	9f 4f       	sbci	r25, 0xFF	; 255
    2128:	fc 01       	movw	r30, r24
    212a:	20 81       	ld	r18, Z
    212c:	89 81       	ldd	r24, Y+1	; 0x01
    212e:	9a 81       	ldd	r25, Y+2	; 0x02
    2130:	8f 59       	subi	r24, 0x9F	; 159
    2132:	9f 4f       	sbci	r25, 0xFF	; 255
    2134:	fc 01       	movw	r30, r24
    2136:	20 83       	st	Z, r18
    2138:	89 81       	ldd	r24, Y+1	; 0x01
    213a:	9a 81       	ldd	r25, Y+2	; 0x02
    213c:	81 5a       	subi	r24, 0xA1	; 161
    213e:	9f 4f       	sbci	r25, 0xFF	; 255
    2140:	fc 01       	movw	r30, r24
    2142:	80 81       	ld	r24, Z
    2144:	88 23       	and	r24, r24
    2146:	09 f4       	brne	.+2      	; 0x214a <u8g2_UpdateRefHeight+0x60>
    2148:	8f c0       	rjmp	.+286    	; 0x2268 <u8g2_UpdateRefHeight+0x17e>
    214a:	89 81       	ldd	r24, Y+1	; 0x01
    214c:	9a 81       	ldd	r25, Y+2	; 0x02
    214e:	81 5a       	subi	r24, 0xA1	; 161
    2150:	9f 4f       	sbci	r25, 0xFF	; 255
    2152:	fc 01       	movw	r30, r24
    2154:	80 81       	ld	r24, Z
    2156:	81 30       	cpi	r24, 0x01	; 1
    2158:	b1 f5       	brne	.+108    	; 0x21c6 <u8g2_UpdateRefHeight+0xdc>
    215a:	89 81       	ldd	r24, Y+1	; 0x01
    215c:	9a 81       	ldd	r25, Y+2	; 0x02
    215e:	80 5a       	subi	r24, 0xA0	; 160
    2160:	9f 4f       	sbci	r25, 0xFF	; 255
    2162:	fc 01       	movw	r30, r24
    2164:	20 81       	ld	r18, Z
    2166:	89 81       	ldd	r24, Y+1	; 0x01
    2168:	9a 81       	ldd	r25, Y+2	; 0x02
    216a:	8a 5a       	subi	r24, 0xAA	; 170
    216c:	9f 4f       	sbci	r25, 0xFF	; 255
    216e:	fc 01       	movw	r30, r24
    2170:	80 81       	ld	r24, Z
    2172:	28 17       	cp	r18, r24
    2174:	64 f4       	brge	.+24     	; 0x218e <u8g2_UpdateRefHeight+0xa4>
    2176:	89 81       	ldd	r24, Y+1	; 0x01
    2178:	9a 81       	ldd	r25, Y+2	; 0x02
    217a:	8a 5a       	subi	r24, 0xAA	; 170
    217c:	9f 4f       	sbci	r25, 0xFF	; 255
    217e:	fc 01       	movw	r30, r24
    2180:	20 81       	ld	r18, Z
    2182:	89 81       	ldd	r24, Y+1	; 0x01
    2184:	9a 81       	ldd	r25, Y+2	; 0x02
    2186:	80 5a       	subi	r24, 0xA0	; 160
    2188:	9f 4f       	sbci	r25, 0xFF	; 255
    218a:	fc 01       	movw	r30, r24
    218c:	20 83       	st	Z, r18
    218e:	89 81       	ldd	r24, Y+1	; 0x01
    2190:	9a 81       	ldd	r25, Y+2	; 0x02
    2192:	8f 59       	subi	r24, 0x9F	; 159
    2194:	9f 4f       	sbci	r25, 0xFF	; 255
    2196:	fc 01       	movw	r30, r24
    2198:	20 81       	ld	r18, Z
    219a:	89 81       	ldd	r24, Y+1	; 0x01
    219c:	9a 81       	ldd	r25, Y+2	; 0x02
    219e:	89 5a       	subi	r24, 0xA9	; 169
    21a0:	9f 4f       	sbci	r25, 0xFF	; 255
    21a2:	fc 01       	movw	r30, r24
    21a4:	80 81       	ld	r24, Z
    21a6:	82 17       	cp	r24, r18
    21a8:	0c f0       	brlt	.+2      	; 0x21ac <u8g2_UpdateRefHeight+0xc2>
    21aa:	5e c0       	rjmp	.+188    	; 0x2268 <u8g2_UpdateRefHeight+0x17e>
    21ac:	89 81       	ldd	r24, Y+1	; 0x01
    21ae:	9a 81       	ldd	r25, Y+2	; 0x02
    21b0:	89 5a       	subi	r24, 0xA9	; 169
    21b2:	9f 4f       	sbci	r25, 0xFF	; 255
    21b4:	fc 01       	movw	r30, r24
    21b6:	20 81       	ld	r18, Z
    21b8:	89 81       	ldd	r24, Y+1	; 0x01
    21ba:	9a 81       	ldd	r25, Y+2	; 0x02
    21bc:	8f 59       	subi	r24, 0x9F	; 159
    21be:	9f 4f       	sbci	r25, 0xFF	; 255
    21c0:	fc 01       	movw	r30, r24
    21c2:	20 83       	st	Z, r18
    21c4:	51 c0       	rjmp	.+162    	; 0x2268 <u8g2_UpdateRefHeight+0x17e>
    21c6:	89 81       	ldd	r24, Y+1	; 0x01
    21c8:	9a 81       	ldd	r25, Y+2	; 0x02
    21ca:	80 5a       	subi	r24, 0xA0	; 160
    21cc:	9f 4f       	sbci	r25, 0xFF	; 255
    21ce:	fc 01       	movw	r30, r24
    21d0:	80 81       	ld	r24, Z
    21d2:	28 2f       	mov	r18, r24
    21d4:	88 0f       	add	r24, r24
    21d6:	33 0b       	sbc	r19, r19
    21d8:	89 81       	ldd	r24, Y+1	; 0x01
    21da:	9a 81       	ldd	r25, Y+2	; 0x02
    21dc:	8f 5a       	subi	r24, 0xAF	; 175
    21de:	9f 4f       	sbci	r25, 0xFF	; 255
    21e0:	fc 01       	movw	r30, r24
    21e2:	80 81       	ld	r24, Z
    21e4:	48 2f       	mov	r20, r24
    21e6:	88 0f       	add	r24, r24
    21e8:	55 0b       	sbc	r21, r21
    21ea:	89 81       	ldd	r24, Y+1	; 0x01
    21ec:	9a 81       	ldd	r25, Y+2	; 0x02
    21ee:	8d 5a       	subi	r24, 0xAD	; 173
    21f0:	9f 4f       	sbci	r25, 0xFF	; 255
    21f2:	fc 01       	movw	r30, r24
    21f4:	80 81       	ld	r24, Z
    21f6:	08 2e       	mov	r0, r24
    21f8:	00 0c       	add	r0, r0
    21fa:	99 0b       	sbc	r25, r25
    21fc:	84 0f       	add	r24, r20
    21fe:	95 1f       	adc	r25, r21
    2200:	28 17       	cp	r18, r24
    2202:	39 07       	cpc	r19, r25
    2204:	ac f4       	brge	.+42     	; 0x2230 <u8g2_UpdateRefHeight+0x146>
    2206:	89 81       	ldd	r24, Y+1	; 0x01
    2208:	9a 81       	ldd	r25, Y+2	; 0x02
    220a:	8f 5a       	subi	r24, 0xAF	; 175
    220c:	9f 4f       	sbci	r25, 0xFF	; 255
    220e:	fc 01       	movw	r30, r24
    2210:	80 81       	ld	r24, Z
    2212:	28 2f       	mov	r18, r24
    2214:	89 81       	ldd	r24, Y+1	; 0x01
    2216:	9a 81       	ldd	r25, Y+2	; 0x02
    2218:	8d 5a       	subi	r24, 0xAD	; 173
    221a:	9f 4f       	sbci	r25, 0xFF	; 255
    221c:	fc 01       	movw	r30, r24
    221e:	80 81       	ld	r24, Z
    2220:	82 0f       	add	r24, r18
    2222:	28 2f       	mov	r18, r24
    2224:	89 81       	ldd	r24, Y+1	; 0x01
    2226:	9a 81       	ldd	r25, Y+2	; 0x02
    2228:	80 5a       	subi	r24, 0xA0	; 160
    222a:	9f 4f       	sbci	r25, 0xFF	; 255
    222c:	fc 01       	movw	r30, r24
    222e:	20 83       	st	Z, r18
    2230:	89 81       	ldd	r24, Y+1	; 0x01
    2232:	9a 81       	ldd	r25, Y+2	; 0x02
    2234:	8f 59       	subi	r24, 0x9F	; 159
    2236:	9f 4f       	sbci	r25, 0xFF	; 255
    2238:	fc 01       	movw	r30, r24
    223a:	20 81       	ld	r18, Z
    223c:	89 81       	ldd	r24, Y+1	; 0x01
    223e:	9a 81       	ldd	r25, Y+2	; 0x02
    2240:	8d 5a       	subi	r24, 0xAD	; 173
    2242:	9f 4f       	sbci	r25, 0xFF	; 255
    2244:	fc 01       	movw	r30, r24
    2246:	80 81       	ld	r24, Z
    2248:	82 17       	cp	r24, r18
    224a:	74 f4       	brge	.+28     	; 0x2268 <u8g2_UpdateRefHeight+0x17e>
    224c:	89 81       	ldd	r24, Y+1	; 0x01
    224e:	9a 81       	ldd	r25, Y+2	; 0x02
    2250:	8d 5a       	subi	r24, 0xAD	; 173
    2252:	9f 4f       	sbci	r25, 0xFF	; 255
    2254:	fc 01       	movw	r30, r24
    2256:	20 81       	ld	r18, Z
    2258:	89 81       	ldd	r24, Y+1	; 0x01
    225a:	9a 81       	ldd	r25, Y+2	; 0x02
    225c:	8f 59       	subi	r24, 0x9F	; 159
    225e:	9f 4f       	sbci	r25, 0xFF	; 255
    2260:	fc 01       	movw	r30, r24
    2262:	20 83       	st	Z, r18
    2264:	01 c0       	rjmp	.+2      	; 0x2268 <u8g2_UpdateRefHeight+0x17e>
    2266:	00 00       	nop
    2268:	0f 90       	pop	r0
    226a:	0f 90       	pop	r0
    226c:	df 91       	pop	r29
    226e:	cf 91       	pop	r28
    2270:	08 95       	ret

00002272 <u8g2_SetFontRefHeightExtendedText>:
    2272:	cf 93       	push	r28
    2274:	df 93       	push	r29
    2276:	00 d0       	rcall	.+0      	; 0x2278 <u8g2_SetFontRefHeightExtendedText+0x6>
    2278:	cd b7       	in	r28, 0x3d	; 61
    227a:	de b7       	in	r29, 0x3e	; 62
    227c:	9a 83       	std	Y+2, r25	; 0x02
    227e:	89 83       	std	Y+1, r24	; 0x01
    2280:	89 81       	ldd	r24, Y+1	; 0x01
    2282:	9a 81       	ldd	r25, Y+2	; 0x02
    2284:	81 5a       	subi	r24, 0xA1	; 161
    2286:	9f 4f       	sbci	r25, 0xFF	; 255
    2288:	21 e0       	ldi	r18, 0x01	; 1
    228a:	fc 01       	movw	r30, r24
    228c:	20 83       	st	Z, r18
    228e:	89 81       	ldd	r24, Y+1	; 0x01
    2290:	9a 81       	ldd	r25, Y+2	; 0x02
    2292:	2b df       	rcall	.-426    	; 0x20ea <u8g2_UpdateRefHeight>
    2294:	00 00       	nop
    2296:	0f 90       	pop	r0
    2298:	0f 90       	pop	r0
    229a:	df 91       	pop	r29
    229c:	cf 91       	pop	r28
    229e:	08 95       	ret

000022a0 <u8g2_font_calc_vref_font>:
    22a0:	cf 93       	push	r28
    22a2:	df 93       	push	r29
    22a4:	00 d0       	rcall	.+0      	; 0x22a6 <u8g2_font_calc_vref_font+0x6>
    22a6:	cd b7       	in	r28, 0x3d	; 61
    22a8:	de b7       	in	r29, 0x3e	; 62
    22aa:	9a 83       	std	Y+2, r25	; 0x02
    22ac:	89 83       	std	Y+1, r24	; 0x01
    22ae:	80 e0       	ldi	r24, 0x00	; 0
    22b0:	0f 90       	pop	r0
    22b2:	0f 90       	pop	r0
    22b4:	df 91       	pop	r29
    22b6:	cf 91       	pop	r28
    22b8:	08 95       	ret

000022ba <u8g2_SetFontPosBaseline>:
    22ba:	cf 93       	push	r28
    22bc:	df 93       	push	r29
    22be:	00 d0       	rcall	.+0      	; 0x22c0 <u8g2_SetFontPosBaseline+0x6>
    22c0:	cd b7       	in	r28, 0x3d	; 61
    22c2:	de b7       	in	r29, 0x3e	; 62
    22c4:	9a 83       	std	Y+2, r25	; 0x02
    22c6:	89 83       	std	Y+1, r24	; 0x01
    22c8:	89 81       	ldd	r24, Y+1	; 0x01
    22ca:	9a 81       	ldd	r25, Y+2	; 0x02
    22cc:	20 e5       	ldi	r18, 0x50	; 80
    22ce:	31 e1       	ldi	r19, 0x11	; 17
    22d0:	fc 01       	movw	r30, r24
    22d2:	31 af       	std	Z+57, r19	; 0x39
    22d4:	20 af       	std	Z+56, r18	; 0x38
    22d6:	00 00       	nop
    22d8:	0f 90       	pop	r0
    22da:	0f 90       	pop	r0
    22dc:	df 91       	pop	r29
    22de:	cf 91       	pop	r28
    22e0:	08 95       	ret

000022e2 <u8g2_font_calc_vref_top>:
    22e2:	cf 93       	push	r28
    22e4:	df 93       	push	r29
    22e6:	00 d0       	rcall	.+0      	; 0x22e8 <u8g2_font_calc_vref_top+0x6>
    22e8:	1f 92       	push	r1
    22ea:	cd b7       	in	r28, 0x3d	; 61
    22ec:	de b7       	in	r29, 0x3e	; 62
    22ee:	9b 83       	std	Y+3, r25	; 0x03
    22f0:	8a 83       	std	Y+2, r24	; 0x02
    22f2:	8a 81       	ldd	r24, Y+2	; 0x02
    22f4:	9b 81       	ldd	r25, Y+3	; 0x03
    22f6:	80 5a       	subi	r24, 0xA0	; 160
    22f8:	9f 4f       	sbci	r25, 0xFF	; 255
    22fa:	fc 01       	movw	r30, r24
    22fc:	80 81       	ld	r24, Z
    22fe:	89 83       	std	Y+1, r24	; 0x01
    2300:	89 81       	ldd	r24, Y+1	; 0x01
    2302:	8f 5f       	subi	r24, 0xFF	; 255
    2304:	89 83       	std	Y+1, r24	; 0x01
    2306:	89 81       	ldd	r24, Y+1	; 0x01
    2308:	0f 90       	pop	r0
    230a:	0f 90       	pop	r0
    230c:	0f 90       	pop	r0
    230e:	df 91       	pop	r29
    2310:	cf 91       	pop	r28
    2312:	08 95       	ret

00002314 <u8g2_SetFontPosTop>:
    2314:	cf 93       	push	r28
    2316:	df 93       	push	r29
    2318:	00 d0       	rcall	.+0      	; 0x231a <u8g2_SetFontPosTop+0x6>
    231a:	cd b7       	in	r28, 0x3d	; 61
    231c:	de b7       	in	r29, 0x3e	; 62
    231e:	9a 83       	std	Y+2, r25	; 0x02
    2320:	89 83       	std	Y+1, r24	; 0x01
    2322:	89 81       	ldd	r24, Y+1	; 0x01
    2324:	9a 81       	ldd	r25, Y+2	; 0x02
    2326:	21 e7       	ldi	r18, 0x71	; 113
    2328:	31 e1       	ldi	r19, 0x11	; 17
    232a:	fc 01       	movw	r30, r24
    232c:	31 af       	std	Z+57, r19	; 0x39
    232e:	20 af       	std	Z+56, r18	; 0x38
    2330:	00 00       	nop
    2332:	0f 90       	pop	r0
    2334:	0f 90       	pop	r0
    2336:	df 91       	pop	r29
    2338:	cf 91       	pop	r28
    233a:	08 95       	ret

0000233c <u8g2_SetFont>:
    233c:	cf 93       	push	r28
    233e:	df 93       	push	r29
    2340:	00 d0       	rcall	.+0      	; 0x2342 <u8g2_SetFont+0x6>
    2342:	00 d0       	rcall	.+0      	; 0x2344 <u8g2_SetFont+0x8>
    2344:	cd b7       	in	r28, 0x3d	; 61
    2346:	de b7       	in	r29, 0x3e	; 62
    2348:	9a 83       	std	Y+2, r25	; 0x02
    234a:	89 83       	std	Y+1, r24	; 0x01
    234c:	7c 83       	std	Y+4, r23	; 0x04
    234e:	6b 83       	std	Y+3, r22	; 0x03
    2350:	89 81       	ldd	r24, Y+1	; 0x01
    2352:	9a 81       	ldd	r25, Y+2	; 0x02
    2354:	fc 01       	movw	r30, r24
    2356:	26 a9       	ldd	r18, Z+54	; 0x36
    2358:	37 a9       	ldd	r19, Z+55	; 0x37
    235a:	8b 81       	ldd	r24, Y+3	; 0x03
    235c:	9c 81       	ldd	r25, Y+4	; 0x04
    235e:	28 17       	cp	r18, r24
    2360:	39 07       	cpc	r19, r25
    2362:	99 f0       	breq	.+38     	; 0x238a <u8g2_SetFont+0x4e>
    2364:	89 81       	ldd	r24, Y+1	; 0x01
    2366:	9a 81       	ldd	r25, Y+2	; 0x02
    2368:	2b 81       	ldd	r18, Y+3	; 0x03
    236a:	3c 81       	ldd	r19, Y+4	; 0x04
    236c:	fc 01       	movw	r30, r24
    236e:	37 ab       	std	Z+55, r19	; 0x37
    2370:	26 ab       	std	Z+54, r18	; 0x36
    2372:	89 81       	ldd	r24, Y+1	; 0x01
    2374:	9a 81       	ldd	r25, Y+2	; 0x02
    2376:	89 5b       	subi	r24, 0xB9	; 185
    2378:	9f 4f       	sbci	r25, 0xFF	; 255
    237a:	2b 81       	ldd	r18, Y+3	; 0x03
    237c:	3c 81       	ldd	r19, Y+4	; 0x04
    237e:	b9 01       	movw	r22, r18
    2380:	0e 94 af 09 	call	0x135e	; 0x135e <u8g2_read_font_info>
    2384:	89 81       	ldd	r24, Y+1	; 0x01
    2386:	9a 81       	ldd	r25, Y+2	; 0x02
    2388:	b0 de       	rcall	.-672    	; 0x20ea <u8g2_UpdateRefHeight>
    238a:	00 00       	nop
    238c:	0f 90       	pop	r0
    238e:	0f 90       	pop	r0
    2390:	0f 90       	pop	r0
    2392:	0f 90       	pop	r0
    2394:	df 91       	pop	r29
    2396:	cf 91       	pop	r28
    2398:	08 95       	ret

0000239a <u8g2_string_width>:
    239a:	cf 93       	push	r28
    239c:	df 93       	push	r29
    239e:	cd b7       	in	r28, 0x3d	; 61
    23a0:	de b7       	in	r29, 0x3e	; 62
    23a2:	28 97       	sbiw	r28, 0x08	; 8
    23a4:	0f b6       	in	r0, 0x3f	; 63
    23a6:	f8 94       	cli
    23a8:	de bf       	out	0x3e, r29	; 62
    23aa:	0f be       	out	0x3f, r0	; 63
    23ac:	cd bf       	out	0x3d, r28	; 61
    23ae:	9e 83       	std	Y+6, r25	; 0x06
    23b0:	8d 83       	std	Y+5, r24	; 0x05
    23b2:	78 87       	std	Y+8, r23	; 0x08
    23b4:	6f 83       	std	Y+7, r22	; 0x07
    23b6:	8d 81       	ldd	r24, Y+5	; 0x05
    23b8:	9e 81       	ldd	r25, Y+6	; 0x06
    23ba:	80 5c       	subi	r24, 0xC0	; 192
    23bc:	9f 4f       	sbci	r25, 0xFF	; 255
    23be:	fc 01       	movw	r30, r24
    23c0:	10 82       	st	Z, r1
    23c2:	8d 81       	ldd	r24, Y+5	; 0x05
    23c4:	9e 81       	ldd	r25, Y+6	; 0x06
    23c6:	0e 94 1d 1a 	call	0x343a	; 0x343a <u8x8_utf8_init>
    23ca:	19 82       	std	Y+1, r1	; 0x01
    23cc:	1a 82       	std	Y+2, r1	; 0x02
    23ce:	8d 81       	ldd	r24, Y+5	; 0x05
    23d0:	9e 81       	ldd	r25, Y+6	; 0x06
    23d2:	fc 01       	movw	r30, r24
    23d4:	22 81       	ldd	r18, Z+2	; 0x02
    23d6:	33 81       	ldd	r19, Z+3	; 0x03
    23d8:	8f 81       	ldd	r24, Y+7	; 0x07
    23da:	98 85       	ldd	r25, Y+8	; 0x08
    23dc:	fc 01       	movw	r30, r24
    23de:	80 81       	ld	r24, Z
    23e0:	48 2f       	mov	r20, r24
    23e2:	8d 81       	ldd	r24, Y+5	; 0x05
    23e4:	9e 81       	ldd	r25, Y+6	; 0x06
    23e6:	64 2f       	mov	r22, r20
    23e8:	f9 01       	movw	r30, r18
    23ea:	09 95       	icall
    23ec:	9c 83       	std	Y+4, r25	; 0x04
    23ee:	8b 83       	std	Y+3, r24	; 0x03
    23f0:	8b 81       	ldd	r24, Y+3	; 0x03
    23f2:	9c 81       	ldd	r25, Y+4	; 0x04
    23f4:	01 96       	adiw	r24, 0x01	; 1
    23f6:	a9 f0       	breq	.+42     	; 0x2422 <u8g2_string_width+0x88>
    23f8:	8f 81       	ldd	r24, Y+7	; 0x07
    23fa:	98 85       	ldd	r25, Y+8	; 0x08
    23fc:	01 96       	adiw	r24, 0x01	; 1
    23fe:	98 87       	std	Y+8, r25	; 0x08
    2400:	8f 83       	std	Y+7, r24	; 0x07
    2402:	8b 81       	ldd	r24, Y+3	; 0x03
    2404:	9c 81       	ldd	r25, Y+4	; 0x04
    2406:	02 96       	adiw	r24, 0x02	; 2
    2408:	11 f3       	breq	.-60     	; 0x23ce <u8g2_string_width+0x34>
    240a:	2b 81       	ldd	r18, Y+3	; 0x03
    240c:	3c 81       	ldd	r19, Y+4	; 0x04
    240e:	8d 81       	ldd	r24, Y+5	; 0x05
    2410:	9e 81       	ldd	r25, Y+6	; 0x06
    2412:	b9 01       	movw	r22, r18
    2414:	0f dd       	rcall	.-1506   	; 0x1e34 <u8g2_GetGlyphWidth>
    2416:	8a 83       	std	Y+2, r24	; 0x02
    2418:	99 81       	ldd	r25, Y+1	; 0x01
    241a:	8a 81       	ldd	r24, Y+2	; 0x02
    241c:	89 0f       	add	r24, r25
    241e:	89 83       	std	Y+1, r24	; 0x01
    2420:	d6 cf       	rjmp	.-84     	; 0x23ce <u8g2_string_width+0x34>
    2422:	00 00       	nop
    2424:	8d 81       	ldd	r24, Y+5	; 0x05
    2426:	9e 81       	ldd	r25, Y+6	; 0x06
    2428:	80 5c       	subi	r24, 0xC0	; 192
    242a:	9f 4f       	sbci	r25, 0xFF	; 255
    242c:	fc 01       	movw	r30, r24
    242e:	80 81       	ld	r24, Z
    2430:	88 23       	and	r24, r24
    2432:	d1 f0       	breq	.+52     	; 0x2468 <u8g2_string_width+0xce>
    2434:	99 81       	ldd	r25, Y+1	; 0x01
    2436:	8a 81       	ldd	r24, Y+2	; 0x02
    2438:	f9 2f       	mov	r31, r25
    243a:	f8 1b       	sub	r31, r24
    243c:	8f 2f       	mov	r24, r31
    243e:	89 83       	std	Y+1, r24	; 0x01
    2440:	8d 81       	ldd	r24, Y+5	; 0x05
    2442:	9e 81       	ldd	r25, Y+6	; 0x06
    2444:	80 5c       	subi	r24, 0xC0	; 192
    2446:	9f 4f       	sbci	r25, 0xFF	; 255
    2448:	fc 01       	movw	r30, r24
    244a:	80 81       	ld	r24, Z
    244c:	98 2f       	mov	r25, r24
    244e:	89 81       	ldd	r24, Y+1	; 0x01
    2450:	89 0f       	add	r24, r25
    2452:	89 83       	std	Y+1, r24	; 0x01
    2454:	8d 81       	ldd	r24, Y+5	; 0x05
    2456:	9e 81       	ldd	r25, Y+6	; 0x06
    2458:	8e 59       	subi	r24, 0x9E	; 158
    245a:	9f 4f       	sbci	r25, 0xFF	; 255
    245c:	fc 01       	movw	r30, r24
    245e:	80 81       	ld	r24, Z
    2460:	98 2f       	mov	r25, r24
    2462:	89 81       	ldd	r24, Y+1	; 0x01
    2464:	89 0f       	add	r24, r25
    2466:	89 83       	std	Y+1, r24	; 0x01
    2468:	89 81       	ldd	r24, Y+1	; 0x01
    246a:	28 96       	adiw	r28, 0x08	; 8
    246c:	0f b6       	in	r0, 0x3f	; 63
    246e:	f8 94       	cli
    2470:	de bf       	out	0x3e, r29	; 62
    2472:	0f be       	out	0x3f, r0	; 63
    2474:	cd bf       	out	0x3d, r28	; 61
    2476:	df 91       	pop	r29
    2478:	cf 91       	pop	r28
    247a:	08 95       	ret

0000247c <u8g2_GetUTF8Width>:
21 	U+10000 	U+1FFFFF 	4 		11110xxx 	10xxxxxx 	10xxxxxx 	10xxxxxx
26 	U+200000 	U+3FFFFFF 	5 		111110xx 	10xxxxxx 	10xxxxxx 	10xxxxxx 	10xxxxxx
31 	U+4000000 	U+7FFFFFFF 	6 		1111110x 	10xxxxxx 	10xxxxxx 	10xxxxxx 	10xxxxxx 	10xxxxxx  
*/
u8g2_uint_t u8g2_GetUTF8Width(u8g2_t *u8g2, const char *str)
{
    247c:	cf 93       	push	r28
    247e:	df 93       	push	r29
    2480:	00 d0       	rcall	.+0      	; 0x2482 <u8g2_GetUTF8Width+0x6>
    2482:	00 d0       	rcall	.+0      	; 0x2484 <u8g2_GetUTF8Width+0x8>
    2484:	cd b7       	in	r28, 0x3d	; 61
    2486:	de b7       	in	r29, 0x3e	; 62
    2488:	9a 83       	std	Y+2, r25	; 0x02
    248a:	89 83       	std	Y+1, r24	; 0x01
    248c:	7c 83       	std	Y+4, r23	; 0x04
    248e:	6b 83       	std	Y+3, r22	; 0x03
  u8g2->u8x8.next_cb = u8x8_utf8_next;
    2490:	89 81       	ldd	r24, Y+1	; 0x01
    2492:	9a 81       	ldd	r25, Y+2	; 0x02
    2494:	2e e2       	ldi	r18, 0x2E	; 46
    2496:	3a e1       	ldi	r19, 0x1A	; 26
    2498:	fc 01       	movw	r30, r24
    249a:	33 83       	std	Z+3, r19	; 0x03
    249c:	22 83       	std	Z+2, r18	; 0x02
  return u8g2_string_width(u8g2, str);
    249e:	2b 81       	ldd	r18, Y+3	; 0x03
    24a0:	3c 81       	ldd	r19, Y+4	; 0x04
    24a2:	89 81       	ldd	r24, Y+1	; 0x01
    24a4:	9a 81       	ldd	r25, Y+2	; 0x02
    24a6:	b9 01       	movw	r22, r18
    24a8:	78 df       	rcall	.-272    	; 0x239a <u8g2_string_width>
}
    24aa:	0f 90       	pop	r0
    24ac:	0f 90       	pop	r0
    24ae:	0f 90       	pop	r0
    24b0:	0f 90       	pop	r0
    24b2:	df 91       	pop	r29
    24b4:	cf 91       	pop	r28
    24b6:	08 95       	ret

000024b8 <u8g2_SetFontDirection>:



void u8g2_SetFontDirection(u8g2_t *u8g2, uint8_t dir)
{
    24b8:	cf 93       	push	r28
    24ba:	df 93       	push	r29
    24bc:	00 d0       	rcall	.+0      	; 0x24be <u8g2_SetFontDirection+0x6>
    24be:	1f 92       	push	r1
    24c0:	cd b7       	in	r28, 0x3d	; 61
    24c2:	de b7       	in	r29, 0x3e	; 62
    24c4:	9a 83       	std	Y+2, r25	; 0x02
    24c6:	89 83       	std	Y+1, r24	; 0x01
    24c8:	6b 83       	std	Y+3, r22	; 0x03
#ifdef U8G2_WITH_FONT_ROTATION  
  u8g2->font_decode.dir = dir;
    24ca:	89 81       	ldd	r24, Y+1	; 0x01
    24cc:	9a 81       	ldd	r25, Y+2	; 0x02
    24ce:	8a 5b       	subi	r24, 0xBA	; 186
    24d0:	9f 4f       	sbci	r25, 0xFF	; 255
    24d2:	2b 81       	ldd	r18, Y+3	; 0x03
    24d4:	fc 01       	movw	r30, r24
    24d6:	20 83       	st	Z, r18
#endif
}
    24d8:	00 00       	nop
    24da:	0f 90       	pop	r0
    24dc:	0f 90       	pop	r0
    24de:	0f 90       	pop	r0
    24e0:	df 91       	pop	r29
    24e2:	cf 91       	pop	r28
    24e4:	08 95       	ret

000024e6 <u8g2_clip_intersection2>:
    return;
  if ( x >= u8g2->user_x1 )
    return;
#endif /* U8G2_WITH_INTERSECTION */
  u8g2_DrawHVLine(u8g2, x, y, 1, 0);
}
    24e6:	cf 93       	push	r28
    24e8:	df 93       	push	r29
    24ea:	cd b7       	in	r28, 0x3d	; 61
    24ec:	de b7       	in	r29, 0x3e	; 62
    24ee:	28 97       	sbiw	r28, 0x08	; 8
    24f0:	0f b6       	in	r0, 0x3f	; 63
    24f2:	f8 94       	cli
    24f4:	de bf       	out	0x3e, r29	; 62
    24f6:	0f be       	out	0x3f, r0	; 63
    24f8:	cd bf       	out	0x3d, r28	; 61
    24fa:	9c 83       	std	Y+4, r25	; 0x04
    24fc:	8b 83       	std	Y+3, r24	; 0x03
    24fe:	7e 83       	std	Y+6, r23	; 0x06
    2500:	6d 83       	std	Y+5, r22	; 0x05
    2502:	4f 83       	std	Y+7, r20	; 0x07
    2504:	28 87       	std	Y+8, r18	; 0x08
    2506:	8b 81       	ldd	r24, Y+3	; 0x03
    2508:	9c 81       	ldd	r25, Y+4	; 0x04
    250a:	fc 01       	movw	r30, r24
    250c:	80 81       	ld	r24, Z
    250e:	89 83       	std	Y+1, r24	; 0x01
    2510:	89 81       	ldd	r24, Y+1	; 0x01
    2512:	8a 83       	std	Y+2, r24	; 0x02
    2514:	8d 81       	ldd	r24, Y+5	; 0x05
    2516:	9e 81       	ldd	r25, Y+6	; 0x06
    2518:	fc 01       	movw	r30, r24
    251a:	80 81       	ld	r24, Z
    251c:	9a 81       	ldd	r25, Y+2	; 0x02
    251e:	89 0f       	add	r24, r25
    2520:	8a 83       	std	Y+2, r24	; 0x02
    2522:	99 81       	ldd	r25, Y+1	; 0x01
    2524:	8a 81       	ldd	r24, Y+2	; 0x02
    2526:	89 17       	cp	r24, r25
    2528:	60 f4       	brcc	.+24     	; 0x2542 <u8g2_clip_intersection2+0x5c>
    252a:	99 81       	ldd	r25, Y+1	; 0x01
    252c:	88 85       	ldd	r24, Y+8	; 0x08
    252e:	98 17       	cp	r25, r24
    2530:	30 f4       	brcc	.+12     	; 0x253e <u8g2_clip_intersection2+0x58>
    2532:	88 85       	ldd	r24, Y+8	; 0x08
    2534:	8a 83       	std	Y+2, r24	; 0x02
    2536:	8a 81       	ldd	r24, Y+2	; 0x02
    2538:	81 50       	subi	r24, 0x01	; 1
    253a:	8a 83       	std	Y+2, r24	; 0x02
    253c:	02 c0       	rjmp	.+4      	; 0x2542 <u8g2_clip_intersection2+0x5c>
    253e:	8f 81       	ldd	r24, Y+7	; 0x07
    2540:	89 83       	std	Y+1, r24	; 0x01
    2542:	99 81       	ldd	r25, Y+1	; 0x01
    2544:	88 85       	ldd	r24, Y+8	; 0x08
    2546:	98 17       	cp	r25, r24
    2548:	10 f0       	brcs	.+4      	; 0x254e <u8g2_clip_intersection2+0x68>
    254a:	80 e0       	ldi	r24, 0x00	; 0
    254c:	23 c0       	rjmp	.+70     	; 0x2594 <u8g2_clip_intersection2+0xae>
    254e:	9a 81       	ldd	r25, Y+2	; 0x02
    2550:	8f 81       	ldd	r24, Y+7	; 0x07
    2552:	89 17       	cp	r24, r25
    2554:	10 f0       	brcs	.+4      	; 0x255a <u8g2_clip_intersection2+0x74>
    2556:	80 e0       	ldi	r24, 0x00	; 0
    2558:	1d c0       	rjmp	.+58     	; 0x2594 <u8g2_clip_intersection2+0xae>
    255a:	99 81       	ldd	r25, Y+1	; 0x01
    255c:	8f 81       	ldd	r24, Y+7	; 0x07
    255e:	98 17       	cp	r25, r24
    2560:	10 f4       	brcc	.+4      	; 0x2566 <u8g2_clip_intersection2+0x80>
    2562:	8f 81       	ldd	r24, Y+7	; 0x07
    2564:	89 83       	std	Y+1, r24	; 0x01
    2566:	9a 81       	ldd	r25, Y+2	; 0x02
    2568:	88 85       	ldd	r24, Y+8	; 0x08
    256a:	89 17       	cp	r24, r25
    256c:	10 f4       	brcc	.+4      	; 0x2572 <u8g2_clip_intersection2+0x8c>
    256e:	88 85       	ldd	r24, Y+8	; 0x08
    2570:	8a 83       	std	Y+2, r24	; 0x02
    2572:	8b 81       	ldd	r24, Y+3	; 0x03
    2574:	9c 81       	ldd	r25, Y+4	; 0x04
    2576:	29 81       	ldd	r18, Y+1	; 0x01
    2578:	fc 01       	movw	r30, r24
    257a:	20 83       	st	Z, r18
    257c:	9a 81       	ldd	r25, Y+2	; 0x02
    257e:	89 81       	ldd	r24, Y+1	; 0x01
    2580:	f9 2f       	mov	r31, r25
    2582:	f8 1b       	sub	r31, r24
    2584:	8f 2f       	mov	r24, r31
    2586:	8a 83       	std	Y+2, r24	; 0x02
    2588:	8d 81       	ldd	r24, Y+5	; 0x05
    258a:	9e 81       	ldd	r25, Y+6	; 0x06
    258c:	2a 81       	ldd	r18, Y+2	; 0x02
    258e:	fc 01       	movw	r30, r24
    2590:	20 83       	st	Z, r18
    2592:	81 e0       	ldi	r24, 0x01	; 1
    2594:	28 96       	adiw	r28, 0x08	; 8
    2596:	0f b6       	in	r0, 0x3f	; 63
    2598:	f8 94       	cli
    259a:	de bf       	out	0x3e, r29	; 62
    259c:	0f be       	out	0x3f, r0	; 63
    259e:	cd bf       	out	0x3d, r28	; 61
    25a0:	df 91       	pop	r29
    25a2:	cf 91       	pop	r28
    25a4:	08 95       	ret

000025a6 <u8g2_draw_hv_line_2dir>:
    25a6:	0f 93       	push	r16
    25a8:	cf 93       	push	r28
    25aa:	df 93       	push	r29
    25ac:	00 d0       	rcall	.+0      	; 0x25ae <u8g2_draw_hv_line_2dir+0x8>
    25ae:	00 d0       	rcall	.+0      	; 0x25b0 <u8g2_draw_hv_line_2dir+0xa>
    25b0:	00 d0       	rcall	.+0      	; 0x25b2 <u8g2_draw_hv_line_2dir+0xc>
    25b2:	cd b7       	in	r28, 0x3d	; 61
    25b4:	de b7       	in	r29, 0x3e	; 62
    25b6:	9a 83       	std	Y+2, r25	; 0x02
    25b8:	89 83       	std	Y+1, r24	; 0x01
    25ba:	6b 83       	std	Y+3, r22	; 0x03
    25bc:	4c 83       	std	Y+4, r20	; 0x04
    25be:	2d 83       	std	Y+5, r18	; 0x05
    25c0:	0e 83       	std	Y+6, r16	; 0x06
    25c2:	89 81       	ldd	r24, Y+1	; 0x01
    25c4:	9a 81       	ldd	r25, Y+2	; 0x02
    25c6:	dc 01       	movw	r26, r24
    25c8:	99 96       	adiw	r26, 0x29	; 41
    25ca:	8c 91       	ld	r24, X
    25cc:	9c 81       	ldd	r25, Y+4	; 0x04
    25ce:	b9 2f       	mov	r27, r25
    25d0:	b8 1b       	sub	r27, r24
    25d2:	8b 2f       	mov	r24, r27
    25d4:	8c 83       	std	Y+4, r24	; 0x04
    25d6:	89 81       	ldd	r24, Y+1	; 0x01
    25d8:	9a 81       	ldd	r25, Y+2	; 0x02
    25da:	dc 01       	movw	r26, r24
    25dc:	5f 96       	adiw	r26, 0x1f	; 31
    25de:	ed 91       	ld	r30, X+
    25e0:	fc 91       	ld	r31, X
    25e2:	90 97       	sbiw	r26, 0x20	; 32
    25e4:	89 81       	ldd	r24, Y+1	; 0x01
    25e6:	9a 81       	ldd	r25, Y+2	; 0x02
    25e8:	0e 81       	ldd	r16, Y+6	; 0x06
    25ea:	2d 81       	ldd	r18, Y+5	; 0x05
    25ec:	4c 81       	ldd	r20, Y+4	; 0x04
    25ee:	6b 81       	ldd	r22, Y+3	; 0x03
    25f0:	09 95       	icall
    25f2:	00 00       	nop
    25f4:	26 96       	adiw	r28, 0x06	; 6
    25f6:	0f b6       	in	r0, 0x3f	; 63
    25f8:	f8 94       	cli
    25fa:	de bf       	out	0x3e, r29	; 62
    25fc:	0f be       	out	0x3f, r0	; 63
    25fe:	cd bf       	out	0x3d, r28	; 61
    2600:	df 91       	pop	r29
    2602:	cf 91       	pop	r28
    2604:	0f 91       	pop	r16
    2606:	08 95       	ret

00002608 <u8g2_DrawHVLine>:
    2608:	0f 93       	push	r16
    260a:	cf 93       	push	r28
    260c:	df 93       	push	r29
    260e:	00 d0       	rcall	.+0      	; 0x2610 <u8g2_DrawHVLine+0x8>
    2610:	00 d0       	rcall	.+0      	; 0x2612 <u8g2_DrawHVLine+0xa>
    2612:	00 d0       	rcall	.+0      	; 0x2614 <u8g2_DrawHVLine+0xc>
    2614:	cd b7       	in	r28, 0x3d	; 61
    2616:	de b7       	in	r29, 0x3e	; 62
    2618:	9a 83       	std	Y+2, r25	; 0x02
    261a:	89 83       	std	Y+1, r24	; 0x01
    261c:	6b 83       	std	Y+3, r22	; 0x03
    261e:	4c 83       	std	Y+4, r20	; 0x04
    2620:	2d 83       	std	Y+5, r18	; 0x05
    2622:	0e 83       	std	Y+6, r16	; 0x06
    2624:	89 81       	ldd	r24, Y+1	; 0x01
    2626:	9a 81       	ldd	r25, Y+2	; 0x02
    2628:	82 5a       	subi	r24, 0xA2	; 162
    262a:	9f 4f       	sbci	r25, 0xFF	; 255
    262c:	dc 01       	movw	r26, r24
    262e:	8c 91       	ld	r24, X
    2630:	88 23       	and	r24, r24
    2632:	09 f4       	brne	.+2      	; 0x2636 <u8g2_DrawHVLine+0x2e>
    2634:	89 c0       	rjmp	.+274    	; 0x2748 <u8g2_DrawHVLine+0x140>
    2636:	8d 81       	ldd	r24, Y+5	; 0x05
    2638:	88 23       	and	r24, r24
    263a:	09 f4       	brne	.+2      	; 0x263e <u8g2_DrawHVLine+0x36>
    263c:	85 c0       	rjmp	.+266    	; 0x2748 <u8g2_DrawHVLine+0x140>
    263e:	8d 81       	ldd	r24, Y+5	; 0x05
    2640:	82 30       	cpi	r24, 0x02	; 2
    2642:	c8 f0       	brcs	.+50     	; 0x2676 <u8g2_DrawHVLine+0x6e>
    2644:	8e 81       	ldd	r24, Y+6	; 0x06
    2646:	82 30       	cpi	r24, 0x02	; 2
    2648:	51 f4       	brne	.+20     	; 0x265e <u8g2_DrawHVLine+0x56>
    264a:	9b 81       	ldd	r25, Y+3	; 0x03
    264c:	8d 81       	ldd	r24, Y+5	; 0x05
    264e:	b9 2f       	mov	r27, r25
    2650:	b8 1b       	sub	r27, r24
    2652:	8b 2f       	mov	r24, r27
    2654:	8b 83       	std	Y+3, r24	; 0x03
    2656:	8b 81       	ldd	r24, Y+3	; 0x03
    2658:	8f 5f       	subi	r24, 0xFF	; 255
    265a:	8b 83       	std	Y+3, r24	; 0x03
    265c:	0c c0       	rjmp	.+24     	; 0x2676 <u8g2_DrawHVLine+0x6e>
    265e:	8e 81       	ldd	r24, Y+6	; 0x06
    2660:	83 30       	cpi	r24, 0x03	; 3
    2662:	49 f4       	brne	.+18     	; 0x2676 <u8g2_DrawHVLine+0x6e>
    2664:	9c 81       	ldd	r25, Y+4	; 0x04
    2666:	8d 81       	ldd	r24, Y+5	; 0x05
    2668:	e9 2f       	mov	r30, r25
    266a:	e8 1b       	sub	r30, r24
    266c:	8e 2f       	mov	r24, r30
    266e:	8c 83       	std	Y+4, r24	; 0x04
    2670:	8c 81       	ldd	r24, Y+4	; 0x04
    2672:	8f 5f       	subi	r24, 0xFF	; 255
    2674:	8c 83       	std	Y+4, r24	; 0x04
    2676:	8e 81       	ldd	r24, Y+6	; 0x06
    2678:	81 70       	andi	r24, 0x01	; 1
    267a:	8e 83       	std	Y+6, r24	; 0x06
    267c:	8e 81       	ldd	r24, Y+6	; 0x06
    267e:	88 23       	and	r24, r24
    2680:	21 f5       	brne	.+72     	; 0x26ca <u8g2_DrawHVLine+0xc2>
    2682:	89 81       	ldd	r24, Y+1	; 0x01
    2684:	9a 81       	ldd	r25, Y+2	; 0x02
    2686:	dc 01       	movw	r26, r24
    2688:	d0 96       	adiw	r26, 0x30	; 48
    268a:	9c 91       	ld	r25, X
    268c:	8c 81       	ldd	r24, Y+4	; 0x04
    268e:	89 17       	cp	r24, r25
    2690:	08 f4       	brcc	.+2      	; 0x2694 <u8g2_DrawHVLine+0x8c>
    2692:	51 c0       	rjmp	.+162    	; 0x2736 <u8g2_DrawHVLine+0x12e>
    2694:	89 81       	ldd	r24, Y+1	; 0x01
    2696:	9a 81       	ldd	r25, Y+2	; 0x02
    2698:	fc 01       	movw	r30, r24
    269a:	91 a9       	ldd	r25, Z+49	; 0x31
    269c:	8c 81       	ldd	r24, Y+4	; 0x04
    269e:	89 17       	cp	r24, r25
    26a0:	08 f0       	brcs	.+2      	; 0x26a4 <u8g2_DrawHVLine+0x9c>
    26a2:	4b c0       	rjmp	.+150    	; 0x273a <u8g2_DrawHVLine+0x132>
    26a4:	89 81       	ldd	r24, Y+1	; 0x01
    26a6:	9a 81       	ldd	r25, Y+2	; 0x02
    26a8:	dc 01       	movw	r26, r24
    26aa:	9f 96       	adiw	r26, 0x2f	; 47
    26ac:	2c 91       	ld	r18, X
    26ae:	89 81       	ldd	r24, Y+1	; 0x01
    26b0:	9a 81       	ldd	r25, Y+2	; 0x02
    26b2:	fc 01       	movw	r30, r24
    26b4:	36 a5       	ldd	r19, Z+46	; 0x2e
    26b6:	be 01       	movw	r22, r28
    26b8:	6b 5f       	subi	r22, 0xFB	; 251
    26ba:	7f 4f       	sbci	r23, 0xFF	; 255
    26bc:	ce 01       	movw	r24, r28
    26be:	03 96       	adiw	r24, 0x03	; 3
    26c0:	43 2f       	mov	r20, r19
    26c2:	11 df       	rcall	.-478    	; 0x24e6 <u8g2_clip_intersection2>
    26c4:	88 23       	and	r24, r24
    26c6:	11 f5       	brne	.+68     	; 0x270c <u8g2_DrawHVLine+0x104>
    26c8:	3f c0       	rjmp	.+126    	; 0x2748 <u8g2_DrawHVLine+0x140>
    26ca:	89 81       	ldd	r24, Y+1	; 0x01
    26cc:	9a 81       	ldd	r25, Y+2	; 0x02
    26ce:	dc 01       	movw	r26, r24
    26d0:	9e 96       	adiw	r26, 0x2e	; 46
    26d2:	9c 91       	ld	r25, X
    26d4:	8b 81       	ldd	r24, Y+3	; 0x03
    26d6:	89 17       	cp	r24, r25
    26d8:	90 f1       	brcs	.+100    	; 0x273e <u8g2_DrawHVLine+0x136>
    26da:	89 81       	ldd	r24, Y+1	; 0x01
    26dc:	9a 81       	ldd	r25, Y+2	; 0x02
    26de:	fc 01       	movw	r30, r24
    26e0:	97 a5       	ldd	r25, Z+47	; 0x2f
    26e2:	8b 81       	ldd	r24, Y+3	; 0x03
    26e4:	89 17       	cp	r24, r25
    26e6:	68 f5       	brcc	.+90     	; 0x2742 <u8g2_DrawHVLine+0x13a>
    26e8:	89 81       	ldd	r24, Y+1	; 0x01
    26ea:	9a 81       	ldd	r25, Y+2	; 0x02
    26ec:	dc 01       	movw	r26, r24
    26ee:	d1 96       	adiw	r26, 0x31	; 49
    26f0:	2c 91       	ld	r18, X
    26f2:	89 81       	ldd	r24, Y+1	; 0x01
    26f4:	9a 81       	ldd	r25, Y+2	; 0x02
    26f6:	fc 01       	movw	r30, r24
    26f8:	30 a9       	ldd	r19, Z+48	; 0x30
    26fa:	be 01       	movw	r22, r28
    26fc:	6b 5f       	subi	r22, 0xFB	; 251
    26fe:	7f 4f       	sbci	r23, 0xFF	; 255
    2700:	ce 01       	movw	r24, r28
    2702:	04 96       	adiw	r24, 0x04	; 4
    2704:	43 2f       	mov	r20, r19
    2706:	ef de       	rcall	.-546    	; 0x24e6 <u8g2_clip_intersection2>
    2708:	88 23       	and	r24, r24
    270a:	e9 f0       	breq	.+58     	; 0x2746 <u8g2_DrawHVLine+0x13e>
    270c:	89 81       	ldd	r24, Y+1	; 0x01
    270e:	9a 81       	ldd	r25, Y+2	; 0x02
    2710:	dc 01       	movw	r26, r24
    2712:	91 96       	adiw	r26, 0x21	; 33
    2714:	8d 91       	ld	r24, X+
    2716:	9c 91       	ld	r25, X
    2718:	92 97       	sbiw	r26, 0x22	; 34
    271a:	dc 01       	movw	r26, r24
    271c:	14 96       	adiw	r26, 0x04	; 4
    271e:	ed 91       	ld	r30, X+
    2720:	fc 91       	ld	r31, X
    2722:	15 97       	sbiw	r26, 0x05	; 5
    2724:	2d 81       	ldd	r18, Y+5	; 0x05
    2726:	4c 81       	ldd	r20, Y+4	; 0x04
    2728:	3b 81       	ldd	r19, Y+3	; 0x03
    272a:	89 81       	ldd	r24, Y+1	; 0x01
    272c:	9a 81       	ldd	r25, Y+2	; 0x02
    272e:	0e 81       	ldd	r16, Y+6	; 0x06
    2730:	63 2f       	mov	r22, r19
    2732:	09 95       	icall
    2734:	09 c0       	rjmp	.+18     	; 0x2748 <u8g2_DrawHVLine+0x140>
    2736:	00 00       	nop
    2738:	07 c0       	rjmp	.+14     	; 0x2748 <u8g2_DrawHVLine+0x140>
    273a:	00 00       	nop
    273c:	05 c0       	rjmp	.+10     	; 0x2748 <u8g2_DrawHVLine+0x140>
    273e:	00 00       	nop
    2740:	03 c0       	rjmp	.+6      	; 0x2748 <u8g2_DrawHVLine+0x140>
    2742:	00 00       	nop
    2744:	01 c0       	rjmp	.+2      	; 0x2748 <u8g2_DrawHVLine+0x140>
    2746:	00 00       	nop
    2748:	26 96       	adiw	r28, 0x06	; 6
    274a:	0f b6       	in	r0, 0x3f	; 63
    274c:	f8 94       	cli
    274e:	de bf       	out	0x3e, r29	; 62
    2750:	0f be       	out	0x3f, r0	; 63
    2752:	cd bf       	out	0x3d, r28	; 61
    2754:	df 91       	pop	r29
    2756:	cf 91       	pop	r28
    2758:	0f 91       	pop	r16
    275a:	08 95       	ret

0000275c <u8g2_DrawHLine>:
    275c:	0f 93       	push	r16
    275e:	cf 93       	push	r28
    2760:	df 93       	push	r29
    2762:	00 d0       	rcall	.+0      	; 0x2764 <u8g2_DrawHLine+0x8>
    2764:	00 d0       	rcall	.+0      	; 0x2766 <u8g2_DrawHLine+0xa>
    2766:	1f 92       	push	r1
    2768:	cd b7       	in	r28, 0x3d	; 61
    276a:	de b7       	in	r29, 0x3e	; 62
    276c:	9a 83       	std	Y+2, r25	; 0x02
    276e:	89 83       	std	Y+1, r24	; 0x01
    2770:	6b 83       	std	Y+3, r22	; 0x03
    2772:	4c 83       	std	Y+4, r20	; 0x04
    2774:	2d 83       	std	Y+5, r18	; 0x05
    2776:	89 81       	ldd	r24, Y+1	; 0x01
    2778:	9a 81       	ldd	r25, Y+2	; 0x02
    277a:	00 e0       	ldi	r16, 0x00	; 0
    277c:	2d 81       	ldd	r18, Y+5	; 0x05
    277e:	4c 81       	ldd	r20, Y+4	; 0x04
    2780:	6b 81       	ldd	r22, Y+3	; 0x03
    2782:	42 df       	rcall	.-380    	; 0x2608 <u8g2_DrawHVLine>
    2784:	00 00       	nop
    2786:	0f 90       	pop	r0
    2788:	0f 90       	pop	r0
    278a:	0f 90       	pop	r0
    278c:	0f 90       	pop	r0
    278e:	0f 90       	pop	r0
    2790:	df 91       	pop	r29
    2792:	cf 91       	pop	r28
    2794:	0f 91       	pop	r16
    2796:	08 95       	ret

00002798 <u8g2_SetDrawColor>:

  7 Jan 2017: Allow color value 2 for XOR operation.
  
*/
void u8g2_SetDrawColor(u8g2_t *u8g2, uint8_t color)
{
    2798:	cf 93       	push	r28
    279a:	df 93       	push	r29
    279c:	00 d0       	rcall	.+0      	; 0x279e <u8g2_SetDrawColor+0x6>
    279e:	1f 92       	push	r1
    27a0:	cd b7       	in	r28, 0x3d	; 61
    27a2:	de b7       	in	r29, 0x3e	; 62
    27a4:	9a 83       	std	Y+2, r25	; 0x02
    27a6:	89 83       	std	Y+1, r24	; 0x01
    27a8:	6b 83       	std	Y+3, r22	; 0x03
  u8g2->draw_color = color;	/* u8g2_SetDrawColor: just assign the argument */ 
    27aa:	89 81       	ldd	r24, Y+1	; 0x01
    27ac:	9a 81       	ldd	r25, Y+2	; 0x02
    27ae:	8c 59       	subi	r24, 0x9C	; 156
    27b0:	9f 4f       	sbci	r25, 0xFF	; 255
    27b2:	2b 81       	ldd	r18, Y+3	; 0x03
    27b4:	fc 01       	movw	r30, r24
    27b6:	20 83       	st	Z, r18
  if ( color >= 3 )
    27b8:	8b 81       	ldd	r24, Y+3	; 0x03
    27ba:	83 30       	cpi	r24, 0x03	; 3
    27bc:	38 f0       	brcs	.+14     	; 0x27cc <u8g2_SetDrawColor+0x34>
    u8g2->draw_color = 1;	/* u8g2_SetDrawColor: make color as one if arg is invalid */
    27be:	89 81       	ldd	r24, Y+1	; 0x01
    27c0:	9a 81       	ldd	r25, Y+2	; 0x02
    27c2:	8c 59       	subi	r24, 0x9C	; 156
    27c4:	9f 4f       	sbci	r25, 0xFF	; 255
    27c6:	21 e0       	ldi	r18, 0x01	; 1
    27c8:	fc 01       	movw	r30, r24
    27ca:	20 83       	st	Z, r18
}
    27cc:	00 00       	nop
    27ce:	0f 90       	pop	r0
    27d0:	0f 90       	pop	r0
    27d2:	0f 90       	pop	r0
    27d4:	df 91       	pop	r29
    27d6:	cf 91       	pop	r28
    27d8:	08 95       	ret

000027da <u8g2_is_intersection_decision_tree>:
  version with asymetric boundaries.
  a1 and v1 are excluded
  v0 == v1 is not support end return 1
*/
uint8_t u8g2_is_intersection_decision_tree(u8g2_uint_t a0, u8g2_uint_t a1, u8g2_uint_t v0, u8g2_uint_t v1)
{
    27da:	cf 93       	push	r28
    27dc:	df 93       	push	r29
    27de:	00 d0       	rcall	.+0      	; 0x27e0 <u8g2_is_intersection_decision_tree+0x6>
    27e0:	00 d0       	rcall	.+0      	; 0x27e2 <u8g2_is_intersection_decision_tree+0x8>
    27e2:	cd b7       	in	r28, 0x3d	; 61
    27e4:	de b7       	in	r29, 0x3e	; 62
    27e6:	89 83       	std	Y+1, r24	; 0x01
    27e8:	6a 83       	std	Y+2, r22	; 0x02
    27ea:	4b 83       	std	Y+3, r20	; 0x03
    27ec:	2c 83       	std	Y+4, r18	; 0x04
  if ( v0 < a1 )		// v0 <= a1
    27ee:	9b 81       	ldd	r25, Y+3	; 0x03
    27f0:	8a 81       	ldd	r24, Y+2	; 0x02
    27f2:	98 17       	cp	r25, r24
    27f4:	70 f4       	brcc	.+28     	; 0x2812 <u8g2_is_intersection_decision_tree+0x38>
  {
    if ( v1 > a0 )	// v1 >= a0
    27f6:	9c 81       	ldd	r25, Y+4	; 0x04
    27f8:	89 81       	ldd	r24, Y+1	; 0x01
    27fa:	89 17       	cp	r24, r25
    27fc:	10 f4       	brcc	.+4      	; 0x2802 <u8g2_is_intersection_decision_tree+0x28>
    {
      return 1;
    27fe:	81 e0       	ldi	r24, 0x01	; 1
    2800:	15 c0       	rjmp	.+42     	; 0x282c <u8g2_is_intersection_decision_tree+0x52>
    }
    else
    {
      if ( v0 > v1 )	// v0 > v1
    2802:	9b 81       	ldd	r25, Y+3	; 0x03
    2804:	8c 81       	ldd	r24, Y+4	; 0x04
    2806:	89 17       	cp	r24, r25
    2808:	10 f4       	brcc	.+4      	; 0x280e <u8g2_is_intersection_decision_tree+0x34>
      {
	return 1;
    280a:	81 e0       	ldi	r24, 0x01	; 1
    280c:	0f c0       	rjmp	.+30     	; 0x282c <u8g2_is_intersection_decision_tree+0x52>
      }
      else
      {
	return 0;
    280e:	80 e0       	ldi	r24, 0x00	; 0
    2810:	0d c0       	rjmp	.+26     	; 0x282c <u8g2_is_intersection_decision_tree+0x52>
      }
    }
  }
  else
  {
    if ( v1 > a0 )	// v1 >= a0
    2812:	9c 81       	ldd	r25, Y+4	; 0x04
    2814:	89 81       	ldd	r24, Y+1	; 0x01
    2816:	89 17       	cp	r24, r25
    2818:	40 f4       	brcc	.+16     	; 0x282a <u8g2_is_intersection_decision_tree+0x50>
    {
      if ( v0 > v1 )	// v0 > v1
    281a:	9b 81       	ldd	r25, Y+3	; 0x03
    281c:	8c 81       	ldd	r24, Y+4	; 0x04
    281e:	89 17       	cp	r24, r25
    2820:	10 f4       	brcc	.+4      	; 0x2826 <u8g2_is_intersection_decision_tree+0x4c>
      {
	return 1;
    2822:	81 e0       	ldi	r24, 0x01	; 1
    2824:	03 c0       	rjmp	.+6      	; 0x282c <u8g2_is_intersection_decision_tree+0x52>
      }
      else
      {
	return 0;
    2826:	80 e0       	ldi	r24, 0x00	; 0
    2828:	01 c0       	rjmp	.+2      	; 0x282c <u8g2_is_intersection_decision_tree+0x52>
      }
    }
    else
    {
      return 0;
    282a:	80 e0       	ldi	r24, 0x00	; 0
    }
  }
}
    282c:	0f 90       	pop	r0
    282e:	0f 90       	pop	r0
    2830:	0f 90       	pop	r0
    2832:	0f 90       	pop	r0
    2834:	df 91       	pop	r29
    2836:	cf 91       	pop	r28
    2838:	08 95       	ret

0000283a <u8g2_IsIntersection>:



/* upper limits are not included (asymetric boundaries) */
uint8_t u8g2_IsIntersection(u8g2_t *u8g2, u8g2_uint_t x0, u8g2_uint_t y0, u8g2_uint_t x1, u8g2_uint_t y1)
{
    283a:	0f 93       	push	r16
    283c:	cf 93       	push	r28
    283e:	df 93       	push	r29
    2840:	00 d0       	rcall	.+0      	; 0x2842 <u8g2_IsIntersection+0x8>
    2842:	00 d0       	rcall	.+0      	; 0x2844 <u8g2_IsIntersection+0xa>
    2844:	00 d0       	rcall	.+0      	; 0x2846 <u8g2_IsIntersection+0xc>
    2846:	cd b7       	in	r28, 0x3d	; 61
    2848:	de b7       	in	r29, 0x3e	; 62
    284a:	9a 83       	std	Y+2, r25	; 0x02
    284c:	89 83       	std	Y+1, r24	; 0x01
    284e:	6b 83       	std	Y+3, r22	; 0x03
    2850:	4c 83       	std	Y+4, r20	; 0x04
    2852:	2d 83       	std	Y+5, r18	; 0x05
    2854:	0e 83       	std	Y+6, r16	; 0x06
  if ( u8g2_is_intersection_decision_tree(u8g2->user_y0, u8g2->user_y1, y0, y1) == 0 )
    2856:	89 81       	ldd	r24, Y+1	; 0x01
    2858:	9a 81       	ldd	r25, Y+2	; 0x02
    285a:	fc 01       	movw	r30, r24
    285c:	31 a9       	ldd	r19, Z+49	; 0x31
    285e:	89 81       	ldd	r24, Y+1	; 0x01
    2860:	9a 81       	ldd	r25, Y+2	; 0x02
    2862:	fc 01       	movw	r30, r24
    2864:	80 a9       	ldd	r24, Z+48	; 0x30
    2866:	2e 81       	ldd	r18, Y+6	; 0x06
    2868:	4c 81       	ldd	r20, Y+4	; 0x04
    286a:	63 2f       	mov	r22, r19
    286c:	b6 df       	rcall	.-148    	; 0x27da <u8g2_is_intersection_decision_tree>
    286e:	88 23       	and	r24, r24
    2870:	11 f4       	brne	.+4      	; 0x2876 <u8g2_IsIntersection+0x3c>
    return 0; 
    2872:	80 e0       	ldi	r24, 0x00	; 0
    2874:	0c c0       	rjmp	.+24     	; 0x288e <u8g2_IsIntersection+0x54>
  
  return u8g2_is_intersection_decision_tree(u8g2->user_x0, u8g2->user_x1, x0, x1);
    2876:	89 81       	ldd	r24, Y+1	; 0x01
    2878:	9a 81       	ldd	r25, Y+2	; 0x02
    287a:	fc 01       	movw	r30, r24
    287c:	37 a5       	ldd	r19, Z+47	; 0x2f
    287e:	89 81       	ldd	r24, Y+1	; 0x01
    2880:	9a 81       	ldd	r25, Y+2	; 0x02
    2882:	fc 01       	movw	r30, r24
    2884:	86 a5       	ldd	r24, Z+46	; 0x2e
    2886:	2d 81       	ldd	r18, Y+5	; 0x05
    2888:	4b 81       	ldd	r20, Y+3	; 0x03
    288a:	63 2f       	mov	r22, r19
    288c:	a6 df       	rcall	.-180    	; 0x27da <u8g2_is_intersection_decision_tree>
}
    288e:	26 96       	adiw	r28, 0x06	; 6
    2890:	0f b6       	in	r0, 0x3f	; 63
    2892:	f8 94       	cli
    2894:	de bf       	out	0x3e, r29	; 62
    2896:	0f be       	out	0x3f, r0	; 63
    2898:	cd bf       	out	0x3d, r28	; 61
    289a:	df 91       	pop	r29
    289c:	cf 91       	pop	r28
    289e:	0f 91       	pop	r16
    28a0:	08 95       	ret

000028a2 <u8g2_ll_hvline_vertical_top_lsb>:
		1: vertical line (top to bottom)
  asumption: 
    all clipping done
*/
void u8g2_ll_hvline_vertical_top_lsb(u8g2_t *u8g2, u8g2_uint_t x, u8g2_uint_t y, u8g2_uint_t len, uint8_t dir)
{
    28a2:	0f 93       	push	r16
    28a4:	cf 93       	push	r28
    28a6:	df 93       	push	r29
    28a8:	cd b7       	in	r28, 0x3d	; 61
    28aa:	de b7       	in	r29, 0x3e	; 62
    28ac:	2e 97       	sbiw	r28, 0x0e	; 14
    28ae:	0f b6       	in	r0, 0x3f	; 63
    28b0:	f8 94       	cli
    28b2:	de bf       	out	0x3e, r29	; 62
    28b4:	0f be       	out	0x3f, r0	; 63
    28b6:	cd bf       	out	0x3d, r28	; 61
    28b8:	9a 87       	std	Y+10, r25	; 0x0a
    28ba:	89 87       	std	Y+9, r24	; 0x09
    28bc:	6b 87       	std	Y+11, r22	; 0x0b
    28be:	4c 87       	std	Y+12, r20	; 0x0c
    28c0:	2d 87       	std	Y+13, r18	; 0x0d
    28c2:	0e 87       	std	Y+14, r16	; 0x0e
  //assert(x < u8g2_GetU8x8(u8g2)->display_info->tile_width*8);
  //assert(y >= u8g2->buf_y0);
  //assert(y < u8g2_GetU8x8(u8g2)->display_info->tile_height*8);
  
  /* bytes are vertical, lsb on top (y=0), msb at bottom (y=7) */
  bit_pos = y;		/* overflow truncate is ok here... */
    28c4:	8c 85       	ldd	r24, Y+12	; 0x0c
    28c6:	8b 83       	std	Y+3, r24	; 0x03
  bit_pos &= 7; 	/* ... because only the lowest 3 bits are needed */
    28c8:	8b 81       	ldd	r24, Y+3	; 0x03
    28ca:	87 70       	andi	r24, 0x07	; 7
    28cc:	8b 83       	std	Y+3, r24	; 0x03
  mask = 1;
    28ce:	81 e0       	ldi	r24, 0x01	; 1
    28d0:	8e 83       	std	Y+6, r24	; 0x06
  mask <<= bit_pos;
    28d2:	8e 81       	ldd	r24, Y+6	; 0x06
    28d4:	88 2f       	mov	r24, r24
    28d6:	90 e0       	ldi	r25, 0x00	; 0
    28d8:	2b 81       	ldd	r18, Y+3	; 0x03
    28da:	22 2f       	mov	r18, r18
    28dc:	30 e0       	ldi	r19, 0x00	; 0
    28de:	02 c0       	rjmp	.+4      	; 0x28e4 <u8g2_ll_hvline_vertical_top_lsb+0x42>
    28e0:	88 0f       	add	r24, r24
    28e2:	99 1f       	adc	r25, r25
    28e4:	2a 95       	dec	r18
    28e6:	e2 f7       	brpl	.-8      	; 0x28e0 <u8g2_ll_hvline_vertical_top_lsb+0x3e>
    28e8:	8e 83       	std	Y+6, r24	; 0x06

  or_mask = 0;
    28ea:	1c 82       	std	Y+4, r1	; 0x04
  xor_mask = 0;
    28ec:	1d 82       	std	Y+5, r1	; 0x05
  if ( u8g2->draw_color <= 1 )
    28ee:	89 85       	ldd	r24, Y+9	; 0x09
    28f0:	9a 85       	ldd	r25, Y+10	; 0x0a
    28f2:	8c 59       	subi	r24, 0x9C	; 156
    28f4:	9f 4f       	sbci	r25, 0xFF	; 255
    28f6:	fc 01       	movw	r30, r24
    28f8:	80 81       	ld	r24, Z
    28fa:	82 30       	cpi	r24, 0x02	; 2
    28fc:	10 f4       	brcc	.+4      	; 0x2902 <u8g2_ll_hvline_vertical_top_lsb+0x60>
    or_mask  = mask;
    28fe:	8e 81       	ldd	r24, Y+6	; 0x06
    2900:	8c 83       	std	Y+4, r24	; 0x04
  if ( u8g2->draw_color != 1 )
    2902:	89 85       	ldd	r24, Y+9	; 0x09
    2904:	9a 85       	ldd	r25, Y+10	; 0x0a
    2906:	8c 59       	subi	r24, 0x9C	; 156
    2908:	9f 4f       	sbci	r25, 0xFF	; 255
    290a:	fc 01       	movw	r30, r24
    290c:	80 81       	ld	r24, Z
    290e:	81 30       	cpi	r24, 0x01	; 1
    2910:	11 f0       	breq	.+4      	; 0x2916 <u8g2_ll_hvline_vertical_top_lsb+0x74>
    xor_mask = mask;
    2912:	8e 81       	ldd	r24, Y+6	; 0x06
    2914:	8d 83       	std	Y+5, r24	; 0x05


  offset = y;		/* y might be 8 or 16 bit, but we need 16 bit, so use a 16 bit variable */
    2916:	8c 85       	ldd	r24, Y+12	; 0x0c
    2918:	88 2f       	mov	r24, r24
    291a:	90 e0       	ldi	r25, 0x00	; 0
    291c:	98 87       	std	Y+8, r25	; 0x08
    291e:	8f 83       	std	Y+7, r24	; 0x07
  offset &= ~7;
    2920:	8f 81       	ldd	r24, Y+7	; 0x07
    2922:	98 85       	ldd	r25, Y+8	; 0x08
    2924:	88 7f       	andi	r24, 0xF8	; 248
    2926:	98 87       	std	Y+8, r25	; 0x08
    2928:	8f 83       	std	Y+7, r24	; 0x07
  offset *= u8g2_GetU8x8(u8g2)->display_info->tile_width;
    292a:	89 85       	ldd	r24, Y+9	; 0x09
    292c:	9a 85       	ldd	r25, Y+10	; 0x0a
    292e:	fc 01       	movw	r30, r24
    2930:	80 81       	ld	r24, Z
    2932:	91 81       	ldd	r25, Z+1	; 0x01
    2934:	fc 01       	movw	r30, r24
    2936:	80 89       	ldd	r24, Z+16	; 0x10
    2938:	28 2f       	mov	r18, r24
    293a:	30 e0       	ldi	r19, 0x00	; 0
    293c:	4f 81       	ldd	r20, Y+7	; 0x07
    293e:	58 85       	ldd	r21, Y+8	; 0x08
    2940:	42 9f       	mul	r20, r18
    2942:	c0 01       	movw	r24, r0
    2944:	43 9f       	mul	r20, r19
    2946:	90 0d       	add	r25, r0
    2948:	52 9f       	mul	r21, r18
    294a:	90 0d       	add	r25, r0
    294c:	11 24       	eor	r1, r1
    294e:	98 87       	std	Y+8, r25	; 0x08
    2950:	8f 83       	std	Y+7, r24	; 0x07
  ptr = u8g2->tile_buf_ptr;
    2952:	89 85       	ldd	r24, Y+9	; 0x09
    2954:	9a 85       	ldd	r25, Y+10	; 0x0a
    2956:	fc 01       	movw	r30, r24
    2958:	83 a1       	ldd	r24, Z+35	; 0x23
    295a:	94 a1       	ldd	r25, Z+36	; 0x24
    295c:	9a 83       	std	Y+2, r25	; 0x02
    295e:	89 83       	std	Y+1, r24	; 0x01
  ptr += offset;
    2960:	29 81       	ldd	r18, Y+1	; 0x01
    2962:	3a 81       	ldd	r19, Y+2	; 0x02
    2964:	8f 81       	ldd	r24, Y+7	; 0x07
    2966:	98 85       	ldd	r25, Y+8	; 0x08
    2968:	82 0f       	add	r24, r18
    296a:	93 1f       	adc	r25, r19
    296c:	9a 83       	std	Y+2, r25	; 0x02
    296e:	89 83       	std	Y+1, r24	; 0x01
  ptr += x;
    2970:	8b 85       	ldd	r24, Y+11	; 0x0b
    2972:	88 2f       	mov	r24, r24
    2974:	90 e0       	ldi	r25, 0x00	; 0
    2976:	29 81       	ldd	r18, Y+1	; 0x01
    2978:	3a 81       	ldd	r19, Y+2	; 0x02
    297a:	82 0f       	add	r24, r18
    297c:	93 1f       	adc	r25, r19
    297e:	9a 83       	std	Y+2, r25	; 0x02
    2980:	89 83       	std	Y+1, r24	; 0x01
  
  if ( dir == 0 )
    2982:	8e 85       	ldd	r24, Y+14	; 0x0e
    2984:	88 23       	and	r24, r24
    2986:	11 f5       	brne	.+68     	; 0x29cc <u8g2_ll_hvline_vertical_top_lsb+0x12a>
      do
      {
#ifdef __unix
	assert(ptr < max_ptr);
#endif
	*ptr |= or_mask;
    2988:	89 81       	ldd	r24, Y+1	; 0x01
    298a:	9a 81       	ldd	r25, Y+2	; 0x02
    298c:	fc 01       	movw	r30, r24
    298e:	90 81       	ld	r25, Z
    2990:	8c 81       	ldd	r24, Y+4	; 0x04
    2992:	29 2f       	mov	r18, r25
    2994:	28 2b       	or	r18, r24
    2996:	89 81       	ldd	r24, Y+1	; 0x01
    2998:	9a 81       	ldd	r25, Y+2	; 0x02
    299a:	fc 01       	movw	r30, r24
    299c:	20 83       	st	Z, r18
	*ptr ^= xor_mask;
    299e:	89 81       	ldd	r24, Y+1	; 0x01
    29a0:	9a 81       	ldd	r25, Y+2	; 0x02
    29a2:	fc 01       	movw	r30, r24
    29a4:	90 81       	ld	r25, Z
    29a6:	8d 81       	ldd	r24, Y+5	; 0x05
    29a8:	29 2f       	mov	r18, r25
    29aa:	28 27       	eor	r18, r24
    29ac:	89 81       	ldd	r24, Y+1	; 0x01
    29ae:	9a 81       	ldd	r25, Y+2	; 0x02
    29b0:	fc 01       	movw	r30, r24
    29b2:	20 83       	st	Z, r18
	ptr++;
    29b4:	89 81       	ldd	r24, Y+1	; 0x01
    29b6:	9a 81       	ldd	r25, Y+2	; 0x02
    29b8:	01 96       	adiw	r24, 0x01	; 1
    29ba:	9a 83       	std	Y+2, r25	; 0x02
    29bc:	89 83       	std	Y+1, r24	; 0x01
	len--;
    29be:	8d 85       	ldd	r24, Y+13	; 0x0d
    29c0:	81 50       	subi	r24, 0x01	; 1
    29c2:	8d 87       	std	Y+13, r24	; 0x0d
      } while( len != 0 );
    29c4:	8d 85       	ldd	r24, Y+13	; 0x0d
    29c6:	88 23       	and	r24, r24
    29c8:	f9 f6       	brne	.-66     	; 0x2988 <u8g2_ll_hvline_vertical_top_lsb+0xe6>
	or_mask <<= 1;
	xor_mask <<= 1;
      }
    } while( len != 0 );
  }
}
    29ca:	4d c0       	rjmp	.+154    	; 0x2a66 <u8g2_ll_hvline_vertical_top_lsb+0x1c4>
    do
    {
#ifdef __unix
      assert(ptr < max_ptr);
#endif
      *ptr |= or_mask;
    29cc:	89 81       	ldd	r24, Y+1	; 0x01
    29ce:	9a 81       	ldd	r25, Y+2	; 0x02
    29d0:	fc 01       	movw	r30, r24
    29d2:	90 81       	ld	r25, Z
    29d4:	8c 81       	ldd	r24, Y+4	; 0x04
    29d6:	29 2f       	mov	r18, r25
    29d8:	28 2b       	or	r18, r24
    29da:	89 81       	ldd	r24, Y+1	; 0x01
    29dc:	9a 81       	ldd	r25, Y+2	; 0x02
    29de:	fc 01       	movw	r30, r24
    29e0:	20 83       	st	Z, r18
      *ptr ^= xor_mask;
    29e2:	89 81       	ldd	r24, Y+1	; 0x01
    29e4:	9a 81       	ldd	r25, Y+2	; 0x02
    29e6:	fc 01       	movw	r30, r24
    29e8:	90 81       	ld	r25, Z
    29ea:	8d 81       	ldd	r24, Y+5	; 0x05
    29ec:	29 2f       	mov	r18, r25
    29ee:	28 27       	eor	r18, r24
    29f0:	89 81       	ldd	r24, Y+1	; 0x01
    29f2:	9a 81       	ldd	r25, Y+2	; 0x02
    29f4:	fc 01       	movw	r30, r24
    29f6:	20 83       	st	Z, r18
      
      bit_pos++;
    29f8:	8b 81       	ldd	r24, Y+3	; 0x03
    29fa:	8f 5f       	subi	r24, 0xFF	; 255
    29fc:	8b 83       	std	Y+3, r24	; 0x03
      bit_pos &= 7;
    29fe:	8b 81       	ldd	r24, Y+3	; 0x03
    2a00:	87 70       	andi	r24, 0x07	; 7
    2a02:	8b 83       	std	Y+3, r24	; 0x03

      len--;
    2a04:	8d 85       	ldd	r24, Y+13	; 0x0d
    2a06:	81 50       	subi	r24, 0x01	; 1
    2a08:	8d 87       	std	Y+13, r24	; 0x0d

      if ( bit_pos == 0 )
    2a0a:	8b 81       	ldd	r24, Y+3	; 0x03
    2a0c:	88 23       	and	r24, r24
    2a0e:	09 f5       	brne	.+66     	; 0x2a52 <u8g2_ll_hvline_vertical_top_lsb+0x1b0>
      {
	ptr+=u8g2->pixel_buf_width;	/* 6 Jan 17: Changed u8g2->width to u8g2->pixel_buf_width, issue #148 */
    2a10:	89 85       	ldd	r24, Y+9	; 0x09
    2a12:	9a 85       	ldd	r25, Y+10	; 0x0a
    2a14:	fc 01       	movw	r30, r24
    2a16:	87 a1       	ldd	r24, Z+39	; 0x27
    2a18:	88 2f       	mov	r24, r24
    2a1a:	90 e0       	ldi	r25, 0x00	; 0
    2a1c:	29 81       	ldd	r18, Y+1	; 0x01
    2a1e:	3a 81       	ldd	r19, Y+2	; 0x02
    2a20:	82 0f       	add	r24, r18
    2a22:	93 1f       	adc	r25, r19
    2a24:	9a 83       	std	Y+2, r25	; 0x02
    2a26:	89 83       	std	Y+1, r24	; 0x01
		
	if ( u8g2->draw_color <= 1 )
    2a28:	89 85       	ldd	r24, Y+9	; 0x09
    2a2a:	9a 85       	ldd	r25, Y+10	; 0x0a
    2a2c:	8c 59       	subi	r24, 0x9C	; 156
    2a2e:	9f 4f       	sbci	r25, 0xFF	; 255
    2a30:	fc 01       	movw	r30, r24
    2a32:	80 81       	ld	r24, Z
    2a34:	82 30       	cpi	r24, 0x02	; 2
    2a36:	10 f4       	brcc	.+4      	; 0x2a3c <u8g2_ll_hvline_vertical_top_lsb+0x19a>
	  or_mask  = 1;
    2a38:	81 e0       	ldi	r24, 0x01	; 1
    2a3a:	8c 83       	std	Y+4, r24	; 0x04
	if ( u8g2->draw_color != 1 )
    2a3c:	89 85       	ldd	r24, Y+9	; 0x09
    2a3e:	9a 85       	ldd	r25, Y+10	; 0x0a
    2a40:	8c 59       	subi	r24, 0x9C	; 156
    2a42:	9f 4f       	sbci	r25, 0xFF	; 255
    2a44:	fc 01       	movw	r30, r24
    2a46:	80 81       	ld	r24, Z
    2a48:	81 30       	cpi	r24, 0x01	; 1
    2a4a:	49 f0       	breq	.+18     	; 0x2a5e <u8g2_ll_hvline_vertical_top_lsb+0x1bc>
	  xor_mask = 1;
    2a4c:	81 e0       	ldi	r24, 0x01	; 1
    2a4e:	8d 83       	std	Y+5, r24	; 0x05
    2a50:	06 c0       	rjmp	.+12     	; 0x2a5e <u8g2_ll_hvline_vertical_top_lsb+0x1bc>
      }
      else
      {
	or_mask <<= 1;
    2a52:	8c 81       	ldd	r24, Y+4	; 0x04
    2a54:	88 0f       	add	r24, r24
    2a56:	8c 83       	std	Y+4, r24	; 0x04
	xor_mask <<= 1;
    2a58:	8d 81       	ldd	r24, Y+5	; 0x05
    2a5a:	88 0f       	add	r24, r24
    2a5c:	8d 83       	std	Y+5, r24	; 0x05
      }
    } while( len != 0 );
    2a5e:	8d 85       	ldd	r24, Y+13	; 0x0d
    2a60:	88 23       	and	r24, r24
    2a62:	09 f0       	breq	.+2      	; 0x2a66 <u8g2_ll_hvline_vertical_top_lsb+0x1c4>
    2a64:	b3 cf       	rjmp	.-154    	; 0x29cc <u8g2_ll_hvline_vertical_top_lsb+0x12a>
  }
}
    2a66:	00 00       	nop
    2a68:	2e 96       	adiw	r28, 0x0e	; 14
    2a6a:	0f b6       	in	r0, 0x3f	; 63
    2a6c:	f8 94       	cli
    2a6e:	de bf       	out	0x3e, r29	; 62
    2a70:	0f be       	out	0x3f, r0	; 63
    2a72:	cd bf       	out	0x3d, r28	; 61
    2a74:	df 91       	pop	r29
    2a76:	cf 91       	pop	r28
    2a78:	0f 91       	pop	r16
    2a7a:	08 95       	ret

00002a7c <u8g2_DrawUTF8Line>:
    u8g2_SetFontDirection(u8g2, 0);
    u8g2_SetFontPosBaseline(u8g2);

*/
void u8g2_DrawUTF8Line(u8g2_t *u8g2, u8g2_uint_t x, u8g2_uint_t y, u8g2_uint_t w, const char *s, uint8_t border_size, uint8_t is_invert)
{
    2a7c:	cf 92       	push	r12
    2a7e:	ef 92       	push	r14
    2a80:	0f 93       	push	r16
    2a82:	1f 93       	push	r17
    2a84:	cf 93       	push	r28
    2a86:	df 93       	push	r29
    2a88:	cd b7       	in	r28, 0x3d	; 61
    2a8a:	de b7       	in	r29, 0x3e	; 62
    2a8c:	2f 97       	sbiw	r28, 0x0f	; 15
    2a8e:	0f b6       	in	r0, 0x3f	; 63
    2a90:	f8 94       	cli
    2a92:	de bf       	out	0x3e, r29	; 62
    2a94:	0f be       	out	0x3f, r0	; 63
    2a96:	cd bf       	out	0x3d, r28	; 61
    2a98:	98 87       	std	Y+8, r25	; 0x08
    2a9a:	8f 83       	std	Y+7, r24	; 0x07
    2a9c:	69 87       	std	Y+9, r22	; 0x09
    2a9e:	4a 87       	std	Y+10, r20	; 0x0a
    2aa0:	2b 87       	std	Y+11, r18	; 0x0b
    2aa2:	1d 87       	std	Y+13, r17	; 0x0d
    2aa4:	0c 87       	std	Y+12, r16	; 0x0c
    2aa6:	ee 86       	std	Y+14, r14	; 0x0e
    2aa8:	cf 86       	std	Y+15, r12	; 0x0f
  u8g2_uint_t d, str_width;
  u8g2_uint_t fx, fy, fw, fh;

  /* only horizontal strings are supported, so force this here */
  u8g2_SetFontDirection(u8g2, 0);
    2aaa:	8f 81       	ldd	r24, Y+7	; 0x07
    2aac:	98 85       	ldd	r25, Y+8	; 0x08
    2aae:	60 e0       	ldi	r22, 0x00	; 0
    2ab0:	03 dd       	rcall	.-1530   	; 0x24b8 <u8g2_SetFontDirection>

  /* revert y position back to baseline ref */
  y += u8g2->font_calc_vref(u8g2);   
    2ab2:	8f 81       	ldd	r24, Y+7	; 0x07
    2ab4:	98 85       	ldd	r25, Y+8	; 0x08
    2ab6:	fc 01       	movw	r30, r24
    2ab8:	20 ad       	ldd	r18, Z+56	; 0x38
    2aba:	31 ad       	ldd	r19, Z+57	; 0x39
    2abc:	8f 81       	ldd	r24, Y+7	; 0x07
    2abe:	98 85       	ldd	r25, Y+8	; 0x08
    2ac0:	f9 01       	movw	r30, r18
    2ac2:	09 95       	icall
    2ac4:	98 2f       	mov	r25, r24
    2ac6:	8a 85       	ldd	r24, Y+10	; 0x0a
    2ac8:	89 0f       	add	r24, r25
    2aca:	8a 87       	std	Y+10, r24	; 0x0a

  /* calculate the width of the string in pixel */
  str_width = u8g2_GetUTF8Width(u8g2, s);
    2acc:	2c 85       	ldd	r18, Y+12	; 0x0c
    2ace:	3d 85       	ldd	r19, Y+13	; 0x0d
    2ad0:	8f 81       	ldd	r24, Y+7	; 0x07
    2ad2:	98 85       	ldd	r25, Y+8	; 0x08
    2ad4:	b9 01       	movw	r22, r18
    2ad6:	d2 dc       	rcall	.-1628   	; 0x247c <u8g2_GetUTF8Width>
    2ad8:	8e 83       	std	Y+6, r24	; 0x06

  /* calculate delta d within the box */
  d = 0;
    2ada:	19 82       	std	Y+1, r1	; 0x01
  if ( str_width < w )
    2adc:	9e 81       	ldd	r25, Y+6	; 0x06
    2ade:	8b 85       	ldd	r24, Y+11	; 0x0b
    2ae0:	98 17       	cp	r25, r24
    2ae2:	60 f4       	brcc	.+24     	; 0x2afc <u8g2_DrawUTF8Line+0x80>
  {
    d = w;
    2ae4:	8b 85       	ldd	r24, Y+11	; 0x0b
    2ae6:	89 83       	std	Y+1, r24	; 0x01
    d -=str_width;
    2ae8:	99 81       	ldd	r25, Y+1	; 0x01
    2aea:	8e 81       	ldd	r24, Y+6	; 0x06
    2aec:	f9 2f       	mov	r31, r25
    2aee:	f8 1b       	sub	r31, r24
    2af0:	8f 2f       	mov	r24, r31
    2af2:	89 83       	std	Y+1, r24	; 0x01
    d /= 2;
    2af4:	89 81       	ldd	r24, Y+1	; 0x01
    2af6:	86 95       	lsr	r24
    2af8:	89 83       	std	Y+1, r24	; 0x01
    2afa:	02 c0       	rjmp	.+4      	; 0x2b00 <u8g2_DrawUTF8Line+0x84>
  }
  else
  {
    w = str_width;
    2afc:	8e 81       	ldd	r24, Y+6	; 0x06
    2afe:	8b 87       	std	Y+11, r24	; 0x0b
  }

  /* caluclate text box */
  fx = x;
    2b00:	89 85       	ldd	r24, Y+9	; 0x09
    2b02:	8a 83       	std	Y+2, r24	; 0x02
  fy = y - u8g2_GetAscent(u8g2) ;
    2b04:	8f 81       	ldd	r24, Y+7	; 0x07
    2b06:	98 85       	ldd	r25, Y+8	; 0x08
    2b08:	80 5a       	subi	r24, 0xA0	; 160
    2b0a:	9f 4f       	sbci	r25, 0xFF	; 255
    2b0c:	fc 01       	movw	r30, r24
    2b0e:	80 81       	ld	r24, Z
    2b10:	98 2f       	mov	r25, r24
    2b12:	8a 85       	ldd	r24, Y+10	; 0x0a
    2b14:	89 1b       	sub	r24, r25
    2b16:	8b 83       	std	Y+3, r24	; 0x03
  fw = w;
    2b18:	8b 85       	ldd	r24, Y+11	; 0x0b
    2b1a:	8c 83       	std	Y+4, r24	; 0x04
  fh = u8g2_GetAscent(u8g2) - u8g2_GetDescent(u8g2) ;
    2b1c:	8f 81       	ldd	r24, Y+7	; 0x07
    2b1e:	98 85       	ldd	r25, Y+8	; 0x08
    2b20:	80 5a       	subi	r24, 0xA0	; 160
    2b22:	9f 4f       	sbci	r25, 0xFF	; 255
    2b24:	fc 01       	movw	r30, r24
    2b26:	80 81       	ld	r24, Z
    2b28:	28 2f       	mov	r18, r24
    2b2a:	8f 81       	ldd	r24, Y+7	; 0x07
    2b2c:	98 85       	ldd	r25, Y+8	; 0x08
    2b2e:	8f 59       	subi	r24, 0x9F	; 159
    2b30:	9f 4f       	sbci	r25, 0xFF	; 255
    2b32:	fc 01       	movw	r30, r24
    2b34:	80 81       	ld	r24, Z
    2b36:	f2 2f       	mov	r31, r18
    2b38:	f8 1b       	sub	r31, r24
    2b3a:	8f 2f       	mov	r24, r31
    2b3c:	8d 83       	std	Y+5, r24	; 0x05

  /* draw the box, if inverted */
  u8g2_SetDrawColor(u8g2, 1);
    2b3e:	8f 81       	ldd	r24, Y+7	; 0x07
    2b40:	98 85       	ldd	r25, Y+8	; 0x08
    2b42:	61 e0       	ldi	r22, 0x01	; 1
    2b44:	29 de       	rcall	.-942    	; 0x2798 <u8g2_SetDrawColor>
  if ( is_invert )
    2b46:	8f 85       	ldd	r24, Y+15	; 0x0f
    2b48:	88 23       	and	r24, r24
    2b4a:	01 f1       	breq	.+64     	; 0x2b8c <u8g2_DrawUTF8Line+0x110>
  {
    u8g2_DrawBox(u8g2, fx, fy, fw, fh);
    2b4c:	8f 81       	ldd	r24, Y+7	; 0x07
    2b4e:	98 85       	ldd	r25, Y+8	; 0x08
    2b50:	0d 81       	ldd	r16, Y+5	; 0x05
    2b52:	2c 81       	ldd	r18, Y+4	; 0x04
    2b54:	4b 81       	ldd	r20, Y+3	; 0x03
    2b56:	6a 81       	ldd	r22, Y+2	; 0x02
    2b58:	0e 94 f6 06 	call	0xdec	; 0xdec <u8g2_DrawBox>
  }

  /* draw the frame */
  while( border_size > 0 )
    2b5c:	17 c0       	rjmp	.+46     	; 0x2b8c <u8g2_DrawUTF8Line+0x110>
  {
    fx--;
    2b5e:	8a 81       	ldd	r24, Y+2	; 0x02
    2b60:	81 50       	subi	r24, 0x01	; 1
    2b62:	8a 83       	std	Y+2, r24	; 0x02
    fy--;
    2b64:	8b 81       	ldd	r24, Y+3	; 0x03
    2b66:	81 50       	subi	r24, 0x01	; 1
    2b68:	8b 83       	std	Y+3, r24	; 0x03
    fw +=2;
    2b6a:	8c 81       	ldd	r24, Y+4	; 0x04
    2b6c:	8e 5f       	subi	r24, 0xFE	; 254
    2b6e:	8c 83       	std	Y+4, r24	; 0x04
    fh +=2;
    2b70:	8d 81       	ldd	r24, Y+5	; 0x05
    2b72:	8e 5f       	subi	r24, 0xFE	; 254
    2b74:	8d 83       	std	Y+5, r24	; 0x05
    u8g2_DrawFrame(u8g2, fx, fy, fw, fh );
    2b76:	8f 81       	ldd	r24, Y+7	; 0x07
    2b78:	98 85       	ldd	r25, Y+8	; 0x08
    2b7a:	0d 81       	ldd	r16, Y+5	; 0x05
    2b7c:	2c 81       	ldd	r18, Y+4	; 0x04
    2b7e:	4b 81       	ldd	r20, Y+3	; 0x03
    2b80:	6a 81       	ldd	r22, Y+2	; 0x02
    2b82:	0e 94 33 07 	call	0xe66	; 0xe66 <u8g2_DrawFrame>
    border_size--;
    2b86:	8e 85       	ldd	r24, Y+14	; 0x0e
    2b88:	81 50       	subi	r24, 0x01	; 1
    2b8a:	8e 87       	std	Y+14, r24	; 0x0e
  {
    u8g2_DrawBox(u8g2, fx, fy, fw, fh);
  }

  /* draw the frame */
  while( border_size > 0 )
    2b8c:	8e 85       	ldd	r24, Y+14	; 0x0e
    2b8e:	88 23       	and	r24, r24
    2b90:	31 f7       	brne	.-52     	; 0x2b5e <u8g2_DrawUTF8Line+0xe2>
    fh +=2;
    u8g2_DrawFrame(u8g2, fx, fy, fw, fh );
    border_size--;
  }

  if ( is_invert )
    2b92:	8f 85       	ldd	r24, Y+15	; 0x0f
    2b94:	88 23       	and	r24, r24
    2b96:	29 f0       	breq	.+10     	; 0x2ba2 <u8g2_DrawUTF8Line+0x126>
  {
    u8g2_SetDrawColor(u8g2, 0);
    2b98:	8f 81       	ldd	r24, Y+7	; 0x07
    2b9a:	98 85       	ldd	r25, Y+8	; 0x08
    2b9c:	60 e0       	ldi	r22, 0x00	; 0
    2b9e:	fc dd       	rcall	.-1032   	; 0x2798 <u8g2_SetDrawColor>
    2ba0:	04 c0       	rjmp	.+8      	; 0x2baa <u8g2_DrawUTF8Line+0x12e>
  }
  else
  {
    u8g2_SetDrawColor(u8g2, 1);
    2ba2:	8f 81       	ldd	r24, Y+7	; 0x07
    2ba4:	98 85       	ldd	r25, Y+8	; 0x08
    2ba6:	61 e0       	ldi	r22, 0x01	; 1
    2ba8:	f7 dd       	rcall	.-1042   	; 0x2798 <u8g2_SetDrawColor>
    2baa:	99 85       	ldd	r25, Y+9	; 0x09
  }

  /* draw the text */
  u8g2_DrawUTF8(u8g2, x+d, y, s);
    2bac:	89 81       	ldd	r24, Y+1	; 0x01
    2bae:	59 2f       	mov	r21, r25
    2bb0:	58 0f       	add	r21, r24
    2bb2:	2c 85       	ldd	r18, Y+12	; 0x0c
    2bb4:	3d 85       	ldd	r19, Y+13	; 0x0d
    2bb6:	8f 81       	ldd	r24, Y+7	; 0x07
    2bb8:	98 85       	ldd	r25, Y+8	; 0x08
    2bba:	4a 85       	ldd	r20, Y+10	; 0x0a
    2bbc:	65 2f       	mov	r22, r21
    2bbe:	71 da       	rcall	.-2846   	; 0x20a2 <u8g2_DrawUTF8>

  /* revert draw color */
  u8g2_SetDrawColor(u8g2, 1);
    2bc0:	8f 81       	ldd	r24, Y+7	; 0x07
    2bc2:	98 85       	ldd	r25, Y+8	; 0x08
    2bc4:	61 e0       	ldi	r22, 0x01	; 1
    2bc6:	e8 dd       	rcall	.-1072   	; 0x2798 <u8g2_SetDrawColor>
    2bc8:	00 00       	nop

}
    2bca:	2f 96       	adiw	r28, 0x0f	; 15
    2bcc:	0f b6       	in	r0, 0x3f	; 63
    2bce:	f8 94       	cli
    2bd0:	de bf       	out	0x3e, r29	; 62
    2bd2:	0f be       	out	0x3f, r0	; 63
    2bd4:	cd bf       	out	0x3d, r28	; 61
    2bd6:	df 91       	pop	r29
    2bd8:	cf 91       	pop	r28
    2bda:	1f 91       	pop	r17
    2bdc:	0f 91       	pop	r16
    2bde:	ef 90       	pop	r14
    2be0:	cf 90       	pop	r12
    2be2:	08 95       	ret

00002be4 <u8g2_DrawUTF8Lines>:
    2be4:	cf 92       	push	r12
  lines can be centered with respect to "w"
  if s == NULL nothing is drawn and 0 is returned
  returns the number of lines in s multiplied with line_height
*/
u8g2_uint_t u8g2_DrawUTF8Lines(u8g2_t *u8g2, u8g2_uint_t x, u8g2_uint_t y, u8g2_uint_t w, u8g2_uint_t line_height, const char *s)
{
    2be6:	ef 92       	push	r14
    2be8:	ff 92       	push	r15
    2bea:	0f 93       	push	r16
    2bec:	1f 93       	push	r17
    2bee:	cf 93       	push	r28
    2bf0:	df 93       	push	r29
    2bf2:	cd b7       	in	r28, 0x3d	; 61
    2bf4:	de b7       	in	r29, 0x3e	; 62
    2bf6:	2b 97       	sbiw	r28, 0x0b	; 11
    2bf8:	0f b6       	in	r0, 0x3f	; 63
    2bfa:	f8 94       	cli
    2bfc:	de bf       	out	0x3e, r29	; 62
    2bfe:	0f be       	out	0x3f, r0	; 63
    2c00:	cd bf       	out	0x3d, r28	; 61
    2c02:	9d 83       	std	Y+5, r25	; 0x05
    2c04:	8c 83       	std	Y+4, r24	; 0x04
    2c06:	6e 83       	std	Y+6, r22	; 0x06
    2c08:	4f 83       	std	Y+7, r20	; 0x07
    2c0a:	28 87       	std	Y+8, r18	; 0x08
    2c0c:	09 87       	std	Y+9, r16	; 0x09
    2c0e:	fb 86       	std	Y+11, r15	; 0x0b
    2c10:	ea 86       	std	Y+10, r14	; 0x0a
  uint8_t i;
  uint8_t cnt;
  u8g2_uint_t yy = 0;
    2c12:	1a 82       	std	Y+2, r1	; 0x02
  cnt = u8x8_GetStringLineCnt(s);
    2c14:	8a 85       	ldd	r24, Y+10	; 0x0a
    2c16:	9b 85       	ldd	r25, Y+11	; 0x0b
    2c18:	0e 94 50 23 	call	0x46a0	; 0x46a0 <u8x8_GetStringLineCnt>
    2c1c:	8b 83       	std	Y+3, r24	; 0x03
  //printf("str=%s\n", s);
  //printf("cnt=%d, y=%d, line_height=%d\n", cnt, y, line_height);
  for( i = 0; i < cnt; i++ )
    2c1e:	19 82       	std	Y+1, r1	; 0x01
    2c20:	1b c0       	rjmp	.+54     	; 0x2c58 <u8g2_DrawUTF8Lines+0x74>
  {
    //printf("  i=%d, y=%d, line_height=%d\n", i, y, line_height);
    u8g2_DrawUTF8Line(u8g2, x, y, w, u8x8_GetStringLineStart(i, s), 0, 0);
    2c22:	8a 85       	ldd	r24, Y+10	; 0x0a
    2c24:	9b 85       	ldd	r25, Y+11	; 0x0b
    2c26:	bc 01       	movw	r22, r24
    2c28:	89 81       	ldd	r24, Y+1	; 0x01
    2c2a:	0e 94 7d 23 	call	0x46fa	; 0x46fa <u8x8_GetStringLineStart>
    2c2e:	9c 01       	movw	r18, r24
    2c30:	8c 81       	ldd	r24, Y+4	; 0x04
    2c32:	9d 81       	ldd	r25, Y+5	; 0x05
    2c34:	c1 2c       	mov	r12, r1
    2c36:	e1 2c       	mov	r14, r1
    2c38:	89 01       	movw	r16, r18
    2c3a:	28 85       	ldd	r18, Y+8	; 0x08
    2c3c:	4f 81       	ldd	r20, Y+7	; 0x07
    2c3e:	6e 81       	ldd	r22, Y+6	; 0x06
    2c40:	1d df       	rcall	.-454    	; 0x2a7c <u8g2_DrawUTF8Line>
    y+=line_height;
    2c42:	9f 81       	ldd	r25, Y+7	; 0x07
    2c44:	89 85       	ldd	r24, Y+9	; 0x09
    2c46:	89 0f       	add	r24, r25
    2c48:	8f 83       	std	Y+7, r24	; 0x07
    yy+=line_height;
    2c4a:	9a 81       	ldd	r25, Y+2	; 0x02
    2c4c:	89 85       	ldd	r24, Y+9	; 0x09
    2c4e:	89 0f       	add	r24, r25
    2c50:	8a 83       	std	Y+2, r24	; 0x02
  uint8_t cnt;
  u8g2_uint_t yy = 0;
  cnt = u8x8_GetStringLineCnt(s);
  //printf("str=%s\n", s);
  //printf("cnt=%d, y=%d, line_height=%d\n", cnt, y, line_height);
  for( i = 0; i < cnt; i++ )
    2c52:	89 81       	ldd	r24, Y+1	; 0x01
    2c54:	8f 5f       	subi	r24, 0xFF	; 255
    2c56:	89 83       	std	Y+1, r24	; 0x01
    2c58:	99 81       	ldd	r25, Y+1	; 0x01
    2c5a:	8b 81       	ldd	r24, Y+3	; 0x03
    2c5c:	98 17       	cp	r25, r24
    2c5e:	08 f3       	brcs	.-62     	; 0x2c22 <u8g2_DrawUTF8Lines+0x3e>
    //printf("  i=%d, y=%d, line_height=%d\n", i, y, line_height);
    u8g2_DrawUTF8Line(u8g2, x, y, w, u8x8_GetStringLineStart(i, s), 0, 0);
    y+=line_height;
    yy+=line_height;
  }
  return yy;
    2c60:	8a 81       	ldd	r24, Y+2	; 0x02
}
    2c62:	2b 96       	adiw	r28, 0x0b	; 11
    2c64:	0f b6       	in	r0, 0x3f	; 63
    2c66:	f8 94       	cli
    2c68:	de bf       	out	0x3e, r29	; 62
    2c6a:	0f be       	out	0x3f, r0	; 63
    2c6c:	cd bf       	out	0x3d, r28	; 61
    2c6e:	df 91       	pop	r29
    2c70:	cf 91       	pop	r28
    2c72:	1f 91       	pop	r17
    2c74:	0f 91       	pop	r16
    2c76:	ff 90       	pop	r15
    2c78:	ef 90       	pop	r14
    2c7a:	cf 90       	pop	r12
    2c7c:	08 95       	ret

00002c7e <u8g2_draw_selection_list_line>:
  selection list with string line
  returns line height
*/
static u8g2_uint_t u8g2_draw_selection_list_line(u8g2_t *u8g2, u8sl_t *u8sl, u8g2_uint_t y, uint8_t idx, const char *s) U8G2_NOINLINE;
static u8g2_uint_t u8g2_draw_selection_list_line(u8g2_t *u8g2, u8sl_t *u8sl, u8g2_uint_t y, uint8_t idx, const char *s)
{
    2c7e:	cf 92       	push	r12
    2c80:	ef 92       	push	r14
    2c82:	0f 93       	push	r16
    2c84:	1f 93       	push	r17
    2c86:	cf 93       	push	r28
    2c88:	df 93       	push	r29
    2c8a:	cd b7       	in	r28, 0x3d	; 61
    2c8c:	de b7       	in	r29, 0x3e	; 62
    2c8e:	2c 97       	sbiw	r28, 0x0c	; 12
    2c90:	0f b6       	in	r0, 0x3f	; 63
    2c92:	f8 94       	cli
    2c94:	de bf       	out	0x3e, r29	; 62
    2c96:	0f be       	out	0x3f, r0	; 63
    2c98:	cd bf       	out	0x3d, r28	; 61
    2c9a:	9e 83       	std	Y+6, r25	; 0x06
    2c9c:	8d 83       	std	Y+5, r24	; 0x05
    2c9e:	78 87       	std	Y+8, r23	; 0x08
    2ca0:	6f 83       	std	Y+7, r22	; 0x07
    2ca2:	49 87       	std	Y+9, r20	; 0x09
    2ca4:	2a 87       	std	Y+10, r18	; 0x0a
    2ca6:	1c 87       	std	Y+12, r17	; 0x0c
    2ca8:	0b 87       	std	Y+11, r16	; 0x0b
  u8g2_uint_t yy;
  uint8_t border_size = 0;
    2caa:	19 82       	std	Y+1, r1	; 0x01
  uint8_t is_invert = 0;
    2cac:	1a 82       	std	Y+2, r1	; 0x02
	
  u8g2_uint_t line_height = u8g2_GetAscent(u8g2) - u8g2_GetDescent(u8g2)+MY_BORDER_SIZE;
    2cae:	8d 81       	ldd	r24, Y+5	; 0x05
    2cb0:	9e 81       	ldd	r25, Y+6	; 0x06
    2cb2:	80 5a       	subi	r24, 0xA0	; 160
    2cb4:	9f 4f       	sbci	r25, 0xFF	; 255
    2cb6:	fc 01       	movw	r30, r24
    2cb8:	80 81       	ld	r24, Z
    2cba:	28 2f       	mov	r18, r24
    2cbc:	8d 81       	ldd	r24, Y+5	; 0x05
    2cbe:	9e 81       	ldd	r25, Y+6	; 0x06
    2cc0:	8f 59       	subi	r24, 0x9F	; 159
    2cc2:	9f 4f       	sbci	r25, 0xFF	; 255
    2cc4:	fc 01       	movw	r30, r24
    2cc6:	80 81       	ld	r24, Z
    2cc8:	f2 2f       	mov	r31, r18
    2cca:	f8 1b       	sub	r31, r24
    2ccc:	8f 2f       	mov	r24, r31
    2cce:	8f 5f       	subi	r24, 0xFF	; 255
    2cd0:	8b 83       	std	Y+3, r24	; 0x03

  /* calculate offset from display upper border */
  yy = idx;
    2cd2:	8a 85       	ldd	r24, Y+10	; 0x0a
    2cd4:	8c 83       	std	Y+4, r24	; 0x04
  yy -= u8sl->first_pos;
    2cd6:	8f 81       	ldd	r24, Y+7	; 0x07
    2cd8:	98 85       	ldd	r25, Y+8	; 0x08
    2cda:	fc 01       	movw	r30, r24
    2cdc:	82 81       	ldd	r24, Z+2	; 0x02
    2cde:	9c 81       	ldd	r25, Y+4	; 0x04
    2ce0:	f9 2f       	mov	r31, r25
    2ce2:	f8 1b       	sub	r31, r24
    2ce4:	8f 2f       	mov	r24, r31
    2ce6:	8c 83       	std	Y+4, r24	; 0x04
  yy *= line_height;
    2ce8:	9c 81       	ldd	r25, Y+4	; 0x04
    2cea:	8b 81       	ldd	r24, Y+3	; 0x03
    2cec:	98 9f       	mul	r25, r24
    2cee:	80 2d       	mov	r24, r0
    2cf0:	11 24       	eor	r1, r1
    2cf2:	8c 83       	std	Y+4, r24	; 0x04
  yy += y;
    2cf4:	9c 81       	ldd	r25, Y+4	; 0x04
    2cf6:	89 85       	ldd	r24, Y+9	; 0x09
    2cf8:	89 0f       	add	r24, r25
    2cfa:	8c 83       	std	Y+4, r24	; 0x04

  /* check whether this is the current cursor line */
  if ( idx == u8sl->current_pos )
    2cfc:	8f 81       	ldd	r24, Y+7	; 0x07
    2cfe:	98 85       	ldd	r25, Y+8	; 0x08
    2d00:	fc 01       	movw	r30, r24
    2d02:	93 81       	ldd	r25, Z+3	; 0x03
    2d04:	8a 85       	ldd	r24, Y+10	; 0x0a
    2d06:	98 17       	cp	r25, r24
    2d08:	21 f4       	brne	.+8      	; 0x2d12 <u8g2_draw_selection_list_line+0x94>
  {
    border_size = MY_BORDER_SIZE;
    2d0a:	81 e0       	ldi	r24, 0x01	; 1
    2d0c:	89 83       	std	Y+1, r24	; 0x01
    is_invert = 1;
    2d0e:	81 e0       	ldi	r24, 0x01	; 1
    2d10:	8a 83       	std	Y+2, r24	; 0x02
  }

  /* get the line from the array */
  s = u8x8_GetStringLineStart(idx, s);
    2d12:	8b 85       	ldd	r24, Y+11	; 0x0b
    2d14:	9c 85       	ldd	r25, Y+12	; 0x0c
    2d16:	bc 01       	movw	r22, r24
    2d18:	8a 85       	ldd	r24, Y+10	; 0x0a
    2d1a:	0e 94 7d 23 	call	0x46fa	; 0x46fa <u8x8_GetStringLineStart>
    2d1e:	9c 87       	std	Y+12, r25	; 0x0c
    2d20:	8b 87       	std	Y+11, r24	; 0x0b

  /* draw the line */
  if ( s == NULL )
    2d22:	8b 85       	ldd	r24, Y+11	; 0x0b
    2d24:	9c 85       	ldd	r25, Y+12	; 0x0c
    2d26:	89 2b       	or	r24, r25
    2d28:	21 f4       	brne	.+8      	; 0x2d32 <u8g2_draw_selection_list_line+0xb4>
    s = "";
    2d2a:	83 e2       	ldi	r24, 0x23	; 35
    2d2c:	91 e0       	ldi	r25, 0x01	; 1
    2d2e:	9c 87       	std	Y+12, r25	; 0x0c
    2d30:	8b 87       	std	Y+11, r24	; 0x0b
  u8g2_DrawUTF8Line(u8g2, MY_BORDER_SIZE, y, u8g2_GetDisplayWidth(u8g2)-2*MY_BORDER_SIZE, s, border_size, is_invert);
    2d32:	8d 81       	ldd	r24, Y+5	; 0x05
    2d34:	9e 81       	ldd	r25, Y+6	; 0x06
    2d36:	fc 01       	movw	r30, r24
    2d38:	84 a5       	ldd	r24, Z+44	; 0x2c
    2d3a:	4e ef       	ldi	r20, 0xFE	; 254
    2d3c:	48 0f       	add	r20, r24
    2d3e:	2b 85       	ldd	r18, Y+11	; 0x0b
    2d40:	3c 85       	ldd	r19, Y+12	; 0x0c
    2d42:	8d 81       	ldd	r24, Y+5	; 0x05
    2d44:	9e 81       	ldd	r25, Y+6	; 0x06
    2d46:	ca 80       	ldd	r12, Y+2	; 0x02
    2d48:	e9 80       	ldd	r14, Y+1	; 0x01
    2d4a:	89 01       	movw	r16, r18
    2d4c:	24 2f       	mov	r18, r20
    2d4e:	49 85       	ldd	r20, Y+9	; 0x09
    2d50:	61 e0       	ldi	r22, 0x01	; 1
    2d52:	94 de       	rcall	.-728    	; 0x2a7c <u8g2_DrawUTF8Line>
  return line_height;
    2d54:	8b 81       	ldd	r24, Y+3	; 0x03
}
    2d56:	2c 96       	adiw	r28, 0x0c	; 12
    2d58:	0f b6       	in	r0, 0x3f	; 63
    2d5a:	f8 94       	cli
    2d5c:	de bf       	out	0x3e, r29	; 62
    2d5e:	0f be       	out	0x3f, r0	; 63
    2d60:	cd bf       	out	0x3d, r28	; 61
    2d62:	df 91       	pop	r29
    2d64:	cf 91       	pop	r28
    2d66:	1f 91       	pop	r17
    2d68:	0f 91       	pop	r16
    2d6a:	ef 90       	pop	r14
    2d6c:	cf 90       	pop	r12
    2d6e:	08 95       	ret

00002d70 <u8g2_DrawSelectionList>:

void u8g2_DrawSelectionList(u8g2_t *u8g2, u8sl_t *u8sl, u8g2_uint_t y, const char *s)
{
    2d70:	0f 93       	push	r16
    2d72:	1f 93       	push	r17
    2d74:	cf 93       	push	r28
    2d76:	df 93       	push	r29
    2d78:	cd b7       	in	r28, 0x3d	; 61
    2d7a:	de b7       	in	r29, 0x3e	; 62
    2d7c:	28 97       	sbiw	r28, 0x08	; 8
    2d7e:	0f b6       	in	r0, 0x3f	; 63
    2d80:	f8 94       	cli
    2d82:	de bf       	out	0x3e, r29	; 62
    2d84:	0f be       	out	0x3f, r0	; 63
    2d86:	cd bf       	out	0x3d, r28	; 61
    2d88:	9b 83       	std	Y+3, r25	; 0x03
    2d8a:	8a 83       	std	Y+2, r24	; 0x02
    2d8c:	7d 83       	std	Y+5, r23	; 0x05
    2d8e:	6c 83       	std	Y+4, r22	; 0x04
    2d90:	4e 83       	std	Y+6, r20	; 0x06
    2d92:	38 87       	std	Y+8, r19	; 0x08
    2d94:	2f 83       	std	Y+7, r18	; 0x07
  uint8_t i;
  for( i = 0; i < u8sl->visible; i++ )
    2d96:	19 82       	std	Y+1, r1	; 0x01
    2d98:	18 c0       	rjmp	.+48     	; 0x2dca <u8g2_DrawSelectionList+0x5a>
  {
    y += u8g2_draw_selection_list_line(u8g2, u8sl, y, i+u8sl->first_pos, s);
    2d9a:	8c 81       	ldd	r24, Y+4	; 0x04
    2d9c:	9d 81       	ldd	r25, Y+5	; 0x05
    2d9e:	fc 01       	movw	r30, r24
    2da0:	92 81       	ldd	r25, Z+2	; 0x02
    2da2:	89 81       	ldd	r24, Y+1	; 0x01
    2da4:	49 2f       	mov	r20, r25
    2da6:	48 0f       	add	r20, r24
    2da8:	2f 81       	ldd	r18, Y+7	; 0x07
    2daa:	38 85       	ldd	r19, Y+8	; 0x08
    2dac:	6c 81       	ldd	r22, Y+4	; 0x04
    2dae:	7d 81       	ldd	r23, Y+5	; 0x05
    2db0:	8a 81       	ldd	r24, Y+2	; 0x02
    2db2:	9b 81       	ldd	r25, Y+3	; 0x03
    2db4:	89 01       	movw	r16, r18
    2db6:	24 2f       	mov	r18, r20
    2db8:	4e 81       	ldd	r20, Y+6	; 0x06
    2dba:	61 df       	rcall	.-318    	; 0x2c7e <u8g2_draw_selection_list_line>
    2dbc:	98 2f       	mov	r25, r24
    2dbe:	8e 81       	ldd	r24, Y+6	; 0x06
    2dc0:	89 0f       	add	r24, r25
    2dc2:	8e 83       	std	Y+6, r24	; 0x06
}

void u8g2_DrawSelectionList(u8g2_t *u8g2, u8sl_t *u8sl, u8g2_uint_t y, const char *s)
{
  uint8_t i;
  for( i = 0; i < u8sl->visible; i++ )
    2dc4:	89 81       	ldd	r24, Y+1	; 0x01
    2dc6:	8f 5f       	subi	r24, 0xFF	; 255
    2dc8:	89 83       	std	Y+1, r24	; 0x01
    2dca:	8c 81       	ldd	r24, Y+4	; 0x04
    2dcc:	9d 81       	ldd	r25, Y+5	; 0x05
    2dce:	fc 01       	movw	r30, r24
    2dd0:	90 81       	ld	r25, Z
    2dd2:	89 81       	ldd	r24, Y+1	; 0x01
    2dd4:	89 17       	cp	r24, r25
    2dd6:	08 f3       	brcs	.-62     	; 0x2d9a <u8g2_DrawSelectionList+0x2a>
  {
    y += u8g2_draw_selection_list_line(u8g2, u8sl, y, i+u8sl->first_pos, s);
  }
}
    2dd8:	00 00       	nop
    2dda:	28 96       	adiw	r28, 0x08	; 8
    2ddc:	0f b6       	in	r0, 0x3f	; 63
    2dde:	f8 94       	cli
    2de0:	de bf       	out	0x3e, r29	; 62
    2de2:	0f be       	out	0x3f, r0	; 63
    2de4:	cd bf       	out	0x3d, r28	; 61
    2de6:	df 91       	pop	r29
    2de8:	cf 91       	pop	r28
    2dea:	1f 91       	pop	r17
    2dec:	0f 91       	pop	r16
    2dee:	08 95       	ret

00002df0 <u8g2_UserInterfaceSelectionList>:
    u8g2_SetFontDirection(u8g2, 0);
    u8g2_SetFontPosBaseline(u8g2);
	
*/
uint8_t u8g2_UserInterfaceSelectionList(u8g2_t *u8g2, const char *title, uint8_t start_pos, const char *sl)
{
    2df0:	ef 92       	push	r14
    2df2:	ff 92       	push	r15
    2df4:	0f 93       	push	r16
    2df6:	cf 93       	push	r28
    2df8:	df 93       	push	r29
    2dfa:	cd b7       	in	r28, 0x3d	; 61
    2dfc:	de b7       	in	r29, 0x3e	; 62
    2dfe:	62 97       	sbiw	r28, 0x12	; 18
    2e00:	0f b6       	in	r0, 0x3f	; 63
    2e02:	f8 94       	cli
    2e04:	de bf       	out	0x3e, r29	; 62
    2e06:	0f be       	out	0x3f, r0	; 63
    2e08:	cd bf       	out	0x3d, r28	; 61
    2e0a:	9d 87       	std	Y+13, r25	; 0x0d
    2e0c:	8c 87       	std	Y+12, r24	; 0x0c
    2e0e:	7f 87       	std	Y+15, r23	; 0x0f
    2e10:	6e 87       	std	Y+14, r22	; 0x0e
    2e12:	48 8b       	std	Y+16, r20	; 0x10
    2e14:	3a 8b       	std	Y+18, r19	; 0x12
    2e16:	29 8b       	std	Y+17, r18	; 0x11
  u8sl_t u8sl;
  u8g2_uint_t yy;

  uint8_t event;

  u8g2_uint_t line_height = u8g2_GetAscent(u8g2) - u8g2_GetDescent(u8g2)+MY_BORDER_SIZE;
    2e18:	8c 85       	ldd	r24, Y+12	; 0x0c
    2e1a:	9d 85       	ldd	r25, Y+13	; 0x0d
    2e1c:	80 5a       	subi	r24, 0xA0	; 160
    2e1e:	9f 4f       	sbci	r25, 0xFF	; 255
    2e20:	fc 01       	movw	r30, r24
    2e22:	80 81       	ld	r24, Z
    2e24:	28 2f       	mov	r18, r24
    2e26:	8c 85       	ldd	r24, Y+12	; 0x0c
    2e28:	9d 85       	ldd	r25, Y+13	; 0x0d
    2e2a:	8f 59       	subi	r24, 0x9F	; 159
    2e2c:	9f 4f       	sbci	r25, 0xFF	; 255
    2e2e:	fc 01       	movw	r30, r24
    2e30:	80 81       	ld	r24, Z
    2e32:	f2 2f       	mov	r31, r18
    2e34:	f8 1b       	sub	r31, r24
    2e36:	8f 2f       	mov	r24, r31
    2e38:	8f 5f       	subi	r24, 0xFF	; 255
    2e3a:	8a 83       	std	Y+2, r24	; 0x02

  uint8_t title_lines = u8x8_GetStringLineCnt(title);
    2e3c:	8e 85       	ldd	r24, Y+14	; 0x0e
    2e3e:	9f 85       	ldd	r25, Y+15	; 0x0f
    2e40:	0e 94 50 23 	call	0x46a0	; 0x46a0 <u8x8_GetStringLineCnt>
    2e44:	8b 83       	std	Y+3, r24	; 0x03
  uint8_t display_lines;

  
  if ( start_pos > 0 )	/* issue 112 */
    2e46:	88 89       	ldd	r24, Y+16	; 0x10
    2e48:	88 23       	and	r24, r24
    2e4a:	19 f0       	breq	.+6      	; 0x2e52 <u8g2_UserInterfaceSelectionList+0x62>
    start_pos--;		/* issue 112 */
    2e4c:	88 89       	ldd	r24, Y+16	; 0x10
    2e4e:	81 50       	subi	r24, 0x01	; 1
    2e50:	88 8b       	std	Y+16, r24	; 0x10


  if ( title_lines > 0 )
    2e52:	8b 81       	ldd	r24, Y+3	; 0x03
    2e54:	88 23       	and	r24, r24
    2e56:	c1 f0       	breq	.+48     	; 0x2e88 <u8g2_UserInterfaceSelectionList+0x98>
  {
	display_lines = (u8g2_GetDisplayHeight(u8g2)-3) / line_height;
    2e58:	8c 85       	ldd	r24, Y+12	; 0x0c
    2e5a:	9d 85       	ldd	r25, Y+13	; 0x0d
    2e5c:	fc 01       	movw	r30, r24
    2e5e:	85 a5       	ldd	r24, Z+45	; 0x2d
    2e60:	88 2f       	mov	r24, r24
    2e62:	90 e0       	ldi	r25, 0x00	; 0
    2e64:	03 97       	sbiw	r24, 0x03	; 3
    2e66:	2a 81       	ldd	r18, Y+2	; 0x02
    2e68:	22 2f       	mov	r18, r18
    2e6a:	30 e0       	ldi	r19, 0x00	; 0
    2e6c:	b9 01       	movw	r22, r18
    2e6e:	0e 94 35 25 	call	0x4a6a	; 0x4a6a <__divmodhi4>
    2e72:	cb 01       	movw	r24, r22
    2e74:	8c 83       	std	Y+4, r24	; 0x04
	u8sl.visible = display_lines;
    2e76:	8c 81       	ldd	r24, Y+4	; 0x04
    2e78:	8e 83       	std	Y+6, r24	; 0x06
	u8sl.visible -= title_lines;
    2e7a:	9e 81       	ldd	r25, Y+6	; 0x06
    2e7c:	8b 81       	ldd	r24, Y+3	; 0x03
    2e7e:	f9 2f       	mov	r31, r25
    2e80:	f8 1b       	sub	r31, r24
    2e82:	8f 2f       	mov	r24, r31
    2e84:	8e 83       	std	Y+6, r24	; 0x06
    2e86:	0b c0       	rjmp	.+22     	; 0x2e9e <u8g2_UserInterfaceSelectionList+0xae>
  }
  else
  {
	display_lines = u8g2_GetDisplayHeight(u8g2) / line_height;
    2e88:	8c 85       	ldd	r24, Y+12	; 0x0c
    2e8a:	9d 85       	ldd	r25, Y+13	; 0x0d
    2e8c:	fc 01       	movw	r30, r24
    2e8e:	85 a5       	ldd	r24, Z+45	; 0x2d
    2e90:	9a 81       	ldd	r25, Y+2	; 0x02
    2e92:	69 2f       	mov	r22, r25
    2e94:	0e 94 29 25 	call	0x4a52	; 0x4a52 <__udivmodqi4>
    2e98:	8c 83       	std	Y+4, r24	; 0x04
	u8sl.visible = display_lines;
    2e9a:	8c 81       	ldd	r24, Y+4	; 0x04
    2e9c:	8e 83       	std	Y+6, r24	; 0x06
  }

  u8sl.total = u8x8_GetStringLineCnt(sl);
    2e9e:	89 89       	ldd	r24, Y+17	; 0x11
    2ea0:	9a 89       	ldd	r25, Y+18	; 0x12
    2ea2:	0e 94 50 23 	call	0x46a0	; 0x46a0 <u8x8_GetStringLineCnt>
    2ea6:	8f 83       	std	Y+7, r24	; 0x07
  u8sl.first_pos = 0;
    2ea8:	18 86       	std	Y+8, r1	; 0x08
  u8sl.current_pos = start_pos;
    2eaa:	88 89       	ldd	r24, Y+16	; 0x10
    2eac:	89 87       	std	Y+9, r24	; 0x09

  if ( u8sl.current_pos >= u8sl.total )
    2eae:	99 85       	ldd	r25, Y+9	; 0x09
    2eb0:	8f 81       	ldd	r24, Y+7	; 0x07
    2eb2:	98 17       	cp	r25, r24
    2eb4:	18 f0       	brcs	.+6      	; 0x2ebc <u8g2_UserInterfaceSelectionList+0xcc>
    u8sl.current_pos = u8sl.total-1;
    2eb6:	8f 81       	ldd	r24, Y+7	; 0x07
    2eb8:	81 50       	subi	r24, 0x01	; 1
    2eba:	89 87       	std	Y+9, r24	; 0x09
  if ( u8sl.first_pos+u8sl.visible <= u8sl.current_pos )
    2ebc:	88 85       	ldd	r24, Y+8	; 0x08
    2ebe:	28 2f       	mov	r18, r24
    2ec0:	30 e0       	ldi	r19, 0x00	; 0
    2ec2:	8e 81       	ldd	r24, Y+6	; 0x06
    2ec4:	88 2f       	mov	r24, r24
    2ec6:	90 e0       	ldi	r25, 0x00	; 0
    2ec8:	28 0f       	add	r18, r24
    2eca:	39 1f       	adc	r19, r25
    2ecc:	89 85       	ldd	r24, Y+9	; 0x09
    2ece:	88 2f       	mov	r24, r24
    2ed0:	90 e0       	ldi	r25, 0x00	; 0
    2ed2:	82 17       	cp	r24, r18
    2ed4:	93 07       	cpc	r25, r19
    2ed6:	3c f0       	brlt	.+14     	; 0x2ee6 <u8g2_UserInterfaceSelectionList+0xf6>
    u8sl.first_pos = u8sl.current_pos-u8sl.visible+1;
    2ed8:	99 85       	ldd	r25, Y+9	; 0x09
    2eda:	8e 81       	ldd	r24, Y+6	; 0x06
    2edc:	f9 2f       	mov	r31, r25
    2ede:	f8 1b       	sub	r31, r24
    2ee0:	8f 2f       	mov	r24, r31
    2ee2:	8f 5f       	subi	r24, 0xFF	; 255
    2ee4:	88 87       	std	Y+8, r24	; 0x08

  u8g2_SetFontPosBaseline(u8g2);
    2ee6:	8c 85       	ldd	r24, Y+12	; 0x0c
    2ee8:	9d 85       	ldd	r25, Y+13	; 0x0d
    2eea:	e7 d9       	rcall	.-3122   	; 0x22ba <u8g2_SetFontPosBaseline>
  
  for(;;)
  {
      u8g2_FirstPage(u8g2);
    2eec:	8c 85       	ldd	r24, Y+12	; 0x0c
    2eee:	9d 85       	ldd	r25, Y+13	; 0x0d
    2ef0:	0e 94 93 08 	call	0x1126	; 0x1126 <u8g2_FirstPage>
      do
      {
        yy = u8g2_GetAscent(u8g2);
    2ef4:	8c 85       	ldd	r24, Y+12	; 0x0c
    2ef6:	9d 85       	ldd	r25, Y+13	; 0x0d
    2ef8:	80 5a       	subi	r24, 0xA0	; 160
    2efa:	9f 4f       	sbci	r25, 0xFF	; 255
    2efc:	fc 01       	movw	r30, r24
    2efe:	80 81       	ld	r24, Z
    2f00:	89 83       	std	Y+1, r24	; 0x01
        if ( title_lines > 0 )
    2f02:	8b 81       	ldd	r24, Y+3	; 0x03
    2f04:	88 23       	and	r24, r24
    2f06:	71 f1       	breq	.+92     	; 0x2f64 <u8g2_UserInterfaceSelectionList+0x174>
        {
          yy += u8g2_DrawUTF8Lines(u8g2, 0, yy, u8g2_GetDisplayWidth(u8g2), line_height, title);
    2f08:	8c 85       	ldd	r24, Y+12	; 0x0c
    2f0a:	9d 85       	ldd	r25, Y+13	; 0x0d
    2f0c:	fc 01       	movw	r30, r24
    2f0e:	44 a5       	ldd	r20, Z+44	; 0x2c
    2f10:	2e 85       	ldd	r18, Y+14	; 0x0e
    2f12:	3f 85       	ldd	r19, Y+15	; 0x0f
    2f14:	8c 85       	ldd	r24, Y+12	; 0x0c
    2f16:	9d 85       	ldd	r25, Y+13	; 0x0d
    2f18:	79 01       	movw	r14, r18
    2f1a:	0a 81       	ldd	r16, Y+2	; 0x02
    2f1c:	24 2f       	mov	r18, r20
    2f1e:	49 81       	ldd	r20, Y+1	; 0x01
    2f20:	60 e0       	ldi	r22, 0x00	; 0
    2f22:	60 de       	rcall	.-832    	; 0x2be4 <u8g2_DrawUTF8Lines>
    2f24:	98 2f       	mov	r25, r24
    2f26:	89 81       	ldd	r24, Y+1	; 0x01
    2f28:	89 0f       	add	r24, r25
    2f2a:	89 83       	std	Y+1, r24	; 0x01
		
	  u8g2_DrawHLine(u8g2, 0, yy-line_height- u8g2_GetDescent(u8g2) + 1, u8g2_GetDisplayWidth(u8g2));
    2f2c:	8c 85       	ldd	r24, Y+12	; 0x0c
    2f2e:	9d 85       	ldd	r25, Y+13	; 0x0d
    2f30:	fc 01       	movw	r30, r24
    2f32:	44 a5       	ldd	r20, Z+44	; 0x2c
    2f34:	99 81       	ldd	r25, Y+1	; 0x01
    2f36:	8a 81       	ldd	r24, Y+2	; 0x02
    2f38:	29 2f       	mov	r18, r25
    2f3a:	28 1b       	sub	r18, r24
    2f3c:	8c 85       	ldd	r24, Y+12	; 0x0c
    2f3e:	9d 85       	ldd	r25, Y+13	; 0x0d
    2f40:	8f 59       	subi	r24, 0x9F	; 159
    2f42:	9f 4f       	sbci	r25, 0xFF	; 255
    2f44:	fc 01       	movw	r30, r24
    2f46:	80 81       	ld	r24, Z
    2f48:	f2 2f       	mov	r31, r18
    2f4a:	f8 1b       	sub	r31, r24
    2f4c:	8f 2f       	mov	r24, r31
    2f4e:	31 e0       	ldi	r19, 0x01	; 1
    2f50:	38 0f       	add	r19, r24
    2f52:	8c 85       	ldd	r24, Y+12	; 0x0c
    2f54:	9d 85       	ldd	r25, Y+13	; 0x0d
    2f56:	24 2f       	mov	r18, r20
    2f58:	43 2f       	mov	r20, r19
    2f5a:	60 e0       	ldi	r22, 0x00	; 0
    2f5c:	ff db       	rcall	.-2050   	; 0x275c <u8g2_DrawHLine>
		
	  yy += 3;
    2f5e:	89 81       	ldd	r24, Y+1	; 0x01
    2f60:	8d 5f       	subi	r24, 0xFD	; 253
    2f62:	89 83       	std	Y+1, r24	; 0x01
        }
        u8g2_DrawSelectionList(u8g2, &u8sl, yy, sl);
    2f64:	29 89       	ldd	r18, Y+17	; 0x11
    2f66:	3a 89       	ldd	r19, Y+18	; 0x12
    2f68:	be 01       	movw	r22, r28
    2f6a:	6a 5f       	subi	r22, 0xFA	; 250
    2f6c:	7f 4f       	sbci	r23, 0xFF	; 255
    2f6e:	8c 85       	ldd	r24, Y+12	; 0x0c
    2f70:	9d 85       	ldd	r25, Y+13	; 0x0d
    2f72:	49 81       	ldd	r20, Y+1	; 0x01
    2f74:	fd de       	rcall	.-518    	; 0x2d70 <u8g2_DrawSelectionList>
      } while( u8g2_NextPage(u8g2) );
    2f76:	8c 85       	ldd	r24, Y+12	; 0x0c
    2f78:	9d 85       	ldd	r25, Y+13	; 0x0d
    2f7a:	0e 94 af 08 	call	0x115e	; 0x115e <u8g2_NextPage>
    2f7e:	88 23       	and	r24, r24
    2f80:	09 f0       	breq	.+2      	; 0x2f84 <u8g2_UserInterfaceSelectionList+0x194>
#endif


      for(;;)
      {
        event = u8x8_GetMenuEvent(u8g2_GetU8x8(u8g2));
    2f82:	b8 cf       	rjmp	.-144    	; 0x2ef4 <u8g2_UserInterfaceSelectionList+0x104>
    2f84:	8c 85       	ldd	r24, Y+12	; 0x0c
    2f86:	9d 85       	ldd	r25, Y+13	; 0x0d
    2f88:	6d d7       	rcall	.+3802   	; 0x3e64 <u8x8_GetMenuEvent>
    2f8a:	8d 83       	std	Y+5, r24	; 0x05
        if ( event == U8X8_MSG_GPIO_MENU_SELECT )
    2f8c:	8d 81       	ldd	r24, Y+5	; 0x05
    2f8e:	80 35       	cpi	r24, 0x50	; 80
    2f90:	19 f4       	brne	.+6      	; 0x2f98 <u8g2_UserInterfaceSelectionList+0x1a8>
          return u8sl.current_pos+1;		/* +1, issue 112 */
    2f92:	89 85       	ldd	r24, Y+9	; 0x09
    2f94:	8f 5f       	subi	r24, 0xFF	; 255
    2f96:	1b c0       	rjmp	.+54     	; 0x2fce <u8g2_UserInterfaceSelectionList+0x1de>
        else if ( event == U8X8_MSG_GPIO_MENU_HOME )
    2f98:	8d 81       	ldd	r24, Y+5	; 0x05
    2f9a:	83 35       	cpi	r24, 0x53	; 83
    2f9c:	11 f4       	brne	.+4      	; 0x2fa2 <u8g2_UserInterfaceSelectionList+0x1b2>
          return 0;				/* issue 112: return 0 instead of start_pos */
    2f9e:	80 e0       	ldi	r24, 0x00	; 0
    2fa0:	16 c0       	rjmp	.+44     	; 0x2fce <u8g2_UserInterfaceSelectionList+0x1de>
        else if ( event == U8X8_MSG_GPIO_MENU_NEXT || event == U8X8_MSG_GPIO_MENU_DOWN )
    2fa2:	8d 81       	ldd	r24, Y+5	; 0x05
    2fa4:	81 35       	cpi	r24, 0x51	; 81
    2fa6:	19 f0       	breq	.+6      	; 0x2fae <u8g2_UserInterfaceSelectionList+0x1be>
    2fa8:	8d 81       	ldd	r24, Y+5	; 0x05
    2faa:	85 35       	cpi	r24, 0x55	; 85
    2fac:	29 f4       	brne	.+10     	; 0x2fb8 <u8g2_UserInterfaceSelectionList+0x1c8>
        {
          u8sl_Next(&u8sl);
    2fae:	ce 01       	movw	r24, r28
    2fb0:	06 96       	adiw	r24, 0x06	; 6
    2fb2:	0e 94 02 22 	call	0x4404	; 0x4404 <u8sl_Next>
          break;
    2fb6:	0a c0       	rjmp	.+20     	; 0x2fcc <u8g2_UserInterfaceSelectionList+0x1dc>
        }
        else if ( event == U8X8_MSG_GPIO_MENU_PREV || event == U8X8_MSG_GPIO_MENU_UP )
    2fb8:	8d 81       	ldd	r24, Y+5	; 0x05
    2fba:	82 35       	cpi	r24, 0x52	; 82
    2fbc:	19 f0       	breq	.+6      	; 0x2fc4 <u8g2_UserInterfaceSelectionList+0x1d4>
    2fbe:	8d 81       	ldd	r24, Y+5	; 0x05
    2fc0:	84 35       	cpi	r24, 0x54	; 84
    2fc2:	01 f7       	brne	.-64     	; 0x2f84 <u8g2_UserInterfaceSelectionList+0x194>
        {
          u8sl_Prev(&u8sl);
    2fc4:	ce 01       	movw	r24, r28
    2fc6:	06 96       	adiw	r24, 0x06	; 6
    2fc8:	0e 94 55 22 	call	0x44aa	; 0x44aa <u8sl_Prev>
          break;
        }
      }
  }
    2fcc:	8f cf       	rjmp	.-226    	; 0x2eec <u8g2_UserInterfaceSelectionList+0xfc>
}
    2fce:	62 96       	adiw	r28, 0x12	; 18
    2fd0:	0f b6       	in	r0, 0x3f	; 63
    2fd2:	f8 94       	cli
    2fd4:	de bf       	out	0x3e, r29	; 62
    2fd6:	0f be       	out	0x3f, r0	; 63
    2fd8:	cd bf       	out	0x3d, r28	; 61
    2fda:	df 91       	pop	r29
    2fdc:	cf 91       	pop	r28
    2fde:	0f 91       	pop	r16
    2fe0:	ff 90       	pop	r15
    2fe2:	ef 90       	pop	r14
    2fe4:	08 95       	ret

00002fe6 <u8g2_SetMaxClipWindow>:
  u8g2->user_y1 = u8g2->height;	/* pixel_buf_width replaced with height (pixel_width) */

#ifdef U8G2_WITH_CLIP_WINDOW_SUPPORT
  u8g2_apply_clip_window(u8g2);
#endif /* U8G2_WITH_CLIP_WINDOW_SUPPORT */
}
    2fe6:	cf 93       	push	r28
    2fe8:	df 93       	push	r29
    2fea:	00 d0       	rcall	.+0      	; 0x2fec <u8g2_SetMaxClipWindow+0x6>
    2fec:	cd b7       	in	r28, 0x3d	; 61
    2fee:	de b7       	in	r29, 0x3e	; 62
    2ff0:	9a 83       	std	Y+2, r25	; 0x02
    2ff2:	89 83       	std	Y+1, r24	; 0x01
    2ff4:	89 81       	ldd	r24, Y+1	; 0x01
    2ff6:	9a 81       	ldd	r25, Y+2	; 0x02
    2ff8:	fc 01       	movw	r30, r24
    2ffa:	12 aa       	std	Z+50, r1	; 0x32
    2ffc:	89 81       	ldd	r24, Y+1	; 0x01
    2ffe:	9a 81       	ldd	r25, Y+2	; 0x02
    3000:	fc 01       	movw	r30, r24
    3002:	14 aa       	std	Z+52, r1	; 0x34
    3004:	89 81       	ldd	r24, Y+1	; 0x01
    3006:	9a 81       	ldd	r25, Y+2	; 0x02
    3008:	2f ef       	ldi	r18, 0xFF	; 255
    300a:	fc 01       	movw	r30, r24
    300c:	23 ab       	std	Z+51, r18	; 0x33
    300e:	89 81       	ldd	r24, Y+1	; 0x01
    3010:	9a 81       	ldd	r25, Y+2	; 0x02
    3012:	2f ef       	ldi	r18, 0xFF	; 255
    3014:	fc 01       	movw	r30, r24
    3016:	25 ab       	std	Z+53, r18	; 0x35
    3018:	89 81       	ldd	r24, Y+1	; 0x01
    301a:	9a 81       	ldd	r25, Y+2	; 0x02
    301c:	fc 01       	movw	r30, r24
    301e:	81 a1       	ldd	r24, Z+33	; 0x21
    3020:	92 a1       	ldd	r25, Z+34	; 0x22
    3022:	fc 01       	movw	r30, r24
    3024:	22 81       	ldd	r18, Z+2	; 0x02
    3026:	33 81       	ldd	r19, Z+3	; 0x03
    3028:	89 81       	ldd	r24, Y+1	; 0x01
    302a:	9a 81       	ldd	r25, Y+2	; 0x02
    302c:	f9 01       	movw	r30, r18
    302e:	09 95       	icall
    3030:	00 00       	nop
    3032:	0f 90       	pop	r0
    3034:	0f 90       	pop	r0
    3036:	df 91       	pop	r29
    3038:	cf 91       	pop	r28
    303a:	08 95       	ret

0000303c <u8g2_SetupBuffer>:
    303c:	0f 93       	push	r16
    303e:	1f 93       	push	r17
    3040:	cf 93       	push	r28
    3042:	df 93       	push	r29
    3044:	cd b7       	in	r28, 0x3d	; 61
    3046:	de b7       	in	r29, 0x3e	; 62
    3048:	29 97       	sbiw	r28, 0x09	; 9
    304a:	0f b6       	in	r0, 0x3f	; 63
    304c:	f8 94       	cli
    304e:	de bf       	out	0x3e, r29	; 62
    3050:	0f be       	out	0x3f, r0	; 63
    3052:	cd bf       	out	0x3d, r28	; 61
    3054:	9a 83       	std	Y+2, r25	; 0x02
    3056:	89 83       	std	Y+1, r24	; 0x01
    3058:	7c 83       	std	Y+4, r23	; 0x04
    305a:	6b 83       	std	Y+3, r22	; 0x03
    305c:	4d 83       	std	Y+5, r20	; 0x05
    305e:	3f 83       	std	Y+7, r19	; 0x07
    3060:	2e 83       	std	Y+6, r18	; 0x06
    3062:	19 87       	std	Y+9, r17	; 0x09
    3064:	08 87       	std	Y+8, r16	; 0x08
    3066:	89 81       	ldd	r24, Y+1	; 0x01
    3068:	9a 81       	ldd	r25, Y+2	; 0x02
    306a:	fc 01       	movw	r30, r24
    306c:	17 aa       	std	Z+55, r1	; 0x37
    306e:	16 aa       	std	Z+54, r1	; 0x36
    3070:	89 81       	ldd	r24, Y+1	; 0x01
    3072:	9a 81       	ldd	r25, Y+2	; 0x02
    3074:	2e 81       	ldd	r18, Y+6	; 0x06
    3076:	3f 81       	ldd	r19, Y+7	; 0x07
    3078:	fc 01       	movw	r30, r24
    307a:	30 a3       	std	Z+32, r19	; 0x20
    307c:	27 8f       	std	Z+31, r18	; 0x1f
    307e:	89 81       	ldd	r24, Y+1	; 0x01
    3080:	9a 81       	ldd	r25, Y+2	; 0x02
    3082:	2b 81       	ldd	r18, Y+3	; 0x03
    3084:	3c 81       	ldd	r19, Y+4	; 0x04
    3086:	fc 01       	movw	r30, r24
    3088:	34 a3       	std	Z+36, r19	; 0x24
    308a:	23 a3       	std	Z+35, r18	; 0x23
    308c:	89 81       	ldd	r24, Y+1	; 0x01
    308e:	9a 81       	ldd	r25, Y+2	; 0x02
    3090:	2d 81       	ldd	r18, Y+5	; 0x05
    3092:	fc 01       	movw	r30, r24
    3094:	25 a3       	std	Z+37, r18	; 0x25
    3096:	89 81       	ldd	r24, Y+1	; 0x01
    3098:	9a 81       	ldd	r25, Y+2	; 0x02
    309a:	fc 01       	movw	r30, r24
    309c:	16 a2       	std	Z+38, r1	; 0x26
    309e:	89 81       	ldd	r24, Y+1	; 0x01
    30a0:	9a 81       	ldd	r25, Y+2	; 0x02
    30a2:	8d 5b       	subi	r24, 0xBD	; 189
    30a4:	9f 4f       	sbci	r25, 0xFF	; 255
    30a6:	fc 01       	movw	r30, r24
    30a8:	10 82       	st	Z, r1
    30aa:	89 81       	ldd	r24, Y+1	; 0x01
    30ac:	9a 81       	ldd	r25, Y+2	; 0x02
    30ae:	8d 59       	subi	r24, 0x9D	; 157
    30b0:	9f 4f       	sbci	r25, 0xFF	; 255
    30b2:	fc 01       	movw	r30, r24
    30b4:	10 82       	st	Z, r1
    30b6:	89 81       	ldd	r24, Y+1	; 0x01
    30b8:	9a 81       	ldd	r25, Y+2	; 0x02
    30ba:	8c 59       	subi	r24, 0x9C	; 156
    30bc:	9f 4f       	sbci	r25, 0xFF	; 255
    30be:	21 e0       	ldi	r18, 0x01	; 1
    30c0:	fc 01       	movw	r30, r24
    30c2:	20 83       	st	Z, r18
    30c4:	89 81       	ldd	r24, Y+1	; 0x01
    30c6:	9a 81       	ldd	r25, Y+2	; 0x02
    30c8:	8b 59       	subi	r24, 0x9B	; 155
    30ca:	9f 4f       	sbci	r25, 0xFF	; 255
    30cc:	21 e0       	ldi	r18, 0x01	; 1
    30ce:	fc 01       	movw	r30, r24
    30d0:	20 83       	st	Z, r18
    30d2:	89 81       	ldd	r24, Y+1	; 0x01
    30d4:	9a 81       	ldd	r25, Y+2	; 0x02
    30d6:	28 85       	ldd	r18, Y+8	; 0x08
    30d8:	39 85       	ldd	r19, Y+9	; 0x09
    30da:	fc 01       	movw	r30, r24
    30dc:	32 a3       	std	Z+34, r19	; 0x22
    30de:	21 a3       	std	Z+33, r18	; 0x21
    30e0:	89 81       	ldd	r24, Y+1	; 0x01
    30e2:	9a 81       	ldd	r25, Y+2	; 0x02
    30e4:	fc 01       	movw	r30, r24
    30e6:	81 a1       	ldd	r24, Z+33	; 0x21
    30e8:	92 a1       	ldd	r25, Z+34	; 0x22
    30ea:	fc 01       	movw	r30, r24
    30ec:	20 81       	ld	r18, Z
    30ee:	31 81       	ldd	r19, Z+1	; 0x01
    30f0:	89 81       	ldd	r24, Y+1	; 0x01
    30f2:	9a 81       	ldd	r25, Y+2	; 0x02
    30f4:	f9 01       	movw	r30, r18
    30f6:	09 95       	icall
    30f8:	89 81       	ldd	r24, Y+1	; 0x01
    30fa:	9a 81       	ldd	r25, Y+2	; 0x02
    30fc:	74 df       	rcall	.-280    	; 0x2fe6 <u8g2_SetMaxClipWindow>
    30fe:	89 81       	ldd	r24, Y+1	; 0x01
    3100:	9a 81       	ldd	r25, Y+2	; 0x02
    3102:	db d8       	rcall	.-3658   	; 0x22ba <u8g2_SetFontPosBaseline>
    3104:	89 81       	ldd	r24, Y+1	; 0x01
    3106:	9a 81       	ldd	r25, Y+2	; 0x02
    3108:	8a 5b       	subi	r24, 0xBA	; 186
    310a:	9f 4f       	sbci	r25, 0xFF	; 255
    310c:	fc 01       	movw	r30, r24
    310e:	10 82       	st	Z, r1
    3110:	00 00       	nop
    3112:	29 96       	adiw	r28, 0x09	; 9
    3114:	0f b6       	in	r0, 0x3f	; 63
    3116:	f8 94       	cli
    3118:	de bf       	out	0x3e, r29	; 62
    311a:	0f be       	out	0x3f, r0	; 63
    311c:	cd bf       	out	0x3d, r28	; 61
    311e:	df 91       	pop	r29
    3120:	cf 91       	pop	r28
    3122:	1f 91       	pop	r17
    3124:	0f 91       	pop	r16
    3126:	08 95       	ret

00003128 <u8g2_update_dimension_common>:
    3128:	cf 93       	push	r28
    312a:	df 93       	push	r29
    312c:	00 d0       	rcall	.+0      	; 0x312e <u8g2_update_dimension_common+0x6>
    312e:	00 d0       	rcall	.+0      	; 0x3130 <u8g2_update_dimension_common+0x8>
    3130:	1f 92       	push	r1
    3132:	cd b7       	in	r28, 0x3d	; 61
    3134:	de b7       	in	r29, 0x3e	; 62
    3136:	9d 83       	std	Y+5, r25	; 0x05
    3138:	8c 83       	std	Y+4, r24	; 0x04
    313a:	8c 81       	ldd	r24, Y+4	; 0x04
    313c:	9d 81       	ldd	r25, Y+5	; 0x05
    313e:	fc 01       	movw	r30, r24
    3140:	80 81       	ld	r24, Z
    3142:	91 81       	ldd	r25, Z+1	; 0x01
    3144:	9b 83       	std	Y+3, r25	; 0x03
    3146:	8a 83       	std	Y+2, r24	; 0x02
    3148:	8c 81       	ldd	r24, Y+4	; 0x04
    314a:	9d 81       	ldd	r25, Y+5	; 0x05
    314c:	fc 01       	movw	r30, r24
    314e:	85 a1       	ldd	r24, Z+37	; 0x25
    3150:	89 83       	std	Y+1, r24	; 0x01
    3152:	89 81       	ldd	r24, Y+1	; 0x01
    3154:	88 0f       	add	r24, r24
    3156:	88 0f       	add	r24, r24
    3158:	88 0f       	add	r24, r24
    315a:	89 83       	std	Y+1, r24	; 0x01
    315c:	8c 81       	ldd	r24, Y+4	; 0x04
    315e:	9d 81       	ldd	r25, Y+5	; 0x05
    3160:	29 81       	ldd	r18, Y+1	; 0x01
    3162:	fc 01       	movw	r30, r24
    3164:	20 a7       	std	Z+40, r18	; 0x28
    3166:	8a 81       	ldd	r24, Y+2	; 0x02
    3168:	9b 81       	ldd	r25, Y+3	; 0x03
    316a:	fc 01       	movw	r30, r24
    316c:	80 89       	ldd	r24, Z+16	; 0x10
    316e:	89 83       	std	Y+1, r24	; 0x01
    3170:	89 81       	ldd	r24, Y+1	; 0x01
    3172:	80 32       	cpi	r24, 0x20	; 32
    3174:	10 f0       	brcs	.+4      	; 0x317a <u8g2_update_dimension_common+0x52>
    3176:	8f e1       	ldi	r24, 0x1F	; 31
    3178:	89 83       	std	Y+1, r24	; 0x01
    317a:	89 81       	ldd	r24, Y+1	; 0x01
    317c:	88 0f       	add	r24, r24
    317e:	88 0f       	add	r24, r24
    3180:	88 0f       	add	r24, r24
    3182:	89 83       	std	Y+1, r24	; 0x01
    3184:	8c 81       	ldd	r24, Y+4	; 0x04
    3186:	9d 81       	ldd	r25, Y+5	; 0x05
    3188:	29 81       	ldd	r18, Y+1	; 0x01
    318a:	fc 01       	movw	r30, r24
    318c:	27 a3       	std	Z+39, r18	; 0x27
    318e:	8c 81       	ldd	r24, Y+4	; 0x04
    3190:	9d 81       	ldd	r25, Y+5	; 0x05
    3192:	fc 01       	movw	r30, r24
    3194:	86 a1       	ldd	r24, Z+38	; 0x26
    3196:	89 83       	std	Y+1, r24	; 0x01
    3198:	89 81       	ldd	r24, Y+1	; 0x01
    319a:	88 0f       	add	r24, r24
    319c:	88 0f       	add	r24, r24
    319e:	88 0f       	add	r24, r24
    31a0:	89 83       	std	Y+1, r24	; 0x01
    31a2:	8c 81       	ldd	r24, Y+4	; 0x04
    31a4:	9d 81       	ldd	r25, Y+5	; 0x05
    31a6:	29 81       	ldd	r18, Y+1	; 0x01
    31a8:	fc 01       	movw	r30, r24
    31aa:	21 a7       	std	Z+41, r18	; 0x29
    31ac:	8c 81       	ldd	r24, Y+4	; 0x04
    31ae:	9d 81       	ldd	r25, Y+5	; 0x05
    31b0:	fc 01       	movw	r30, r24
    31b2:	85 a1       	ldd	r24, Z+37	; 0x25
    31b4:	89 83       	std	Y+1, r24	; 0x01
    31b6:	89 81       	ldd	r24, Y+1	; 0x01
    31b8:	28 2f       	mov	r18, r24
    31ba:	30 e0       	ldi	r19, 0x00	; 0
    31bc:	8c 81       	ldd	r24, Y+4	; 0x04
    31be:	9d 81       	ldd	r25, Y+5	; 0x05
    31c0:	fc 01       	movw	r30, r24
    31c2:	86 a1       	ldd	r24, Z+38	; 0x26
    31c4:	88 2f       	mov	r24, r24
    31c6:	90 e0       	ldi	r25, 0x00	; 0
    31c8:	28 0f       	add	r18, r24
    31ca:	39 1f       	adc	r19, r25
    31cc:	8a 81       	ldd	r24, Y+2	; 0x02
    31ce:	9b 81       	ldd	r25, Y+3	; 0x03
    31d0:	fc 01       	movw	r30, r24
    31d2:	81 89       	ldd	r24, Z+17	; 0x11
    31d4:	88 2f       	mov	r24, r24
    31d6:	90 e0       	ldi	r25, 0x00	; 0
    31d8:	82 17       	cp	r24, r18
    31da:	93 07       	cpc	r25, r19
    31dc:	64 f4       	brge	.+24     	; 0x31f6 <u8g2_update_dimension_common+0xce>
    31de:	8a 81       	ldd	r24, Y+2	; 0x02
    31e0:	9b 81       	ldd	r25, Y+3	; 0x03
    31e2:	fc 01       	movw	r30, r24
    31e4:	21 89       	ldd	r18, Z+17	; 0x11
    31e6:	8c 81       	ldd	r24, Y+4	; 0x04
    31e8:	9d 81       	ldd	r25, Y+5	; 0x05
    31ea:	fc 01       	movw	r30, r24
    31ec:	86 a1       	ldd	r24, Z+38	; 0x26
    31ee:	f2 2f       	mov	r31, r18
    31f0:	f8 1b       	sub	r31, r24
    31f2:	8f 2f       	mov	r24, r31
    31f4:	89 83       	std	Y+1, r24	; 0x01
    31f6:	89 81       	ldd	r24, Y+1	; 0x01
    31f8:	88 0f       	add	r24, r24
    31fa:	88 0f       	add	r24, r24
    31fc:	88 0f       	add	r24, r24
    31fe:	89 83       	std	Y+1, r24	; 0x01
    3200:	8c 81       	ldd	r24, Y+4	; 0x04
    3202:	9d 81       	ldd	r25, Y+5	; 0x05
    3204:	fc 01       	movw	r30, r24
    3206:	21 a5       	ldd	r18, Z+41	; 0x29
    3208:	8c 81       	ldd	r24, Y+4	; 0x04
    320a:	9d 81       	ldd	r25, Y+5	; 0x05
    320c:	fc 01       	movw	r30, r24
    320e:	22 a7       	std	Z+42, r18	; 0x2a
    3210:	8c 81       	ldd	r24, Y+4	; 0x04
    3212:	9d 81       	ldd	r25, Y+5	; 0x05
    3214:	fc 01       	movw	r30, r24
    3216:	22 a5       	ldd	r18, Z+42	; 0x2a
    3218:	8c 81       	ldd	r24, Y+4	; 0x04
    321a:	9d 81       	ldd	r25, Y+5	; 0x05
    321c:	fc 01       	movw	r30, r24
    321e:	23 a7       	std	Z+43, r18	; 0x2b
    3220:	8c 81       	ldd	r24, Y+4	; 0x04
    3222:	9d 81       	ldd	r25, Y+5	; 0x05
    3224:	fc 01       	movw	r30, r24
    3226:	93 a5       	ldd	r25, Z+43	; 0x2b
    3228:	89 81       	ldd	r24, Y+1	; 0x01
    322a:	29 2f       	mov	r18, r25
    322c:	28 0f       	add	r18, r24
    322e:	8c 81       	ldd	r24, Y+4	; 0x04
    3230:	9d 81       	ldd	r25, Y+5	; 0x05
    3232:	fc 01       	movw	r30, r24
    3234:	23 a7       	std	Z+43, r18	; 0x2b
    3236:	8c 81       	ldd	r24, Y+4	; 0x04
    3238:	9d 81       	ldd	r25, Y+5	; 0x05
    323a:	20 ef       	ldi	r18, 0xF0	; 240
    323c:	fc 01       	movw	r30, r24
    323e:	24 a7       	std	Z+44, r18	; 0x2c
    3240:	8a 81       	ldd	r24, Y+2	; 0x02
    3242:	9b 81       	ldd	r25, Y+3	; 0x03
    3244:	fc 01       	movw	r30, r24
    3246:	84 89       	ldd	r24, Z+20	; 0x14
    3248:	95 89       	ldd	r25, Z+21	; 0x15
    324a:	81 3f       	cpi	r24, 0xF1	; 241
    324c:	91 05       	cpc	r25, r1
    324e:	50 f4       	brcc	.+20     	; 0x3264 <u8g2_update_dimension_common+0x13c>
    3250:	8a 81       	ldd	r24, Y+2	; 0x02
    3252:	9b 81       	ldd	r25, Y+3	; 0x03
    3254:	fc 01       	movw	r30, r24
    3256:	84 89       	ldd	r24, Z+20	; 0x14
    3258:	95 89       	ldd	r25, Z+21	; 0x15
    325a:	28 2f       	mov	r18, r24
    325c:	8c 81       	ldd	r24, Y+4	; 0x04
    325e:	9d 81       	ldd	r25, Y+5	; 0x05
    3260:	fc 01       	movw	r30, r24
    3262:	24 a7       	std	Z+44, r18	; 0x2c
    3264:	8a 81       	ldd	r24, Y+2	; 0x02
    3266:	9b 81       	ldd	r25, Y+3	; 0x03
    3268:	fc 01       	movw	r30, r24
    326a:	86 89       	ldd	r24, Z+22	; 0x16
    326c:	97 89       	ldd	r25, Z+23	; 0x17
    326e:	28 2f       	mov	r18, r24
    3270:	8c 81       	ldd	r24, Y+4	; 0x04
    3272:	9d 81       	ldd	r25, Y+5	; 0x05
    3274:	fc 01       	movw	r30, r24
    3276:	25 a7       	std	Z+45, r18	; 0x2d
    3278:	00 00       	nop
    327a:	0f 90       	pop	r0
    327c:	0f 90       	pop	r0
    327e:	0f 90       	pop	r0
    3280:	0f 90       	pop	r0
    3282:	0f 90       	pop	r0
    3284:	df 91       	pop	r29
    3286:	cf 91       	pop	r28
    3288:	08 95       	ret

0000328a <u8g2_apply_clip_window>:
    328a:	0f 93       	push	r16
    328c:	cf 93       	push	r28
    328e:	df 93       	push	r29
    3290:	00 d0       	rcall	.+0      	; 0x3292 <u8g2_apply_clip_window+0x8>
    3292:	cd b7       	in	r28, 0x3d	; 61
    3294:	de b7       	in	r29, 0x3e	; 62
    3296:	9a 83       	std	Y+2, r25	; 0x02
    3298:	89 83       	std	Y+1, r24	; 0x01
    329a:	89 81       	ldd	r24, Y+1	; 0x01
    329c:	9a 81       	ldd	r25, Y+2	; 0x02
    329e:	fc 01       	movw	r30, r24
    32a0:	55 a9       	ldd	r21, Z+53	; 0x35
    32a2:	89 81       	ldd	r24, Y+1	; 0x01
    32a4:	9a 81       	ldd	r25, Y+2	; 0x02
    32a6:	fc 01       	movw	r30, r24
    32a8:	23 a9       	ldd	r18, Z+51	; 0x33
    32aa:	89 81       	ldd	r24, Y+1	; 0x01
    32ac:	9a 81       	ldd	r25, Y+2	; 0x02
    32ae:	fc 01       	movw	r30, r24
    32b0:	44 a9       	ldd	r20, Z+52	; 0x34
    32b2:	89 81       	ldd	r24, Y+1	; 0x01
    32b4:	9a 81       	ldd	r25, Y+2	; 0x02
    32b6:	fc 01       	movw	r30, r24
    32b8:	32 a9       	ldd	r19, Z+50	; 0x32
    32ba:	89 81       	ldd	r24, Y+1	; 0x01
    32bc:	9a 81       	ldd	r25, Y+2	; 0x02
    32be:	05 2f       	mov	r16, r21
    32c0:	63 2f       	mov	r22, r19
    32c2:	bb da       	rcall	.-2698   	; 0x283a <u8g2_IsIntersection>
    32c4:	88 23       	and	r24, r24
    32c6:	39 f4       	brne	.+14     	; 0x32d6 <u8g2_apply_clip_window+0x4c>
    32c8:	89 81       	ldd	r24, Y+1	; 0x01
    32ca:	9a 81       	ldd	r25, Y+2	; 0x02
    32cc:	82 5a       	subi	r24, 0xA2	; 162
    32ce:	9f 4f       	sbci	r25, 0xFF	; 255
    32d0:	fc 01       	movw	r30, r24
    32d2:	10 82       	st	Z, r1
    32d4:	4f c0       	rjmp	.+158    	; 0x3374 <u8g2_apply_clip_window+0xea>
    32d6:	89 81       	ldd	r24, Y+1	; 0x01
    32d8:	9a 81       	ldd	r25, Y+2	; 0x02
    32da:	82 5a       	subi	r24, 0xA2	; 162
    32dc:	9f 4f       	sbci	r25, 0xFF	; 255
    32de:	21 e0       	ldi	r18, 0x01	; 1
    32e0:	fc 01       	movw	r30, r24
    32e2:	20 83       	st	Z, r18
    32e4:	89 81       	ldd	r24, Y+1	; 0x01
    32e6:	9a 81       	ldd	r25, Y+2	; 0x02
    32e8:	fc 01       	movw	r30, r24
    32ea:	26 a5       	ldd	r18, Z+46	; 0x2e
    32ec:	89 81       	ldd	r24, Y+1	; 0x01
    32ee:	9a 81       	ldd	r25, Y+2	; 0x02
    32f0:	fc 01       	movw	r30, r24
    32f2:	82 a9       	ldd	r24, Z+50	; 0x32
    32f4:	28 17       	cp	r18, r24
    32f6:	40 f4       	brcc	.+16     	; 0x3308 <u8g2_apply_clip_window+0x7e>
    32f8:	89 81       	ldd	r24, Y+1	; 0x01
    32fa:	9a 81       	ldd	r25, Y+2	; 0x02
    32fc:	fc 01       	movw	r30, r24
    32fe:	22 a9       	ldd	r18, Z+50	; 0x32
    3300:	89 81       	ldd	r24, Y+1	; 0x01
    3302:	9a 81       	ldd	r25, Y+2	; 0x02
    3304:	fc 01       	movw	r30, r24
    3306:	26 a7       	std	Z+46, r18	; 0x2e
    3308:	89 81       	ldd	r24, Y+1	; 0x01
    330a:	9a 81       	ldd	r25, Y+2	; 0x02
    330c:	fc 01       	movw	r30, r24
    330e:	27 a5       	ldd	r18, Z+47	; 0x2f
    3310:	89 81       	ldd	r24, Y+1	; 0x01
    3312:	9a 81       	ldd	r25, Y+2	; 0x02
    3314:	fc 01       	movw	r30, r24
    3316:	83 a9       	ldd	r24, Z+51	; 0x33
    3318:	82 17       	cp	r24, r18
    331a:	40 f4       	brcc	.+16     	; 0x332c <u8g2_apply_clip_window+0xa2>
    331c:	89 81       	ldd	r24, Y+1	; 0x01
    331e:	9a 81       	ldd	r25, Y+2	; 0x02
    3320:	fc 01       	movw	r30, r24
    3322:	23 a9       	ldd	r18, Z+51	; 0x33
    3324:	89 81       	ldd	r24, Y+1	; 0x01
    3326:	9a 81       	ldd	r25, Y+2	; 0x02
    3328:	fc 01       	movw	r30, r24
    332a:	27 a7       	std	Z+47, r18	; 0x2f
    332c:	89 81       	ldd	r24, Y+1	; 0x01
    332e:	9a 81       	ldd	r25, Y+2	; 0x02
    3330:	fc 01       	movw	r30, r24
    3332:	20 a9       	ldd	r18, Z+48	; 0x30
    3334:	89 81       	ldd	r24, Y+1	; 0x01
    3336:	9a 81       	ldd	r25, Y+2	; 0x02
    3338:	fc 01       	movw	r30, r24
    333a:	84 a9       	ldd	r24, Z+52	; 0x34
    333c:	28 17       	cp	r18, r24
    333e:	40 f4       	brcc	.+16     	; 0x3350 <u8g2_apply_clip_window+0xc6>
    3340:	89 81       	ldd	r24, Y+1	; 0x01
    3342:	9a 81       	ldd	r25, Y+2	; 0x02
    3344:	fc 01       	movw	r30, r24
    3346:	24 a9       	ldd	r18, Z+52	; 0x34
    3348:	89 81       	ldd	r24, Y+1	; 0x01
    334a:	9a 81       	ldd	r25, Y+2	; 0x02
    334c:	fc 01       	movw	r30, r24
    334e:	20 ab       	std	Z+48, r18	; 0x30
    3350:	89 81       	ldd	r24, Y+1	; 0x01
    3352:	9a 81       	ldd	r25, Y+2	; 0x02
    3354:	fc 01       	movw	r30, r24
    3356:	21 a9       	ldd	r18, Z+49	; 0x31
    3358:	89 81       	ldd	r24, Y+1	; 0x01
    335a:	9a 81       	ldd	r25, Y+2	; 0x02
    335c:	fc 01       	movw	r30, r24
    335e:	85 a9       	ldd	r24, Z+53	; 0x35
    3360:	82 17       	cp	r24, r18
    3362:	40 f4       	brcc	.+16     	; 0x3374 <u8g2_apply_clip_window+0xea>
    3364:	89 81       	ldd	r24, Y+1	; 0x01
    3366:	9a 81       	ldd	r25, Y+2	; 0x02
    3368:	fc 01       	movw	r30, r24
    336a:	25 a9       	ldd	r18, Z+53	; 0x35
    336c:	89 81       	ldd	r24, Y+1	; 0x01
    336e:	9a 81       	ldd	r25, Y+2	; 0x02
    3370:	fc 01       	movw	r30, r24
    3372:	21 ab       	std	Z+49, r18	; 0x31
    3374:	00 00       	nop
    3376:	0f 90       	pop	r0
    3378:	0f 90       	pop	r0
    337a:	df 91       	pop	r29
    337c:	cf 91       	pop	r28
    337e:	0f 91       	pop	r16
    3380:	08 95       	ret

00003382 <u8g2_update_dimension_r0>:
    3382:	cf 93       	push	r28
    3384:	df 93       	push	r29
    3386:	00 d0       	rcall	.+0      	; 0x3388 <u8g2_update_dimension_r0+0x6>
    3388:	cd b7       	in	r28, 0x3d	; 61
    338a:	de b7       	in	r29, 0x3e	; 62
    338c:	9a 83       	std	Y+2, r25	; 0x02
    338e:	89 83       	std	Y+1, r24	; 0x01
    3390:	89 81       	ldd	r24, Y+1	; 0x01
    3392:	9a 81       	ldd	r25, Y+2	; 0x02
    3394:	c9 de       	rcall	.-622    	; 0x3128 <u8g2_update_dimension_common>
    3396:	00 00       	nop
    3398:	0f 90       	pop	r0
    339a:	0f 90       	pop	r0
    339c:	df 91       	pop	r29
    339e:	cf 91       	pop	r28
    33a0:	08 95       	ret

000033a2 <u8g2_update_page_win_r0>:
    33a2:	cf 93       	push	r28
    33a4:	df 93       	push	r29
    33a6:	00 d0       	rcall	.+0      	; 0x33a8 <u8g2_update_page_win_r0+0x6>
    33a8:	cd b7       	in	r28, 0x3d	; 61
    33aa:	de b7       	in	r29, 0x3e	; 62
    33ac:	9a 83       	std	Y+2, r25	; 0x02
    33ae:	89 83       	std	Y+1, r24	; 0x01
    33b0:	89 81       	ldd	r24, Y+1	; 0x01
    33b2:	9a 81       	ldd	r25, Y+2	; 0x02
    33b4:	fc 01       	movw	r30, r24
    33b6:	16 a6       	std	Z+46, r1	; 0x2e
    33b8:	89 81       	ldd	r24, Y+1	; 0x01
    33ba:	9a 81       	ldd	r25, Y+2	; 0x02
    33bc:	fc 01       	movw	r30, r24
    33be:	24 a5       	ldd	r18, Z+44	; 0x2c
    33c0:	89 81       	ldd	r24, Y+1	; 0x01
    33c2:	9a 81       	ldd	r25, Y+2	; 0x02
    33c4:	fc 01       	movw	r30, r24
    33c6:	27 a7       	std	Z+47, r18	; 0x2f
    33c8:	89 81       	ldd	r24, Y+1	; 0x01
    33ca:	9a 81       	ldd	r25, Y+2	; 0x02
    33cc:	fc 01       	movw	r30, r24
    33ce:	22 a5       	ldd	r18, Z+42	; 0x2a
    33d0:	89 81       	ldd	r24, Y+1	; 0x01
    33d2:	9a 81       	ldd	r25, Y+2	; 0x02
    33d4:	fc 01       	movw	r30, r24
    33d6:	20 ab       	std	Z+48, r18	; 0x30
    33d8:	89 81       	ldd	r24, Y+1	; 0x01
    33da:	9a 81       	ldd	r25, Y+2	; 0x02
    33dc:	fc 01       	movw	r30, r24
    33de:	23 a5       	ldd	r18, Z+43	; 0x2b
    33e0:	89 81       	ldd	r24, Y+1	; 0x01
    33e2:	9a 81       	ldd	r25, Y+2	; 0x02
    33e4:	fc 01       	movw	r30, r24
    33e6:	21 ab       	std	Z+49, r18	; 0x31
    33e8:	89 81       	ldd	r24, Y+1	; 0x01
    33ea:	9a 81       	ldd	r25, Y+2	; 0x02
    33ec:	4e df       	rcall	.-356    	; 0x328a <u8g2_apply_clip_window>
    33ee:	00 00       	nop
    33f0:	0f 90       	pop	r0
    33f2:	0f 90       	pop	r0
    33f4:	df 91       	pop	r29
    33f6:	cf 91       	pop	r28
    33f8:	08 95       	ret

000033fa <u8g2_draw_l90_r0>:
/*============================================*/
extern void u8g2_draw_hv_line_2dir(u8g2_t *u8g2, u8g2_uint_t x, u8g2_uint_t y, u8g2_uint_t len, uint8_t dir);


void u8g2_draw_l90_r0(u8g2_t *u8g2, u8g2_uint_t x, u8g2_uint_t y, u8g2_uint_t len, uint8_t dir)
{
    33fa:	0f 93       	push	r16
    33fc:	cf 93       	push	r28
    33fe:	df 93       	push	r29
    3400:	00 d0       	rcall	.+0      	; 0x3402 <u8g2_draw_l90_r0+0x8>
    3402:	00 d0       	rcall	.+0      	; 0x3404 <u8g2_draw_l90_r0+0xa>
    3404:	00 d0       	rcall	.+0      	; 0x3406 <u8g2_draw_l90_r0+0xc>
    3406:	cd b7       	in	r28, 0x3d	; 61
    3408:	de b7       	in	r29, 0x3e	; 62
    340a:	9a 83       	std	Y+2, r25	; 0x02
    340c:	89 83       	std	Y+1, r24	; 0x01
    340e:	6b 83       	std	Y+3, r22	; 0x03
    3410:	4c 83       	std	Y+4, r20	; 0x04
    3412:	2d 83       	std	Y+5, r18	; 0x05
    3414:	0e 83       	std	Y+6, r16	; 0x06
#ifdef __unix
  assert( dir <= 1 );
#endif
  u8g2_draw_hv_line_2dir(u8g2, x, y, len, dir);
    3416:	89 81       	ldd	r24, Y+1	; 0x01
    3418:	9a 81       	ldd	r25, Y+2	; 0x02
    341a:	0e 81       	ldd	r16, Y+6	; 0x06
    341c:	2d 81       	ldd	r18, Y+5	; 0x05
    341e:	4c 81       	ldd	r20, Y+4	; 0x04
    3420:	6b 81       	ldd	r22, Y+3	; 0x03
    3422:	c1 d8       	rcall	.-3710   	; 0x25a6 <u8g2_draw_hv_line_2dir>
}
    3424:	00 00       	nop
    3426:	26 96       	adiw	r28, 0x06	; 6
    3428:	0f b6       	in	r0, 0x3f	; 63
    342a:	f8 94       	cli
    342c:	de bf       	out	0x3e, r29	; 62
    342e:	0f be       	out	0x3f, r0	; 63
    3430:	cd bf       	out	0x3d, r28	; 61
    3432:	df 91       	pop	r29
    3434:	cf 91       	pop	r28
    3436:	0f 91       	pop	r16
    3438:	08 95       	ret

0000343a <u8x8_utf8_init>:
uint16_t u8x8_ascii_next(U8X8_UNUSED u8x8_t *u8x8, uint8_t b)
{
  if ( b == 0 || b == '\n' ) /* '\n' terminates the string to support the string list procedures */
    return 0x0ffff;	/* end of string detected*/
  return b;
}
    343a:	cf 93       	push	r28
    343c:	df 93       	push	r29
    343e:	00 d0       	rcall	.+0      	; 0x3440 <u8x8_utf8_init+0x6>
    3440:	cd b7       	in	r28, 0x3d	; 61
    3442:	de b7       	in	r29, 0x3e	; 62
    3444:	9a 83       	std	Y+2, r25	; 0x02
    3446:	89 83       	std	Y+1, r24	; 0x01
    3448:	89 81       	ldd	r24, Y+1	; 0x01
    344a:	9a 81       	ldd	r25, Y+2	; 0x02
    344c:	fc 01       	movw	r30, r24
    344e:	11 8e       	std	Z+25, r1	; 0x19
    3450:	00 00       	nop
    3452:	0f 90       	pop	r0
    3454:	0f 90       	pop	r0
    3456:	df 91       	pop	r29
    3458:	cf 91       	pop	r28
    345a:	08 95       	ret

0000345c <u8x8_utf8_next>:
    0x0fffe: no glyph, just continue
    0x0ffff: end of string
    anything else: The decoded encoding
*/
uint16_t u8x8_utf8_next(u8x8_t *u8x8, uint8_t b)
{
    345c:	cf 93       	push	r28
    345e:	df 93       	push	r29
    3460:	00 d0       	rcall	.+0      	; 0x3462 <u8x8_utf8_next+0x6>
    3462:	1f 92       	push	r1
    3464:	cd b7       	in	r28, 0x3d	; 61
    3466:	de b7       	in	r29, 0x3e	; 62
    3468:	9a 83       	std	Y+2, r25	; 0x02
    346a:	89 83       	std	Y+1, r24	; 0x01
    346c:	6b 83       	std	Y+3, r22	; 0x03
  if ( b == 0 || b == '\n' )	/* '\n' terminates the string to support the string list procedures */
    346e:	8b 81       	ldd	r24, Y+3	; 0x03
    3470:	88 23       	and	r24, r24
    3472:	19 f0       	breq	.+6      	; 0x347a <u8x8_utf8_next+0x1e>
    3474:	8b 81       	ldd	r24, Y+3	; 0x03
    3476:	8a 30       	cpi	r24, 0x0A	; 10
    3478:	19 f4       	brne	.+6      	; 0x3480 <u8x8_utf8_next+0x24>
    return 0x0ffff;	/* end of string detected, pending UTF8 is discarded */
    347a:	8f ef       	ldi	r24, 0xFF	; 255
    347c:	9f ef       	ldi	r25, 0xFF	; 255
    347e:	90 c0       	rjmp	.+288    	; 0x35a0 <u8x8_utf8_next+0x144>
  if ( u8x8->utf8_state == 0 )
    3480:	89 81       	ldd	r24, Y+1	; 0x01
    3482:	9a 81       	ldd	r25, Y+2	; 0x02
    3484:	fc 01       	movw	r30, r24
    3486:	81 8d       	ldd	r24, Z+25	; 0x19
    3488:	88 23       	and	r24, r24
    348a:	09 f0       	breq	.+2      	; 0x348e <u8x8_utf8_next+0x32>
    348c:	4b c0       	rjmp	.+150    	; 0x3524 <u8x8_utf8_next+0xc8>
  {
    if ( b >= 0xfc )	/* 6 byte sequence */
    348e:	8b 81       	ldd	r24, Y+3	; 0x03
    3490:	8c 3f       	cpi	r24, 0xFC	; 252
    3492:	48 f0       	brcs	.+18     	; 0x34a6 <u8x8_utf8_next+0x4a>
    {
      u8x8->utf8_state = 5;
    3494:	89 81       	ldd	r24, Y+1	; 0x01
    3496:	9a 81       	ldd	r25, Y+2	; 0x02
    3498:	25 e0       	ldi	r18, 0x05	; 5
    349a:	fc 01       	movw	r30, r24
    349c:	21 8f       	std	Z+25, r18	; 0x19
      b &= 1;
    349e:	8b 81       	ldd	r24, Y+3	; 0x03
    34a0:	81 70       	andi	r24, 0x01	; 1
    34a2:	8b 83       	std	Y+3, r24	; 0x03
    34a4:	34 c0       	rjmp	.+104    	; 0x350e <u8x8_utf8_next+0xb2>
    }
    else if ( b >= 0xf8 )
    34a6:	8b 81       	ldd	r24, Y+3	; 0x03
    34a8:	88 3f       	cpi	r24, 0xF8	; 248
    34aa:	48 f0       	brcs	.+18     	; 0x34be <u8x8_utf8_next+0x62>
    {
      u8x8->utf8_state = 4;
    34ac:	89 81       	ldd	r24, Y+1	; 0x01
    34ae:	9a 81       	ldd	r25, Y+2	; 0x02
    34b0:	24 e0       	ldi	r18, 0x04	; 4
    34b2:	fc 01       	movw	r30, r24
    34b4:	21 8f       	std	Z+25, r18	; 0x19
      b &= 3;
    34b6:	8b 81       	ldd	r24, Y+3	; 0x03
    34b8:	83 70       	andi	r24, 0x03	; 3
    34ba:	8b 83       	std	Y+3, r24	; 0x03
    34bc:	28 c0       	rjmp	.+80     	; 0x350e <u8x8_utf8_next+0xb2>
    }
    else if ( b >= 0xf0 )
    34be:	8b 81       	ldd	r24, Y+3	; 0x03
    34c0:	80 3f       	cpi	r24, 0xF0	; 240
    34c2:	48 f0       	brcs	.+18     	; 0x34d6 <u8x8_utf8_next+0x7a>
    {
      u8x8->utf8_state = 3;
    34c4:	89 81       	ldd	r24, Y+1	; 0x01
    34c6:	9a 81       	ldd	r25, Y+2	; 0x02
    34c8:	23 e0       	ldi	r18, 0x03	; 3
    34ca:	fc 01       	movw	r30, r24
    34cc:	21 8f       	std	Z+25, r18	; 0x19
      b &= 7;      
    34ce:	8b 81       	ldd	r24, Y+3	; 0x03
    34d0:	87 70       	andi	r24, 0x07	; 7
    34d2:	8b 83       	std	Y+3, r24	; 0x03
    34d4:	1c c0       	rjmp	.+56     	; 0x350e <u8x8_utf8_next+0xb2>
    }
    else if ( b >= 0xe0 )
    34d6:	8b 81       	ldd	r24, Y+3	; 0x03
    34d8:	80 3e       	cpi	r24, 0xE0	; 224
    34da:	48 f0       	brcs	.+18     	; 0x34ee <u8x8_utf8_next+0x92>
    {
      u8x8->utf8_state = 2;
    34dc:	89 81       	ldd	r24, Y+1	; 0x01
    34de:	9a 81       	ldd	r25, Y+2	; 0x02
    34e0:	22 e0       	ldi	r18, 0x02	; 2
    34e2:	fc 01       	movw	r30, r24
    34e4:	21 8f       	std	Z+25, r18	; 0x19
      b &= 15;
    34e6:	8b 81       	ldd	r24, Y+3	; 0x03
    34e8:	8f 70       	andi	r24, 0x0F	; 15
    34ea:	8b 83       	std	Y+3, r24	; 0x03
    34ec:	10 c0       	rjmp	.+32     	; 0x350e <u8x8_utf8_next+0xb2>
    }
    else if ( b >= 0xc0 )
    34ee:	8b 81       	ldd	r24, Y+3	; 0x03
    34f0:	80 3c       	cpi	r24, 0xC0	; 192
    34f2:	48 f0       	brcs	.+18     	; 0x3506 <u8x8_utf8_next+0xaa>
    {
      u8x8->utf8_state = 1;
    34f4:	89 81       	ldd	r24, Y+1	; 0x01
    34f6:	9a 81       	ldd	r25, Y+2	; 0x02
    34f8:	21 e0       	ldi	r18, 0x01	; 1
    34fa:	fc 01       	movw	r30, r24
    34fc:	21 8f       	std	Z+25, r18	; 0x19
      b &= 0x01f;
    34fe:	8b 81       	ldd	r24, Y+3	; 0x03
    3500:	8f 71       	andi	r24, 0x1F	; 31
    3502:	8b 83       	std	Y+3, r24	; 0x03
    3504:	04 c0       	rjmp	.+8      	; 0x350e <u8x8_utf8_next+0xb2>
    }
    else
    {
      /* do nothing, just use the value as encoding */
      return b;
    3506:	8b 81       	ldd	r24, Y+3	; 0x03
    3508:	88 2f       	mov	r24, r24
    350a:	90 e0       	ldi	r25, 0x00	; 0
    350c:	49 c0       	rjmp	.+146    	; 0x35a0 <u8x8_utf8_next+0x144>
    }
    u8x8->encoding = b;
    350e:	8b 81       	ldd	r24, Y+3	; 0x03
    3510:	28 2f       	mov	r18, r24
    3512:	30 e0       	ldi	r19, 0x00	; 0
    3514:	89 81       	ldd	r24, Y+1	; 0x01
    3516:	9a 81       	ldd	r25, Y+2	; 0x02
    3518:	fc 01       	movw	r30, r24
    351a:	33 8b       	std	Z+19, r19	; 0x13
    351c:	22 8b       	std	Z+18, r18	; 0x12
    return 0x0fffe;
    351e:	8e ef       	ldi	r24, 0xFE	; 254
    3520:	9f ef       	ldi	r25, 0xFF	; 255
    3522:	3e c0       	rjmp	.+124    	; 0x35a0 <u8x8_utf8_next+0x144>
  }
  else
  {
    u8x8->utf8_state--;
    3524:	89 81       	ldd	r24, Y+1	; 0x01
    3526:	9a 81       	ldd	r25, Y+2	; 0x02
    3528:	fc 01       	movw	r30, r24
    352a:	81 8d       	ldd	r24, Z+25	; 0x19
    352c:	2f ef       	ldi	r18, 0xFF	; 255
    352e:	28 0f       	add	r18, r24
    3530:	89 81       	ldd	r24, Y+1	; 0x01
    3532:	9a 81       	ldd	r25, Y+2	; 0x02
    3534:	fc 01       	movw	r30, r24
    3536:	21 8f       	std	Z+25, r18	; 0x19
    /* The case b < 0x080 (an illegal UTF8 encoding) is not checked here. */
    u8x8->encoding<<=6;
    3538:	89 81       	ldd	r24, Y+1	; 0x01
    353a:	9a 81       	ldd	r25, Y+2	; 0x02
    353c:	fc 01       	movw	r30, r24
    353e:	82 89       	ldd	r24, Z+18	; 0x12
    3540:	93 89       	ldd	r25, Z+19	; 0x13
    3542:	9c 01       	movw	r18, r24
    3544:	00 24       	eor	r0, r0
    3546:	36 95       	lsr	r19
    3548:	27 95       	ror	r18
    354a:	07 94       	ror	r0
    354c:	36 95       	lsr	r19
    354e:	27 95       	ror	r18
    3550:	07 94       	ror	r0
    3552:	32 2f       	mov	r19, r18
    3554:	20 2d       	mov	r18, r0
    3556:	89 81       	ldd	r24, Y+1	; 0x01
    3558:	9a 81       	ldd	r25, Y+2	; 0x02
    355a:	fc 01       	movw	r30, r24
    355c:	33 8b       	std	Z+19, r19	; 0x13
    355e:	22 8b       	std	Z+18, r18	; 0x12
    b &= 0x03f;
    3560:	8b 81       	ldd	r24, Y+3	; 0x03
    3562:	8f 73       	andi	r24, 0x3F	; 63
    3564:	8b 83       	std	Y+3, r24	; 0x03
    u8x8->encoding |= b;
    3566:	89 81       	ldd	r24, Y+1	; 0x01
    3568:	9a 81       	ldd	r25, Y+2	; 0x02
    356a:	fc 01       	movw	r30, r24
    356c:	22 89       	ldd	r18, Z+18	; 0x12
    356e:	33 89       	ldd	r19, Z+19	; 0x13
    3570:	8b 81       	ldd	r24, Y+3	; 0x03
    3572:	88 2f       	mov	r24, r24
    3574:	90 e0       	ldi	r25, 0x00	; 0
    3576:	28 2b       	or	r18, r24
    3578:	39 2b       	or	r19, r25
    357a:	89 81       	ldd	r24, Y+1	; 0x01
    357c:	9a 81       	ldd	r25, Y+2	; 0x02
    357e:	fc 01       	movw	r30, r24
    3580:	33 8b       	std	Z+19, r19	; 0x13
    3582:	22 8b       	std	Z+18, r18	; 0x12
    if ( u8x8->utf8_state != 0 )
    3584:	89 81       	ldd	r24, Y+1	; 0x01
    3586:	9a 81       	ldd	r25, Y+2	; 0x02
    3588:	fc 01       	movw	r30, r24
    358a:	81 8d       	ldd	r24, Z+25	; 0x19
    358c:	88 23       	and	r24, r24
    358e:	19 f0       	breq	.+6      	; 0x3596 <u8x8_utf8_next+0x13a>
      return 0x0fffe;	/* nothing to do yet */
    3590:	8e ef       	ldi	r24, 0xFE	; 254
    3592:	9f ef       	ldi	r25, 0xFF	; 255
    3594:	05 c0       	rjmp	.+10     	; 0x35a0 <u8x8_utf8_next+0x144>
  }
  return u8x8->encoding;
    3596:	89 81       	ldd	r24, Y+1	; 0x01
    3598:	9a 81       	ldd	r25, Y+2	; 0x02
    359a:	fc 01       	movw	r30, r24
    359c:	82 89       	ldd	r24, Z+18	; 0x12
    359e:	93 89       	ldd	r25, Z+19	; 0x13
}
    35a0:	0f 90       	pop	r0
    35a2:	0f 90       	pop	r0
    35a4:	0f 90       	pop	r0
    35a6:	df 91       	pop	r29
    35a8:	cf 91       	pop	r28
    35aa:	08 95       	ret

000035ac <u8x8_byte_SendBytes>:
      break;
    default:
      return 0;
  }
  return 1;
}
    35ac:	cf 93       	push	r28
    35ae:	df 93       	push	r29
    35b0:	00 d0       	rcall	.+0      	; 0x35b2 <u8x8_byte_SendBytes+0x6>
    35b2:	00 d0       	rcall	.+0      	; 0x35b4 <u8x8_byte_SendBytes+0x8>
    35b4:	1f 92       	push	r1
    35b6:	cd b7       	in	r28, 0x3d	; 61
    35b8:	de b7       	in	r29, 0x3e	; 62
    35ba:	9a 83       	std	Y+2, r25	; 0x02
    35bc:	89 83       	std	Y+1, r24	; 0x01
    35be:	6b 83       	std	Y+3, r22	; 0x03
    35c0:	5d 83       	std	Y+5, r21	; 0x05
    35c2:	4c 83       	std	Y+4, r20	; 0x04
    35c4:	89 81       	ldd	r24, Y+1	; 0x01
    35c6:	9a 81       	ldd	r25, Y+2	; 0x02
    35c8:	dc 01       	movw	r26, r24
    35ca:	18 96       	adiw	r26, 0x08	; 8
    35cc:	ed 91       	ld	r30, X+
    35ce:	fc 91       	ld	r31, X
    35d0:	19 97       	sbiw	r26, 0x09	; 9
    35d2:	2c 81       	ldd	r18, Y+4	; 0x04
    35d4:	3d 81       	ldd	r19, Y+5	; 0x05
    35d6:	89 81       	ldd	r24, Y+1	; 0x01
    35d8:	9a 81       	ldd	r25, Y+2	; 0x02
    35da:	4b 81       	ldd	r20, Y+3	; 0x03
    35dc:	67 e1       	ldi	r22, 0x17	; 23
    35de:	09 95       	icall
    35e0:	0f 90       	pop	r0
    35e2:	0f 90       	pop	r0
    35e4:	0f 90       	pop	r0
    35e6:	0f 90       	pop	r0
    35e8:	0f 90       	pop	r0
    35ea:	df 91       	pop	r29
    35ec:	cf 91       	pop	r28
    35ee:	08 95       	ret

000035f0 <u8x8_byte_SendByte>:
    35f0:	cf 93       	push	r28
    35f2:	df 93       	push	r29
    35f4:	00 d0       	rcall	.+0      	; 0x35f6 <u8x8_byte_SendByte+0x6>
    35f6:	1f 92       	push	r1
    35f8:	cd b7       	in	r28, 0x3d	; 61
    35fa:	de b7       	in	r29, 0x3e	; 62
    35fc:	9a 83       	std	Y+2, r25	; 0x02
    35fe:	89 83       	std	Y+1, r24	; 0x01
    3600:	6b 83       	std	Y+3, r22	; 0x03
    3602:	9e 01       	movw	r18, r28
    3604:	2d 5f       	subi	r18, 0xFD	; 253
    3606:	3f 4f       	sbci	r19, 0xFF	; 255
    3608:	89 81       	ldd	r24, Y+1	; 0x01
    360a:	9a 81       	ldd	r25, Y+2	; 0x02
    360c:	a9 01       	movw	r20, r18
    360e:	61 e0       	ldi	r22, 0x01	; 1
    3610:	cd df       	rcall	.-102    	; 0x35ac <u8x8_byte_SendBytes>
    3612:	0f 90       	pop	r0
    3614:	0f 90       	pop	r0
    3616:	0f 90       	pop	r0
    3618:	df 91       	pop	r29
    361a:	cf 91       	pop	r28
    361c:	08 95       	ret

0000361e <u8x8_byte_StartTransfer>:
    361e:	cf 93       	push	r28
    3620:	df 93       	push	r29
    3622:	00 d0       	rcall	.+0      	; 0x3624 <u8x8_byte_StartTransfer+0x6>
    3624:	cd b7       	in	r28, 0x3d	; 61
    3626:	de b7       	in	r29, 0x3e	; 62
    3628:	9a 83       	std	Y+2, r25	; 0x02
    362a:	89 83       	std	Y+1, r24	; 0x01
    362c:	89 81       	ldd	r24, Y+1	; 0x01
    362e:	9a 81       	ldd	r25, Y+2	; 0x02
    3630:	dc 01       	movw	r26, r24
    3632:	18 96       	adiw	r26, 0x08	; 8
    3634:	ed 91       	ld	r30, X+
    3636:	fc 91       	ld	r31, X
    3638:	19 97       	sbiw	r26, 0x09	; 9
    363a:	89 81       	ldd	r24, Y+1	; 0x01
    363c:	9a 81       	ldd	r25, Y+2	; 0x02
    363e:	20 e0       	ldi	r18, 0x00	; 0
    3640:	30 e0       	ldi	r19, 0x00	; 0
    3642:	40 e0       	ldi	r20, 0x00	; 0
    3644:	68 e1       	ldi	r22, 0x18	; 24
    3646:	09 95       	icall
    3648:	0f 90       	pop	r0
    364a:	0f 90       	pop	r0
    364c:	df 91       	pop	r29
    364e:	cf 91       	pop	r28
    3650:	08 95       	ret

00003652 <u8x8_byte_EndTransfer>:
    3652:	cf 93       	push	r28
    3654:	df 93       	push	r29
    3656:	00 d0       	rcall	.+0      	; 0x3658 <u8x8_byte_EndTransfer+0x6>
    3658:	cd b7       	in	r28, 0x3d	; 61
    365a:	de b7       	in	r29, 0x3e	; 62
    365c:	9a 83       	std	Y+2, r25	; 0x02
    365e:	89 83       	std	Y+1, r24	; 0x01
    3660:	89 81       	ldd	r24, Y+1	; 0x01
    3662:	9a 81       	ldd	r25, Y+2	; 0x02
    3664:	dc 01       	movw	r26, r24
    3666:	18 96       	adiw	r26, 0x08	; 8
    3668:	ed 91       	ld	r30, X+
    366a:	fc 91       	ld	r31, X
    366c:	19 97       	sbiw	r26, 0x09	; 9
    366e:	89 81       	ldd	r24, Y+1	; 0x01
    3670:	9a 81       	ldd	r25, Y+2	; 0x02
    3672:	20 e0       	ldi	r18, 0x00	; 0
    3674:	30 e0       	ldi	r19, 0x00	; 0
    3676:	40 e0       	ldi	r20, 0x00	; 0
    3678:	69 e1       	ldi	r22, 0x19	; 25
    367a:	09 95       	icall
    367c:	0f 90       	pop	r0
    367e:	0f 90       	pop	r0
    3680:	df 91       	pop	r29
    3682:	cf 91       	pop	r28
    3684:	08 95       	ret

00003686 <i2c_delay>:
  ignores ACK response (which is anyway not provided by some displays)
  also does not allow reading from the device
*/
static void i2c_delay(u8x8_t *u8x8) U8X8_NOINLINE;
static void i2c_delay(u8x8_t *u8x8)
{
    3686:	cf 93       	push	r28
    3688:	df 93       	push	r29
    368a:	00 d0       	rcall	.+0      	; 0x368c <i2c_delay+0x6>
    368c:	cd b7       	in	r28, 0x3d	; 61
    368e:	de b7       	in	r29, 0x3e	; 62
    3690:	9a 83       	std	Y+2, r25	; 0x02
    3692:	89 83       	std	Y+1, r24	; 0x01
  //u8x8_gpio_Delay(u8x8, U8X8_MSG_DELAY_10MICRO, u8x8->display_info->i2c_bus_clock_100kHz);
  u8x8_gpio_Delay(u8x8, U8X8_MSG_DELAY_I2C, u8x8->display_info->i2c_bus_clock_100kHz);
    3694:	89 81       	ldd	r24, Y+1	; 0x01
    3696:	9a 81       	ldd	r25, Y+2	; 0x02
    3698:	fc 01       	movw	r30, r24
    369a:	80 81       	ld	r24, Z
    369c:	91 81       	ldd	r25, Z+1	; 0x01
    369e:	fc 01       	movw	r30, r24
    36a0:	25 85       	ldd	r18, Z+13	; 0x0d
    36a2:	89 81       	ldd	r24, Y+1	; 0x01
    36a4:	9a 81       	ldd	r25, Y+2	; 0x02
    36a6:	42 2f       	mov	r20, r18
    36a8:	6d e2       	ldi	r22, 0x2D	; 45
    36aa:	8c d6       	rcall	.+3352   	; 0x43c4 <u8x8_gpio_call>
}
    36ac:	00 00       	nop
    36ae:	0f 90       	pop	r0
    36b0:	0f 90       	pop	r0
    36b2:	df 91       	pop	r29
    36b4:	cf 91       	pop	r28
    36b6:	08 95       	ret

000036b8 <i2c_init>:

static void i2c_init(u8x8_t *u8x8)
{
    36b8:	cf 93       	push	r28
    36ba:	df 93       	push	r29
    36bc:	00 d0       	rcall	.+0      	; 0x36be <i2c_init+0x6>
    36be:	cd b7       	in	r28, 0x3d	; 61
    36c0:	de b7       	in	r29, 0x3e	; 62
    36c2:	9a 83       	std	Y+2, r25	; 0x02
    36c4:	89 83       	std	Y+1, r24	; 0x01
  u8x8_gpio_SetI2CClock(u8x8, 1);
    36c6:	89 81       	ldd	r24, Y+1	; 0x01
    36c8:	9a 81       	ldd	r25, Y+2	; 0x02
    36ca:	41 e0       	ldi	r20, 0x01	; 1
    36cc:	6c e4       	ldi	r22, 0x4C	; 76
    36ce:	7a d6       	rcall	.+3316   	; 0x43c4 <u8x8_gpio_call>
  u8x8_gpio_SetI2CData(u8x8, 1);
    36d0:	89 81       	ldd	r24, Y+1	; 0x01
    36d2:	9a 81       	ldd	r25, Y+2	; 0x02
    36d4:	41 e0       	ldi	r20, 0x01	; 1
    36d6:	6d e4       	ldi	r22, 0x4D	; 77
    36d8:	75 d6       	rcall	.+3306   	; 0x43c4 <u8x8_gpio_call>
  
  i2c_delay(u8x8);
    36da:	89 81       	ldd	r24, Y+1	; 0x01
    36dc:	9a 81       	ldd	r25, Y+2	; 0x02
    36de:	d3 df       	rcall	.-90     	; 0x3686 <i2c_delay>
}
    36e0:	00 00       	nop
    36e2:	0f 90       	pop	r0
    36e4:	0f 90       	pop	r0
    36e6:	df 91       	pop	r29
    36e8:	cf 91       	pop	r28
    36ea:	08 95       	ret

000036ec <i2c_read_scl_and_delay>:

/* actually, the scl line is not observed, so this procedure does not return a value */

static void i2c_read_scl_and_delay(u8x8_t *u8x8)
{
    36ec:	cf 93       	push	r28
    36ee:	df 93       	push	r29
    36f0:	00 d0       	rcall	.+0      	; 0x36f2 <i2c_read_scl_and_delay+0x6>
    36f2:	cd b7       	in	r28, 0x3d	; 61
    36f4:	de b7       	in	r29, 0x3e	; 62
    36f6:	9a 83       	std	Y+2, r25	; 0x02
    36f8:	89 83       	std	Y+1, r24	; 0x01
  /* set as input (line will be high) */
  u8x8_gpio_SetI2CClock(u8x8, 1);
    36fa:	89 81       	ldd	r24, Y+1	; 0x01
    36fc:	9a 81       	ldd	r25, Y+2	; 0x02
    36fe:	41 e0       	ldi	r20, 0x01	; 1
    3700:	6c e4       	ldi	r22, 0x4C	; 76
    3702:	60 d6       	rcall	.+3264   	; 0x43c4 <u8x8_gpio_call>

  i2c_delay(u8x8);
    3704:	89 81       	ldd	r24, Y+1	; 0x01
    3706:	9a 81       	ldd	r25, Y+2	; 0x02
    3708:	be df       	rcall	.-132    	; 0x3686 <i2c_delay>
}
    370a:	00 00       	nop
    370c:	0f 90       	pop	r0
    370e:	0f 90       	pop	r0
    3710:	df 91       	pop	r29
    3712:	cf 91       	pop	r28
    3714:	08 95       	ret

00003716 <i2c_clear_scl>:

static void i2c_clear_scl(u8x8_t *u8x8)
{
    3716:	cf 93       	push	r28
    3718:	df 93       	push	r29
    371a:	00 d0       	rcall	.+0      	; 0x371c <i2c_clear_scl+0x6>
    371c:	cd b7       	in	r28, 0x3d	; 61
    371e:	de b7       	in	r29, 0x3e	; 62
    3720:	9a 83       	std	Y+2, r25	; 0x02
    3722:	89 83       	std	Y+1, r24	; 0x01
  u8x8_gpio_SetI2CClock(u8x8, 0);
    3724:	89 81       	ldd	r24, Y+1	; 0x01
    3726:	9a 81       	ldd	r25, Y+2	; 0x02
    3728:	40 e0       	ldi	r20, 0x00	; 0
    372a:	6c e4       	ldi	r22, 0x4C	; 76
    372c:	4b d6       	rcall	.+3222   	; 0x43c4 <u8x8_gpio_call>
}
    372e:	00 00       	nop
    3730:	0f 90       	pop	r0
    3732:	0f 90       	pop	r0
    3734:	df 91       	pop	r29
    3736:	cf 91       	pop	r28
    3738:	08 95       	ret

0000373a <i2c_read_sda>:

static void i2c_read_sda(u8x8_t *u8x8)
{
    373a:	cf 93       	push	r28
    373c:	df 93       	push	r29
    373e:	00 d0       	rcall	.+0      	; 0x3740 <i2c_read_sda+0x6>
    3740:	cd b7       	in	r28, 0x3d	; 61
    3742:	de b7       	in	r29, 0x3e	; 62
    3744:	9a 83       	std	Y+2, r25	; 0x02
    3746:	89 83       	std	Y+1, r24	; 0x01
  /* set as input (line will be high) */
  u8x8_gpio_SetI2CData(u8x8, 1);
    3748:	89 81       	ldd	r24, Y+1	; 0x01
    374a:	9a 81       	ldd	r25, Y+2	; 0x02
    374c:	41 e0       	ldi	r20, 0x01	; 1
    374e:	6d e4       	ldi	r22, 0x4D	; 77
    3750:	39 d6       	rcall	.+3186   	; 0x43c4 <u8x8_gpio_call>
}
    3752:	00 00       	nop
    3754:	0f 90       	pop	r0
    3756:	0f 90       	pop	r0
    3758:	df 91       	pop	r29
    375a:	cf 91       	pop	r28
    375c:	08 95       	ret

0000375e <i2c_clear_sda>:

static void i2c_clear_sda(u8x8_t *u8x8)
{
    375e:	cf 93       	push	r28
    3760:	df 93       	push	r29
    3762:	00 d0       	rcall	.+0      	; 0x3764 <i2c_clear_sda+0x6>
    3764:	cd b7       	in	r28, 0x3d	; 61
    3766:	de b7       	in	r29, 0x3e	; 62
    3768:	9a 83       	std	Y+2, r25	; 0x02
    376a:	89 83       	std	Y+1, r24	; 0x01
  /* set open collector and drive low */
  u8x8_gpio_SetI2CData(u8x8, 0);
    376c:	89 81       	ldd	r24, Y+1	; 0x01
    376e:	9a 81       	ldd	r25, Y+2	; 0x02
    3770:	40 e0       	ldi	r20, 0x00	; 0
    3772:	6d e4       	ldi	r22, 0x4D	; 77
    3774:	27 d6       	rcall	.+3150   	; 0x43c4 <u8x8_gpio_call>
}
    3776:	00 00       	nop
    3778:	0f 90       	pop	r0
    377a:	0f 90       	pop	r0
    377c:	df 91       	pop	r29
    377e:	cf 91       	pop	r28
    3780:	08 95       	ret

00003782 <i2c_start>:

static void i2c_start(u8x8_t *u8x8)
{
    3782:	cf 93       	push	r28
    3784:	df 93       	push	r29
    3786:	00 d0       	rcall	.+0      	; 0x3788 <i2c_start+0x6>
    3788:	cd b7       	in	r28, 0x3d	; 61
    378a:	de b7       	in	r29, 0x3e	; 62
    378c:	9a 83       	std	Y+2, r25	; 0x02
    378e:	89 83       	std	Y+1, r24	; 0x01
  if ( u8x8->i2c_started != 0 )
    3790:	89 81       	ldd	r24, Y+1	; 0x01
    3792:	9a 81       	ldd	r25, Y+2	; 0x02
    3794:	fc 01       	movw	r30, r24
    3796:	87 89       	ldd	r24, Z+23	; 0x17
    3798:	88 23       	and	r24, r24
    379a:	49 f0       	breq	.+18     	; 0x37ae <i2c_start+0x2c>
  {
    /* if already started: do restart */
    i2c_read_sda(u8x8);     /* SDA = 1 */
    379c:	89 81       	ldd	r24, Y+1	; 0x01
    379e:	9a 81       	ldd	r25, Y+2	; 0x02
    37a0:	cc df       	rcall	.-104    	; 0x373a <i2c_read_sda>
    i2c_delay(u8x8);
    37a2:	89 81       	ldd	r24, Y+1	; 0x01
    37a4:	9a 81       	ldd	r25, Y+2	; 0x02
    37a6:	6f df       	rcall	.-290    	; 0x3686 <i2c_delay>
    i2c_read_scl_and_delay(u8x8);
    37a8:	89 81       	ldd	r24, Y+1	; 0x01
    37aa:	9a 81       	ldd	r25, Y+2	; 0x02
    37ac:	9f df       	rcall	.-194    	; 0x36ec <i2c_read_scl_and_delay>
  }
  i2c_read_sda(u8x8);
    37ae:	89 81       	ldd	r24, Y+1	; 0x01
    37b0:	9a 81       	ldd	r25, Y+2	; 0x02
    37b2:	c3 df       	rcall	.-122    	; 0x373a <i2c_read_sda>
  /* send the start condition, both lines go from 1 to 0 */
  i2c_clear_sda(u8x8);
    37b4:	89 81       	ldd	r24, Y+1	; 0x01
    37b6:	9a 81       	ldd	r25, Y+2	; 0x02
    37b8:	d2 df       	rcall	.-92     	; 0x375e <i2c_clear_sda>
  i2c_delay(u8x8);
    37ba:	89 81       	ldd	r24, Y+1	; 0x01
    37bc:	9a 81       	ldd	r25, Y+2	; 0x02
    37be:	63 df       	rcall	.-314    	; 0x3686 <i2c_delay>
  i2c_clear_scl(u8x8);
    37c0:	89 81       	ldd	r24, Y+1	; 0x01
    37c2:	9a 81       	ldd	r25, Y+2	; 0x02
    37c4:	a8 df       	rcall	.-176    	; 0x3716 <i2c_clear_scl>
    37c6:	89 81       	ldd	r24, Y+1	; 0x01
  u8x8->i2c_started = 1;
    37c8:	9a 81       	ldd	r25, Y+2	; 0x02
    37ca:	21 e0       	ldi	r18, 0x01	; 1
    37cc:	fc 01       	movw	r30, r24
    37ce:	27 8b       	std	Z+23, r18	; 0x17
    37d0:	00 00       	nop
}
    37d2:	0f 90       	pop	r0
    37d4:	0f 90       	pop	r0
    37d6:	df 91       	pop	r29
    37d8:	cf 91       	pop	r28
    37da:	08 95       	ret

000037dc <i2c_stop>:
    37dc:	cf 93       	push	r28


static void i2c_stop(u8x8_t *u8x8)
{
    37de:	df 93       	push	r29
    37e0:	00 d0       	rcall	.+0      	; 0x37e2 <i2c_stop+0x6>
    37e2:	cd b7       	in	r28, 0x3d	; 61
    37e4:	de b7       	in	r29, 0x3e	; 62
    37e6:	9a 83       	std	Y+2, r25	; 0x02
    37e8:	89 83       	std	Y+1, r24	; 0x01
  /* set SDA to 0 */
  i2c_clear_sda(u8x8);  
    37ea:	89 81       	ldd	r24, Y+1	; 0x01
    37ec:	9a 81       	ldd	r25, Y+2	; 0x02
    37ee:	b7 df       	rcall	.-146    	; 0x375e <i2c_clear_sda>
  i2c_delay(u8x8);
    37f0:	89 81       	ldd	r24, Y+1	; 0x01
    37f2:	9a 81       	ldd	r25, Y+2	; 0x02
    37f4:	48 df       	rcall	.-368    	; 0x3686 <i2c_delay>
 
  /* now release all lines */
  i2c_read_scl_and_delay(u8x8);
    37f6:	89 81       	ldd	r24, Y+1	; 0x01
    37f8:	9a 81       	ldd	r25, Y+2	; 0x02
    37fa:	78 df       	rcall	.-272    	; 0x36ec <i2c_read_scl_and_delay>
 
  /* set SDA to 1 */
  i2c_read_sda(u8x8);
    37fc:	89 81       	ldd	r24, Y+1	; 0x01
    37fe:	9a 81       	ldd	r25, Y+2	; 0x02
    3800:	9c df       	rcall	.-200    	; 0x373a <i2c_read_sda>
  i2c_delay(u8x8);
    3802:	89 81       	ldd	r24, Y+1	; 0x01
    3804:	9a 81       	ldd	r25, Y+2	; 0x02
    3806:	3f df       	rcall	.-386    	; 0x3686 <i2c_delay>
    3808:	89 81       	ldd	r24, Y+1	; 0x01
  u8x8->i2c_started = 0;
    380a:	9a 81       	ldd	r25, Y+2	; 0x02
    380c:	fc 01       	movw	r30, r24
    380e:	17 8a       	std	Z+23, r1	; 0x17
    3810:	00 00       	nop
}
    3812:	0f 90       	pop	r0
    3814:	0f 90       	pop	r0
    3816:	df 91       	pop	r29
    3818:	cf 91       	pop	r28
    381a:	08 95       	ret

0000381c <i2c_write_bit>:
    381c:	cf 93       	push	r28

static void i2c_write_bit(u8x8_t *u8x8, uint8_t val)
{
    381e:	df 93       	push	r29
    3820:	00 d0       	rcall	.+0      	; 0x3822 <i2c_write_bit+0x6>
    3822:	1f 92       	push	r1
    3824:	cd b7       	in	r28, 0x3d	; 61
    3826:	de b7       	in	r29, 0x3e	; 62
    3828:	9a 83       	std	Y+2, r25	; 0x02
    382a:	89 83       	std	Y+1, r24	; 0x01
    382c:	6b 83       	std	Y+3, r22	; 0x03
  if (val)
    382e:	8b 81       	ldd	r24, Y+3	; 0x03
    3830:	88 23       	and	r24, r24
    3832:	21 f0       	breq	.+8      	; 0x383c <i2c_write_bit+0x20>
    i2c_read_sda(u8x8);
    3834:	89 81       	ldd	r24, Y+1	; 0x01
    3836:	9a 81       	ldd	r25, Y+2	; 0x02
    3838:	80 df       	rcall	.-256    	; 0x373a <i2c_read_sda>
    383a:	03 c0       	rjmp	.+6      	; 0x3842 <i2c_write_bit+0x26>
  else
    i2c_clear_sda(u8x8);
    383c:	89 81       	ldd	r24, Y+1	; 0x01
    383e:	9a 81       	ldd	r25, Y+2	; 0x02
    3840:	8e df       	rcall	.-228    	; 0x375e <i2c_clear_sda>
 
  i2c_delay(u8x8);
    3842:	89 81       	ldd	r24, Y+1	; 0x01
    3844:	9a 81       	ldd	r25, Y+2	; 0x02
    3846:	1f df       	rcall	.-450    	; 0x3686 <i2c_delay>
  i2c_read_scl_and_delay(u8x8);
    3848:	89 81       	ldd	r24, Y+1	; 0x01
    384a:	9a 81       	ldd	r25, Y+2	; 0x02
    384c:	4f df       	rcall	.-354    	; 0x36ec <i2c_read_scl_and_delay>
  i2c_clear_scl(u8x8);
    384e:	89 81       	ldd	r24, Y+1	; 0x01
    3850:	9a 81       	ldd	r25, Y+2	; 0x02
    3852:	61 df       	rcall	.-318    	; 0x3716 <i2c_clear_scl>
    3854:	00 00       	nop
}
    3856:	0f 90       	pop	r0
    3858:	0f 90       	pop	r0
    385a:	0f 90       	pop	r0
    385c:	df 91       	pop	r29
    385e:	cf 91       	pop	r28
    3860:	08 95       	ret

00003862 <i2c_read_bit>:
    3862:	cf 93       	push	r28

static void i2c_read_bit(u8x8_t *u8x8)
{
    3864:	df 93       	push	r29
    3866:	00 d0       	rcall	.+0      	; 0x3868 <i2c_read_bit+0x6>
    3868:	cd b7       	in	r28, 0x3d	; 61
    386a:	de b7       	in	r29, 0x3e	; 62
    386c:	9a 83       	std	Y+2, r25	; 0x02
    386e:	89 83       	std	Y+1, r24	; 0x01
  //uint8_t val;
  /* do not drive SDA */
  i2c_read_sda(u8x8);
    3870:	89 81       	ldd	r24, Y+1	; 0x01
    3872:	9a 81       	ldd	r25, Y+2	; 0x02
    3874:	62 df       	rcall	.-316    	; 0x373a <i2c_read_sda>
  i2c_delay(u8x8);
    3876:	89 81       	ldd	r24, Y+1	; 0x01
    3878:	9a 81       	ldd	r25, Y+2	; 0x02
    387a:	05 df       	rcall	.-502    	; 0x3686 <i2c_delay>
  i2c_read_scl_and_delay(u8x8);
    387c:	89 81       	ldd	r24, Y+1	; 0x01
    387e:	9a 81       	ldd	r25, Y+2	; 0x02
    3880:	35 df       	rcall	.-406    	; 0x36ec <i2c_read_scl_and_delay>
  i2c_read_sda(u8x8);
    3882:	89 81       	ldd	r24, Y+1	; 0x01
    3884:	9a 81       	ldd	r25, Y+2	; 0x02
    3886:	59 df       	rcall	.-334    	; 0x373a <i2c_read_sda>
  i2c_delay(u8x8);
    3888:	89 81       	ldd	r24, Y+1	; 0x01
    388a:	9a 81       	ldd	r25, Y+2	; 0x02
    388c:	fc de       	rcall	.-520    	; 0x3686 <i2c_delay>
  i2c_clear_scl(u8x8);
    388e:	89 81       	ldd	r24, Y+1	; 0x01
    3890:	9a 81       	ldd	r25, Y+2	; 0x02
    3892:	41 df       	rcall	.-382    	; 0x3716 <i2c_clear_scl>
    3894:	00 00       	nop
  //return val;
}
    3896:	0f 90       	pop	r0
    3898:	0f 90       	pop	r0
    389a:	df 91       	pop	r29
    389c:	cf 91       	pop	r28
    389e:	08 95       	ret

000038a0 <i2c_write_byte>:
    38a0:	cf 93       	push	r28

static void i2c_write_byte(u8x8_t *u8x8, uint8_t b)
{
    38a2:	df 93       	push	r29
    38a4:	00 d0       	rcall	.+0      	; 0x38a6 <i2c_write_byte+0x6>
    38a6:	1f 92       	push	r1
    38a8:	cd b7       	in	r28, 0x3d	; 61
    38aa:	de b7       	in	r29, 0x3e	; 62
    38ac:	9a 83       	std	Y+2, r25	; 0x02
    38ae:	89 83       	std	Y+1, r24	; 0x01
    38b0:	6b 83       	std	Y+3, r22	; 0x03
  i2c_write_bit(u8x8, b & 128);
    38b2:	8b 81       	ldd	r24, Y+3	; 0x03
    38b4:	28 2f       	mov	r18, r24
    38b6:	20 78       	andi	r18, 0x80	; 128
    38b8:	89 81       	ldd	r24, Y+1	; 0x01
    38ba:	9a 81       	ldd	r25, Y+2	; 0x02
    38bc:	62 2f       	mov	r22, r18
    38be:	ae df       	rcall	.-164    	; 0x381c <i2c_write_bit>
  i2c_write_bit(u8x8, b & 64);
    38c0:	8b 81       	ldd	r24, Y+3	; 0x03
    38c2:	28 2f       	mov	r18, r24
    38c4:	20 74       	andi	r18, 0x40	; 64
    38c6:	89 81       	ldd	r24, Y+1	; 0x01
    38c8:	9a 81       	ldd	r25, Y+2	; 0x02
    38ca:	62 2f       	mov	r22, r18
    38cc:	a7 df       	rcall	.-178    	; 0x381c <i2c_write_bit>
  i2c_write_bit(u8x8, b & 32);
    38ce:	8b 81       	ldd	r24, Y+3	; 0x03
    38d0:	28 2f       	mov	r18, r24
    38d2:	20 72       	andi	r18, 0x20	; 32
    38d4:	89 81       	ldd	r24, Y+1	; 0x01
    38d6:	9a 81       	ldd	r25, Y+2	; 0x02
    38d8:	62 2f       	mov	r22, r18
    38da:	a0 df       	rcall	.-192    	; 0x381c <i2c_write_bit>
  i2c_write_bit(u8x8, b & 16);
    38dc:	8b 81       	ldd	r24, Y+3	; 0x03
    38de:	28 2f       	mov	r18, r24
    38e0:	20 71       	andi	r18, 0x10	; 16
    38e2:	89 81       	ldd	r24, Y+1	; 0x01
    38e4:	9a 81       	ldd	r25, Y+2	; 0x02
    38e6:	62 2f       	mov	r22, r18
    38e8:	99 df       	rcall	.-206    	; 0x381c <i2c_write_bit>
  i2c_write_bit(u8x8, b & 8);
    38ea:	8b 81       	ldd	r24, Y+3	; 0x03
    38ec:	28 2f       	mov	r18, r24
    38ee:	28 70       	andi	r18, 0x08	; 8
    38f0:	89 81       	ldd	r24, Y+1	; 0x01
    38f2:	9a 81       	ldd	r25, Y+2	; 0x02
    38f4:	62 2f       	mov	r22, r18
    38f6:	92 df       	rcall	.-220    	; 0x381c <i2c_write_bit>
  i2c_write_bit(u8x8, b & 4);
    38f8:	8b 81       	ldd	r24, Y+3	; 0x03
    38fa:	28 2f       	mov	r18, r24
    38fc:	24 70       	andi	r18, 0x04	; 4
    38fe:	89 81       	ldd	r24, Y+1	; 0x01
    3900:	9a 81       	ldd	r25, Y+2	; 0x02
    3902:	62 2f       	mov	r22, r18
    3904:	8b df       	rcall	.-234    	; 0x381c <i2c_write_bit>
  i2c_write_bit(u8x8, b & 2);
    3906:	8b 81       	ldd	r24, Y+3	; 0x03
    3908:	28 2f       	mov	r18, r24
    390a:	22 70       	andi	r18, 0x02	; 2
    390c:	89 81       	ldd	r24, Y+1	; 0x01
    390e:	9a 81       	ldd	r25, Y+2	; 0x02
    3910:	62 2f       	mov	r22, r18
    3912:	84 df       	rcall	.-248    	; 0x381c <i2c_write_bit>
  i2c_write_bit(u8x8, b & 1);
    3914:	8b 81       	ldd	r24, Y+3	; 0x03
    3916:	28 2f       	mov	r18, r24
    3918:	21 70       	andi	r18, 0x01	; 1
    391a:	89 81       	ldd	r24, Y+1	; 0x01
    391c:	9a 81       	ldd	r25, Y+2	; 0x02
    391e:	62 2f       	mov	r22, r18
    3920:	7d df       	rcall	.-262    	; 0x381c <i2c_write_bit>
    
  /* read ack from client */
  /* 0: ack was given by client */
  /* 1: nothing happend during ack cycle */  
  i2c_read_bit(u8x8);
    3922:	89 81       	ldd	r24, Y+1	; 0x01
    3924:	9a 81       	ldd	r25, Y+2	; 0x02
    3926:	9d df       	rcall	.-198    	; 0x3862 <i2c_read_bit>
    3928:	00 00       	nop
}
    392a:	0f 90       	pop	r0
    392c:	0f 90       	pop	r0
    392e:	0f 90       	pop	r0
    3930:	df 91       	pop	r29
    3932:	cf 91       	pop	r28
    3934:	08 95       	ret

00003936 <u8x8_byte_sw_i2c>:
    3936:	cf 93       	push	r28

uint8_t u8x8_byte_sw_i2c(u8x8_t *u8x8, uint8_t msg, uint8_t arg_int, void *arg_ptr)
{
    3938:	df 93       	push	r29
    393a:	cd b7       	in	r28, 0x3d	; 61
    393c:	de b7       	in	r29, 0x3e	; 62
    393e:	28 97       	sbiw	r28, 0x08	; 8
    3940:	0f b6       	in	r0, 0x3f	; 63
    3942:	f8 94       	cli
    3944:	de bf       	out	0x3e, r29	; 62
    3946:	0f be       	out	0x3f, r0	; 63
    3948:	cd bf       	out	0x3d, r28	; 61
    394a:	9c 83       	std	Y+4, r25	; 0x04
    394c:	8b 83       	std	Y+3, r24	; 0x03
    394e:	6d 83       	std	Y+5, r22	; 0x05
    3950:	4e 83       	std	Y+6, r20	; 0x06
    3952:	38 87       	std	Y+8, r19	; 0x08
    3954:	2f 83       	std	Y+7, r18	; 0x07
  uint8_t *data;

  switch(msg)
    3956:	8d 81       	ldd	r24, Y+5	; 0x05
    3958:	88 2f       	mov	r24, r24
    395a:	90 e0       	ldi	r25, 0x00	; 0
    395c:	88 31       	cpi	r24, 0x18	; 24
    395e:	91 05       	cpc	r25, r1
    3960:	61 f1       	breq	.+88     	; 0x39ba <u8x8_byte_sw_i2c+0x84>
    3962:	89 31       	cpi	r24, 0x19	; 25
    3964:	91 05       	cpc	r25, r1
    3966:	34 f4       	brge	.+12     	; 0x3974 <u8x8_byte_sw_i2c+0x3e>
    3968:	84 31       	cpi	r24, 0x14	; 20
    396a:	91 05       	cpc	r25, r1
    396c:	11 f1       	breq	.+68     	; 0x39b2 <u8x8_byte_sw_i2c+0x7c>
    396e:	47 97       	sbiw	r24, 0x17	; 23
    3970:	39 f0       	breq	.+14     	; 0x3980 <u8x8_byte_sw_i2c+0x4a>
    3972:	33 c0       	rjmp	.+102    	; 0x39da <u8x8_byte_sw_i2c+0xa4>
    3974:	89 31       	cpi	r24, 0x19	; 25
    3976:	91 05       	cpc	r25, r1
    3978:	61 f1       	breq	.+88     	; 0x39d2 <u8x8_byte_sw_i2c+0x9c>
    397a:	80 97       	sbiw	r24, 0x20	; 32
    397c:	81 f1       	breq	.+96     	; 0x39de <u8x8_byte_sw_i2c+0xa8>
    397e:	2d c0       	rjmp	.+90     	; 0x39da <u8x8_byte_sw_i2c+0xa4>
  {
    case U8X8_MSG_BYTE_SEND:
      data = (uint8_t *)arg_ptr;
    3980:	8f 81       	ldd	r24, Y+7	; 0x07
    3982:	98 85       	ldd	r25, Y+8	; 0x08
    3984:	9a 83       	std	Y+2, r25	; 0x02
    3986:	89 83       	std	Y+1, r24	; 0x01
    
      while( arg_int > 0 )
    3988:	10 c0       	rjmp	.+32     	; 0x39aa <u8x8_byte_sw_i2c+0x74>
      {
	i2c_write_byte(u8x8, *data);
    398a:	89 81       	ldd	r24, Y+1	; 0x01
    398c:	9a 81       	ldd	r25, Y+2	; 0x02
    398e:	fc 01       	movw	r30, r24
    3990:	20 81       	ld	r18, Z
    3992:	8b 81       	ldd	r24, Y+3	; 0x03
    3994:	9c 81       	ldd	r25, Y+4	; 0x04
    3996:	62 2f       	mov	r22, r18
    3998:	83 df       	rcall	.-250    	; 0x38a0 <i2c_write_byte>
	data++;
    399a:	89 81       	ldd	r24, Y+1	; 0x01
    399c:	9a 81       	ldd	r25, Y+2	; 0x02
    399e:	01 96       	adiw	r24, 0x01	; 1
    39a0:	9a 83       	std	Y+2, r25	; 0x02
    39a2:	89 83       	std	Y+1, r24	; 0x01
	arg_int--;
    39a4:	8e 81       	ldd	r24, Y+6	; 0x06
    39a6:	81 50       	subi	r24, 0x01	; 1
    39a8:	8e 83       	std	Y+6, r24	; 0x06
  switch(msg)
  {
    case U8X8_MSG_BYTE_SEND:
      data = (uint8_t *)arg_ptr;
    
      while( arg_int > 0 )
    39aa:	8e 81       	ldd	r24, Y+6	; 0x06
    39ac:	88 23       	and	r24, r24
    39ae:	69 f7       	brne	.-38     	; 0x398a <u8x8_byte_sw_i2c+0x54>
	i2c_write_byte(u8x8, *data);
	data++;
	arg_int--;
      }
      
      break;
    39b0:	17 c0       	rjmp	.+46     	; 0x39e0 <u8x8_byte_sw_i2c+0xaa>
      
    case U8X8_MSG_BYTE_INIT:
      i2c_init(u8x8);
    39b2:	8b 81       	ldd	r24, Y+3	; 0x03
    39b4:	9c 81       	ldd	r25, Y+4	; 0x04
    39b6:	80 de       	rcall	.-768    	; 0x36b8 <i2c_init>
      break;
    39b8:	13 c0       	rjmp	.+38     	; 0x39e0 <u8x8_byte_sw_i2c+0xaa>
    case U8X8_MSG_BYTE_SET_DC:
      break;
    case U8X8_MSG_BYTE_START_TRANSFER:
      i2c_start(u8x8);
    39ba:	8b 81       	ldd	r24, Y+3	; 0x03
    39bc:	9c 81       	ldd	r25, Y+4	; 0x04
    39be:	e1 de       	rcall	.-574    	; 0x3782 <i2c_start>
      i2c_write_byte(u8x8, u8x8_GetI2CAddress(u8x8));
    39c0:	8b 81       	ldd	r24, Y+3	; 0x03
    39c2:	9c 81       	ldd	r25, Y+4	; 0x04
    39c4:	fc 01       	movw	r30, r24
    39c6:	26 89       	ldd	r18, Z+22	; 0x16
    39c8:	8b 81       	ldd	r24, Y+3	; 0x03
    39ca:	9c 81       	ldd	r25, Y+4	; 0x04
    39cc:	62 2f       	mov	r22, r18
    39ce:	68 df       	rcall	.-304    	; 0x38a0 <i2c_write_byte>
      //i2c_write_byte(u8x8, 0x078);
      break;
    39d0:	07 c0       	rjmp	.+14     	; 0x39e0 <u8x8_byte_sw_i2c+0xaa>
    case U8X8_MSG_BYTE_END_TRANSFER:
      i2c_stop(u8x8);
    39d2:	8b 81       	ldd	r24, Y+3	; 0x03
    39d4:	9c 81       	ldd	r25, Y+4	; 0x04
    39d6:	02 df       	rcall	.-508    	; 0x37dc <i2c_stop>
    39d8:	03 c0       	rjmp	.+6      	; 0x39e0 <u8x8_byte_sw_i2c+0xaa>
      break;
    39da:	80 e0       	ldi	r24, 0x00	; 0
    default:
      return 0;
    39dc:	02 c0       	rjmp	.+4      	; 0x39e2 <u8x8_byte_sw_i2c+0xac>
    39de:	00 00       	nop
      
    case U8X8_MSG_BYTE_INIT:
      i2c_init(u8x8);
      break;
    case U8X8_MSG_BYTE_SET_DC:
      break;
    39e0:	81 e0       	ldi	r24, 0x01	; 1
      i2c_stop(u8x8);
      break;
    default:
      return 0;
  }
  return 1;
    39e2:	28 96       	adiw	r28, 0x08	; 8
}
    39e4:	0f b6       	in	r0, 0x3f	; 63
    39e6:	f8 94       	cli
    39e8:	de bf       	out	0x3e, r29	; 62
    39ea:	0f be       	out	0x3f, r0	; 63
    39ec:	cd bf       	out	0x3d, r28	; 61
    39ee:	df 91       	pop	r29
    39f0:	cf 91       	pop	r28
    39f2:	08 95       	ret

000039f4 <u8x8_cad_SendCmd>:
    39f4:	cf 93       	push	r28
      break;
    default:
      return 0;
  }
  return 1;
}
    39f6:	df 93       	push	r29
    39f8:	00 d0       	rcall	.+0      	; 0x39fa <u8x8_cad_SendCmd+0x6>
    39fa:	1f 92       	push	r1
    39fc:	cd b7       	in	r28, 0x3d	; 61
    39fe:	de b7       	in	r29, 0x3e	; 62
    3a00:	9a 83       	std	Y+2, r25	; 0x02
    3a02:	89 83       	std	Y+1, r24	; 0x01
    3a04:	6b 83       	std	Y+3, r22	; 0x03
    3a06:	89 81       	ldd	r24, Y+1	; 0x01
    3a08:	9a 81       	ldd	r25, Y+2	; 0x02
    3a0a:	dc 01       	movw	r26, r24
    3a0c:	16 96       	adiw	r26, 0x06	; 6
    3a0e:	ed 91       	ld	r30, X+
    3a10:	fc 91       	ld	r31, X
    3a12:	17 97       	sbiw	r26, 0x07	; 7
    3a14:	89 81       	ldd	r24, Y+1	; 0x01
    3a16:	9a 81       	ldd	r25, Y+2	; 0x02
    3a18:	20 e0       	ldi	r18, 0x00	; 0
    3a1a:	30 e0       	ldi	r19, 0x00	; 0
    3a1c:	4b 81       	ldd	r20, Y+3	; 0x03
    3a1e:	65 e1       	ldi	r22, 0x15	; 21
    3a20:	09 95       	icall
    3a22:	0f 90       	pop	r0
    3a24:	0f 90       	pop	r0
    3a26:	0f 90       	pop	r0
    3a28:	df 91       	pop	r29
    3a2a:	cf 91       	pop	r28
    3a2c:	08 95       	ret

00003a2e <u8x8_cad_SendArg>:
    3a2e:	cf 93       	push	r28
    3a30:	df 93       	push	r29
    3a32:	00 d0       	rcall	.+0      	; 0x3a34 <u8x8_cad_SendArg+0x6>
    3a34:	1f 92       	push	r1
    3a36:	cd b7       	in	r28, 0x3d	; 61
    3a38:	de b7       	in	r29, 0x3e	; 62
    3a3a:	9a 83       	std	Y+2, r25	; 0x02
    3a3c:	89 83       	std	Y+1, r24	; 0x01
    3a3e:	6b 83       	std	Y+3, r22	; 0x03
    3a40:	89 81       	ldd	r24, Y+1	; 0x01
    3a42:	9a 81       	ldd	r25, Y+2	; 0x02
    3a44:	dc 01       	movw	r26, r24
    3a46:	16 96       	adiw	r26, 0x06	; 6
    3a48:	ed 91       	ld	r30, X+
    3a4a:	fc 91       	ld	r31, X
    3a4c:	17 97       	sbiw	r26, 0x07	; 7
    3a4e:	89 81       	ldd	r24, Y+1	; 0x01
    3a50:	9a 81       	ldd	r25, Y+2	; 0x02
    3a52:	20 e0       	ldi	r18, 0x00	; 0
    3a54:	30 e0       	ldi	r19, 0x00	; 0
    3a56:	4b 81       	ldd	r20, Y+3	; 0x03
    3a58:	66 e1       	ldi	r22, 0x16	; 22
    3a5a:	09 95       	icall
    3a5c:	0f 90       	pop	r0
    3a5e:	0f 90       	pop	r0
    3a60:	0f 90       	pop	r0
    3a62:	df 91       	pop	r29
    3a64:	cf 91       	pop	r28
    3a66:	08 95       	ret

00003a68 <u8x8_cad_SendData>:
    3a68:	cf 93       	push	r28
    3a6a:	df 93       	push	r29
    3a6c:	00 d0       	rcall	.+0      	; 0x3a6e <u8x8_cad_SendData+0x6>
    3a6e:	00 d0       	rcall	.+0      	; 0x3a70 <u8x8_cad_SendData+0x8>
    3a70:	1f 92       	push	r1
    3a72:	cd b7       	in	r28, 0x3d	; 61
    3a74:	de b7       	in	r29, 0x3e	; 62
    3a76:	9a 83       	std	Y+2, r25	; 0x02
    3a78:	89 83       	std	Y+1, r24	; 0x01
    3a7a:	6b 83       	std	Y+3, r22	; 0x03
    3a7c:	5d 83       	std	Y+5, r21	; 0x05
    3a7e:	4c 83       	std	Y+4, r20	; 0x04
    3a80:	89 81       	ldd	r24, Y+1	; 0x01
    3a82:	9a 81       	ldd	r25, Y+2	; 0x02
    3a84:	dc 01       	movw	r26, r24
    3a86:	16 96       	adiw	r26, 0x06	; 6
    3a88:	ed 91       	ld	r30, X+
    3a8a:	fc 91       	ld	r31, X
    3a8c:	17 97       	sbiw	r26, 0x07	; 7
    3a8e:	2c 81       	ldd	r18, Y+4	; 0x04
    3a90:	3d 81       	ldd	r19, Y+5	; 0x05
    3a92:	89 81       	ldd	r24, Y+1	; 0x01
    3a94:	9a 81       	ldd	r25, Y+2	; 0x02
    3a96:	4b 81       	ldd	r20, Y+3	; 0x03
    3a98:	67 e1       	ldi	r22, 0x17	; 23
    3a9a:	09 95       	icall
    3a9c:	0f 90       	pop	r0
    3a9e:	0f 90       	pop	r0
    3aa0:	0f 90       	pop	r0
    3aa2:	0f 90       	pop	r0
    3aa4:	0f 90       	pop	r0
    3aa6:	df 91       	pop	r29
    3aa8:	cf 91       	pop	r28
    3aaa:	08 95       	ret

00003aac <u8x8_cad_StartTransfer>:
    3aac:	cf 93       	push	r28
    3aae:	df 93       	push	r29
    3ab0:	00 d0       	rcall	.+0      	; 0x3ab2 <u8x8_cad_StartTransfer+0x6>
    3ab2:	cd b7       	in	r28, 0x3d	; 61
    3ab4:	de b7       	in	r29, 0x3e	; 62
    3ab6:	9a 83       	std	Y+2, r25	; 0x02
    3ab8:	89 83       	std	Y+1, r24	; 0x01
    3aba:	89 81       	ldd	r24, Y+1	; 0x01
    3abc:	9a 81       	ldd	r25, Y+2	; 0x02
    3abe:	dc 01       	movw	r26, r24
    3ac0:	16 96       	adiw	r26, 0x06	; 6
    3ac2:	ed 91       	ld	r30, X+
    3ac4:	fc 91       	ld	r31, X
    3ac6:	17 97       	sbiw	r26, 0x07	; 7
    3ac8:	89 81       	ldd	r24, Y+1	; 0x01
    3aca:	9a 81       	ldd	r25, Y+2	; 0x02
    3acc:	20 e0       	ldi	r18, 0x00	; 0
    3ace:	30 e0       	ldi	r19, 0x00	; 0
    3ad0:	40 e0       	ldi	r20, 0x00	; 0
    3ad2:	68 e1       	ldi	r22, 0x18	; 24
    3ad4:	09 95       	icall
    3ad6:	0f 90       	pop	r0
    3ad8:	0f 90       	pop	r0
    3ada:	df 91       	pop	r29
    3adc:	cf 91       	pop	r28
    3ade:	08 95       	ret

00003ae0 <u8x8_cad_EndTransfer>:
    3ae0:	cf 93       	push	r28
    3ae2:	df 93       	push	r29
    3ae4:	00 d0       	rcall	.+0      	; 0x3ae6 <u8x8_cad_EndTransfer+0x6>
    3ae6:	cd b7       	in	r28, 0x3d	; 61
    3ae8:	de b7       	in	r29, 0x3e	; 62
    3aea:	9a 83       	std	Y+2, r25	; 0x02
    3aec:	89 83       	std	Y+1, r24	; 0x01
    3aee:	89 81       	ldd	r24, Y+1	; 0x01
    3af0:	9a 81       	ldd	r25, Y+2	; 0x02
    3af2:	dc 01       	movw	r26, r24
    3af4:	16 96       	adiw	r26, 0x06	; 6
    3af6:	ed 91       	ld	r30, X+
    3af8:	fc 91       	ld	r31, X
    3afa:	17 97       	sbiw	r26, 0x07	; 7
    3afc:	89 81       	ldd	r24, Y+1	; 0x01
    3afe:	9a 81       	ldd	r25, Y+2	; 0x02
    3b00:	20 e0       	ldi	r18, 0x00	; 0
    3b02:	30 e0       	ldi	r19, 0x00	; 0
    3b04:	40 e0       	ldi	r20, 0x00	; 0
    3b06:	69 e1       	ldi	r22, 0x19	; 25
    3b08:	09 95       	icall
    3b0a:	0f 90       	pop	r0
    3b0c:	0f 90       	pop	r0
    3b0e:	df 91       	pop	r29
    3b10:	cf 91       	pop	r28
    3b12:	08 95       	ret

00003b14 <u8x8_cad_SendSequence>:
    3b14:	cf 93       	push	r28
    3b16:	df 93       	push	r29
    3b18:	00 d0       	rcall	.+0      	; 0x3b1a <u8x8_cad_SendSequence+0x6>
    3b1a:	00 d0       	rcall	.+0      	; 0x3b1c <u8x8_cad_SendSequence+0x8>
    3b1c:	00 d0       	rcall	.+0      	; 0x3b1e <u8x8_cad_SendSequence+0xa>
    3b1e:	cd b7       	in	r28, 0x3d	; 61
    3b20:	de b7       	in	r29, 0x3e	; 62
    3b22:	9c 83       	std	Y+4, r25	; 0x04
    3b24:	8b 83       	std	Y+3, r24	; 0x03
    3b26:	7e 83       	std	Y+6, r23	; 0x06
    3b28:	6d 83       	std	Y+5, r22	; 0x05
    3b2a:	8d 81       	ldd	r24, Y+5	; 0x05
    3b2c:	9e 81       	ldd	r25, Y+6	; 0x06
    3b2e:	dc 01       	movw	r26, r24
    3b30:	8c 91       	ld	r24, X
    3b32:	89 83       	std	Y+1, r24	; 0x01
    3b34:	8d 81       	ldd	r24, Y+5	; 0x05
    3b36:	9e 81       	ldd	r25, Y+6	; 0x06
    3b38:	01 96       	adiw	r24, 0x01	; 1
    3b3a:	9e 83       	std	Y+6, r25	; 0x06
    3b3c:	8d 83       	std	Y+5, r24	; 0x05
    3b3e:	89 81       	ldd	r24, Y+1	; 0x01
    3b40:	88 2f       	mov	r24, r24
    3b42:	90 e0       	ldi	r25, 0x00	; 0
    3b44:	87 31       	cpi	r24, 0x17	; 23
    3b46:	91 05       	cpc	r25, r1
    3b48:	39 f1       	breq	.+78     	; 0x3b98 <u8x8_cad_SendSequence+0x84>
    3b4a:	88 31       	cpi	r24, 0x18	; 24
    3b4c:	91 05       	cpc	r25, r1
    3b4e:	24 f4       	brge	.+8      	; 0x3b58 <u8x8_cad_SendSequence+0x44>
    3b50:	45 97       	sbiw	r24, 0x15	; 21
    3b52:	0c f4       	brge	.+2      	; 0x3b56 <u8x8_cad_SendSequence+0x42>
    3b54:	55 c0       	rjmp	.+170    	; 0x3c00 <u8x8_cad_SendSequence+0xec>
    3b56:	07 c0       	rjmp	.+14     	; 0x3b66 <u8x8_cad_SendSequence+0x52>
    3b58:	8a 31       	cpi	r24, 0x1A	; 26
    3b5a:	91 05       	cpc	r25, r1
    3b5c:	84 f1       	brlt	.+96     	; 0x3bbe <u8x8_cad_SendSequence+0xaa>
    3b5e:	8e 3f       	cpi	r24, 0xFE	; 254
    3b60:	91 05       	cpc	r25, r1
    3b62:	e1 f1       	breq	.+120    	; 0x3bdc <u8x8_cad_SendSequence+0xc8>
    3b64:	4d c0       	rjmp	.+154    	; 0x3c00 <u8x8_cad_SendSequence+0xec>
    3b66:	8d 81       	ldd	r24, Y+5	; 0x05
    3b68:	9e 81       	ldd	r25, Y+6	; 0x06
    3b6a:	fc 01       	movw	r30, r24
    3b6c:	80 81       	ld	r24, Z
    3b6e:	8a 83       	std	Y+2, r24	; 0x02
    3b70:	8b 81       	ldd	r24, Y+3	; 0x03
    3b72:	9c 81       	ldd	r25, Y+4	; 0x04
    3b74:	dc 01       	movw	r26, r24
    3b76:	16 96       	adiw	r26, 0x06	; 6
    3b78:	ed 91       	ld	r30, X+
    3b7a:	fc 91       	ld	r31, X
    3b7c:	17 97       	sbiw	r26, 0x07	; 7
    3b7e:	4a 81       	ldd	r20, Y+2	; 0x02
    3b80:	8b 81       	ldd	r24, Y+3	; 0x03
    3b82:	9c 81       	ldd	r25, Y+4	; 0x04
    3b84:	20 e0       	ldi	r18, 0x00	; 0
    3b86:	30 e0       	ldi	r19, 0x00	; 0
    3b88:	69 81       	ldd	r22, Y+1	; 0x01
    3b8a:	09 95       	icall
    3b8c:	8d 81       	ldd	r24, Y+5	; 0x05
    3b8e:	9e 81       	ldd	r25, Y+6	; 0x06
    3b90:	01 96       	adiw	r24, 0x01	; 1
    3b92:	9e 83       	std	Y+6, r25	; 0x06
    3b94:	8d 83       	std	Y+5, r24	; 0x05
    3b96:	33 c0       	rjmp	.+102    	; 0x3bfe <u8x8_cad_SendSequence+0xea>
    3b98:	8d 81       	ldd	r24, Y+5	; 0x05
    3b9a:	9e 81       	ldd	r25, Y+6	; 0x06
    3b9c:	fc 01       	movw	r30, r24
    3b9e:	80 81       	ld	r24, Z
    3ba0:	8a 83       	std	Y+2, r24	; 0x02
    3ba2:	9e 01       	movw	r18, r28
    3ba4:	2e 5f       	subi	r18, 0xFE	; 254
    3ba6:	3f 4f       	sbci	r19, 0xFF	; 255
    3ba8:	8b 81       	ldd	r24, Y+3	; 0x03
    3baa:	9c 81       	ldd	r25, Y+4	; 0x04
    3bac:	a9 01       	movw	r20, r18
    3bae:	61 e0       	ldi	r22, 0x01	; 1
    3bb0:	5b df       	rcall	.-330    	; 0x3a68 <u8x8_cad_SendData>
    3bb2:	8d 81       	ldd	r24, Y+5	; 0x05
    3bb4:	9e 81       	ldd	r25, Y+6	; 0x06
    3bb6:	01 96       	adiw	r24, 0x01	; 1
    3bb8:	9e 83       	std	Y+6, r25	; 0x06
    3bba:	8d 83       	std	Y+5, r24	; 0x05
    3bbc:	20 c0       	rjmp	.+64     	; 0x3bfe <u8x8_cad_SendSequence+0xea>
    3bbe:	8b 81       	ldd	r24, Y+3	; 0x03
    3bc0:	9c 81       	ldd	r25, Y+4	; 0x04
    3bc2:	dc 01       	movw	r26, r24
    3bc4:	16 96       	adiw	r26, 0x06	; 6
    3bc6:	ed 91       	ld	r30, X+
    3bc8:	fc 91       	ld	r31, X
    3bca:	17 97       	sbiw	r26, 0x07	; 7
    3bcc:	8b 81       	ldd	r24, Y+3	; 0x03
    3bce:	9c 81       	ldd	r25, Y+4	; 0x04
    3bd0:	20 e0       	ldi	r18, 0x00	; 0
    3bd2:	30 e0       	ldi	r19, 0x00	; 0
    3bd4:	40 e0       	ldi	r20, 0x00	; 0
    3bd6:	69 81       	ldd	r22, Y+1	; 0x01
    3bd8:	09 95       	icall
    3bda:	11 c0       	rjmp	.+34     	; 0x3bfe <u8x8_cad_SendSequence+0xea>
    3bdc:	8d 81       	ldd	r24, Y+5	; 0x05
    3bde:	9e 81       	ldd	r25, Y+6	; 0x06
    3be0:	fc 01       	movw	r30, r24
    3be2:	80 81       	ld	r24, Z
    3be4:	8a 83       	std	Y+2, r24	; 0x02
    3be6:	2a 81       	ldd	r18, Y+2	; 0x02
    3be8:	8b 81       	ldd	r24, Y+3	; 0x03
    3bea:	9c 81       	ldd	r25, Y+4	; 0x04
    3bec:	42 2f       	mov	r20, r18
    3bee:	69 e2       	ldi	r22, 0x29	; 41
    3bf0:	e9 d3       	rcall	.+2002   	; 0x43c4 <u8x8_gpio_call>
    3bf2:	8d 81       	ldd	r24, Y+5	; 0x05
    3bf4:	9e 81       	ldd	r25, Y+6	; 0x06
    3bf6:	01 96       	adiw	r24, 0x01	; 1
    3bf8:	9e 83       	std	Y+6, r25	; 0x06
    3bfa:	8d 83       	std	Y+5, r24	; 0x05
    3bfc:	00 00       	nop
    3bfe:	95 cf       	rjmp	.-214    	; 0x3b2a <u8x8_cad_SendSequence+0x16>
    3c00:	00 00       	nop
    3c02:	26 96       	adiw	r28, 0x06	; 6
    3c04:	0f b6       	in	r0, 0x3f	; 63
    3c06:	f8 94       	cli
    3c08:	de bf       	out	0x3e, r29	; 62
    3c0a:	0f be       	out	0x3f, r0	; 63
    3c0c:	cd bf       	out	0x3d, r28	; 61
    3c0e:	df 91       	pop	r29
    3c10:	cf 91       	pop	r28
    3c12:	08 95       	ret

00003c14 <u8x8_i2c_data_transfer>:
    3c14:	cf 93       	push	r28
    3c16:	df 93       	push	r29
    3c18:	00 d0       	rcall	.+0      	; 0x3c1a <u8x8_i2c_data_transfer+0x6>
    3c1a:	00 d0       	rcall	.+0      	; 0x3c1c <u8x8_i2c_data_transfer+0x8>
    3c1c:	1f 92       	push	r1
    3c1e:	cd b7       	in	r28, 0x3d	; 61
    3c20:	de b7       	in	r29, 0x3e	; 62
    3c22:	9a 83       	std	Y+2, r25	; 0x02
    3c24:	89 83       	std	Y+1, r24	; 0x01
    3c26:	6b 83       	std	Y+3, r22	; 0x03
    3c28:	5d 83       	std	Y+5, r21	; 0x05
    3c2a:	4c 83       	std	Y+4, r20	; 0x04
    3c2c:	89 81       	ldd	r24, Y+1	; 0x01
    3c2e:	9a 81       	ldd	r25, Y+2	; 0x02
    3c30:	f6 dc       	rcall	.-1556   	; 0x361e <u8x8_byte_StartTransfer>
    3c32:	89 81       	ldd	r24, Y+1	; 0x01
    3c34:	9a 81       	ldd	r25, Y+2	; 0x02
    3c36:	60 e4       	ldi	r22, 0x40	; 64
    3c38:	db dc       	rcall	.-1610   	; 0x35f0 <u8x8_byte_SendByte>
    3c3a:	89 81       	ldd	r24, Y+1	; 0x01
    3c3c:	9a 81       	ldd	r25, Y+2	; 0x02
    3c3e:	dc 01       	movw	r26, r24
    3c40:	18 96       	adiw	r26, 0x08	; 8
    3c42:	ed 91       	ld	r30, X+
    3c44:	fc 91       	ld	r31, X
    3c46:	19 97       	sbiw	r26, 0x09	; 9
    3c48:	2c 81       	ldd	r18, Y+4	; 0x04
    3c4a:	3d 81       	ldd	r19, Y+5	; 0x05
    3c4c:	89 81       	ldd	r24, Y+1	; 0x01
    3c4e:	9a 81       	ldd	r25, Y+2	; 0x02
    3c50:	4b 81       	ldd	r20, Y+3	; 0x03
    3c52:	67 e1       	ldi	r22, 0x17	; 23
    3c54:	09 95       	icall
    3c56:	89 81       	ldd	r24, Y+1	; 0x01
    3c58:	9a 81       	ldd	r25, Y+2	; 0x02
    3c5a:	fb dc       	rcall	.-1546   	; 0x3652 <u8x8_byte_EndTransfer>
    3c5c:	00 00       	nop
    3c5e:	0f 90       	pop	r0
    3c60:	0f 90       	pop	r0
    3c62:	0f 90       	pop	r0
    3c64:	0f 90       	pop	r0
    3c66:	0f 90       	pop	r0
    3c68:	df 91       	pop	r29
    3c6a:	cf 91       	pop	r28
    3c6c:	08 95       	ret

00003c6e <u8x8_cad_ssd13xx_fast_i2c>:


/* fast version with reduced data start/stops, issue 735 */
uint8_t u8x8_cad_ssd13xx_fast_i2c(u8x8_t *u8x8, uint8_t msg, uint8_t arg_int, void *arg_ptr)
{
    3c6e:	cf 93       	push	r28
    3c70:	df 93       	push	r29
    3c72:	cd b7       	in	r28, 0x3d	; 61
    3c74:	de b7       	in	r29, 0x3e	; 62
    3c76:	28 97       	sbiw	r28, 0x08	; 8
    3c78:	0f b6       	in	r0, 0x3f	; 63
    3c7a:	f8 94       	cli
    3c7c:	de bf       	out	0x3e, r29	; 62
    3c7e:	0f be       	out	0x3f, r0	; 63
    3c80:	cd bf       	out	0x3d, r28	; 61
    3c82:	9c 83       	std	Y+4, r25	; 0x04
    3c84:	8b 83       	std	Y+3, r24	; 0x03
    3c86:	6d 83       	std	Y+5, r22	; 0x05
    3c88:	4e 83       	std	Y+6, r20	; 0x06
    3c8a:	38 87       	std	Y+8, r19	; 0x08
    3c8c:	2f 83       	std	Y+7, r18	; 0x07
  static uint8_t in_transfer = 0;
  uint8_t *p;
  switch(msg)
    3c8e:	8d 81       	ldd	r24, Y+5	; 0x05
    3c90:	88 2f       	mov	r24, r24
    3c92:	90 e0       	ldi	r25, 0x00	; 0
    3c94:	86 31       	cpi	r24, 0x16	; 22
    3c96:	91 05       	cpc	r25, r1
    3c98:	59 f1       	breq	.+86     	; 0x3cf0 <u8x8_cad_ssd13xx_fast_i2c+0x82>
    3c9a:	87 31       	cpi	r24, 0x17	; 23
    3c9c:	91 05       	cpc	r25, r1
    3c9e:	3c f4       	brge	.+14     	; 0x3cae <u8x8_cad_ssd13xx_fast_i2c+0x40>
    3ca0:	84 31       	cpi	r24, 0x14	; 20
    3ca2:	91 05       	cpc	r25, r1
    3ca4:	09 f4       	brne	.+2      	; 0x3ca8 <u8x8_cad_ssd13xx_fast_i2c+0x3a>
    3ca6:	51 c0       	rjmp	.+162    	; 0x3d4a <u8x8_cad_ssd13xx_fast_i2c+0xdc>
    3ca8:	45 97       	sbiw	r24, 0x15	; 21
    3caa:	61 f0       	breq	.+24     	; 0x3cc4 <u8x8_cad_ssd13xx_fast_i2c+0x56>
    3cac:	76 c0       	rjmp	.+236    	; 0x3d9a <u8x8_cad_ssd13xx_fast_i2c+0x12c>
    3cae:	88 31       	cpi	r24, 0x18	; 24
    3cb0:	91 05       	cpc	r25, r1
    3cb2:	09 f4       	brne	.+2      	; 0x3cb6 <u8x8_cad_ssd13xx_fast_i2c+0x48>
    3cb4:	65 c0       	rjmp	.+202    	; 0x3d80 <u8x8_cad_ssd13xx_fast_i2c+0x112>
    3cb6:	88 31       	cpi	r24, 0x18	; 24
    3cb8:	91 05       	cpc	r25, r1
    3cba:	fc f0       	brlt	.+62     	; 0x3cfa <u8x8_cad_ssd13xx_fast_i2c+0x8c>
    3cbc:	49 97       	sbiw	r24, 0x19	; 25
    3cbe:	09 f4       	brne	.+2      	; 0x3cc2 <u8x8_cad_ssd13xx_fast_i2c+0x54>
    3cc0:	62 c0       	rjmp	.+196    	; 0x3d86 <u8x8_cad_ssd13xx_fast_i2c+0x118>
    3cc2:	6b c0       	rjmp	.+214    	; 0x3d9a <u8x8_cad_ssd13xx_fast_i2c+0x12c>
  {
    case U8X8_MSG_CAD_SEND_CMD:
      /* improved version, takeover from ld7032 */
      /* assumes, that the args of a command is not longer than 31 bytes */
      /* speed improvement is about 4% compared to the classic version */
      if ( in_transfer != 0 )
    3cc4:	80 91 90 05 	lds	r24, 0x0590	; 0x800590 <in_transfer.3254>
    3cc8:	88 23       	and	r24, r24
    3cca:	19 f0       	breq	.+6      	; 0x3cd2 <u8x8_cad_ssd13xx_fast_i2c+0x64>
	 u8x8_byte_EndTransfer(u8x8); 
    3ccc:	8b 81       	ldd	r24, Y+3	; 0x03
    3cce:	9c 81       	ldd	r25, Y+4	; 0x04
    3cd0:	c0 dc       	rcall	.-1664   	; 0x3652 <u8x8_byte_EndTransfer>
      
      u8x8_byte_StartTransfer(u8x8);
    3cd2:	8b 81       	ldd	r24, Y+3	; 0x03
    3cd4:	9c 81       	ldd	r25, Y+4	; 0x04
    3cd6:	a3 dc       	rcall	.-1722   	; 0x361e <u8x8_byte_StartTransfer>
      u8x8_byte_SendByte(u8x8, 0x000);	/* cmd byte for ssd13xx controller */
    3cd8:	8b 81       	ldd	r24, Y+3	; 0x03
    3cda:	9c 81       	ldd	r25, Y+4	; 0x04
    3cdc:	60 e0       	ldi	r22, 0x00	; 0
    3cde:	88 dc       	rcall	.-1776   	; 0x35f0 <u8x8_byte_SendByte>
      u8x8_byte_SendByte(u8x8, arg_int);
    3ce0:	8b 81       	ldd	r24, Y+3	; 0x03
    3ce2:	9c 81       	ldd	r25, Y+4	; 0x04
    3ce4:	6e 81       	ldd	r22, Y+6	; 0x06
    3ce6:	84 dc       	rcall	.-1784   	; 0x35f0 <u8x8_byte_SendByte>
      in_transfer = 1;
    3ce8:	81 e0       	ldi	r24, 0x01	; 1
    3cea:	80 93 90 05 	sts	0x0590, r24	; 0x800590 <in_transfer.3254>
	//   in_transfer = 1;
	// }
	//u8x8_byte_SendByte(u8x8, arg_int);
      break;
    case U8X8_MSG_CAD_SEND_ARG:
      u8x8_byte_SendByte(u8x8, arg_int);
    3cee:	57 c0       	rjmp	.+174    	; 0x3d9e <u8x8_cad_ssd13xx_fast_i2c+0x130>
    3cf0:	8b 81       	ldd	r24, Y+3	; 0x03
    3cf2:	9c 81       	ldd	r25, Y+4	; 0x04
    3cf4:	6e 81       	ldd	r22, Y+6	; 0x06
    3cf6:	7c dc       	rcall	.-1800   	; 0x35f0 <u8x8_byte_SendByte>
      break;      
    3cf8:	52 c0       	rjmp	.+164    	; 0x3d9e <u8x8_cad_ssd13xx_fast_i2c+0x130>
    case U8X8_MSG_CAD_SEND_DATA:
      if ( in_transfer != 0 )
    3cfa:	80 91 90 05 	lds	r24, 0x0590	; 0x800590 <in_transfer.3254>
    3cfe:	88 23       	and	r24, r24
	u8x8_byte_EndTransfer(u8x8); 
    3d00:	19 f0       	breq	.+6      	; 0x3d08 <u8x8_cad_ssd13xx_fast_i2c+0x9a>
    3d02:	8b 81       	ldd	r24, Y+3	; 0x03
    3d04:	9c 81       	ldd	r25, Y+4	; 0x04
    3d06:	a5 dc       	rcall	.-1718   	; 0x3652 <u8x8_byte_EndTransfer>
      /* smaller streams, 32 seems to be the limit... */
      /* I guess this is related to the size of the Wire buffers in Arduino */
      /* Unfortunately, this can not be handled in the byte level drivers, */
      /* so this is done here. Even further, only 24 bytes will be sent, */
      /* because there will be another byte (DC) required during the transfer */
      p = arg_ptr;
    3d08:	8f 81       	ldd	r24, Y+7	; 0x07
    3d0a:	98 85       	ldd	r25, Y+8	; 0x08
    3d0c:	9a 83       	std	Y+2, r25	; 0x02
    3d0e:	89 83       	std	Y+1, r24	; 0x01
       while( arg_int > 24 )
    3d10:	0f c0       	rjmp	.+30     	; 0x3d30 <u8x8_cad_ssd13xx_fast_i2c+0xc2>
      {
	u8x8_i2c_data_transfer(u8x8, 24, p);
    3d12:	29 81       	ldd	r18, Y+1	; 0x01
    3d14:	3a 81       	ldd	r19, Y+2	; 0x02
    3d16:	8b 81       	ldd	r24, Y+3	; 0x03
    3d18:	9c 81       	ldd	r25, Y+4	; 0x04
    3d1a:	a9 01       	movw	r20, r18
    3d1c:	68 e1       	ldi	r22, 0x18	; 24
    3d1e:	7a df       	rcall	.-268    	; 0x3c14 <u8x8_i2c_data_transfer>
	arg_int-=24;
    3d20:	8e 81       	ldd	r24, Y+6	; 0x06
    3d22:	88 51       	subi	r24, 0x18	; 24
    3d24:	8e 83       	std	Y+6, r24	; 0x06
	p+=24;
    3d26:	89 81       	ldd	r24, Y+1	; 0x01
    3d28:	9a 81       	ldd	r25, Y+2	; 0x02
    3d2a:	48 96       	adiw	r24, 0x18	; 24
    3d2c:	9a 83       	std	Y+2, r25	; 0x02
    3d2e:	89 83       	std	Y+1, r24	; 0x01
      /* I guess this is related to the size of the Wire buffers in Arduino */
      /* Unfortunately, this can not be handled in the byte level drivers, */
      /* so this is done here. Even further, only 24 bytes will be sent, */
      /* because there will be another byte (DC) required during the transfer */
      p = arg_ptr;
       while( arg_int > 24 )
    3d30:	8e 81       	ldd	r24, Y+6	; 0x06
    3d32:	89 31       	cpi	r24, 0x19	; 25
      {
	u8x8_i2c_data_transfer(u8x8, 24, p);
	arg_int-=24;
	p+=24;
      }
      u8x8_i2c_data_transfer(u8x8, arg_int, p);
    3d34:	70 f7       	brcc	.-36     	; 0x3d12 <u8x8_cad_ssd13xx_fast_i2c+0xa4>
    3d36:	29 81       	ldd	r18, Y+1	; 0x01
    3d38:	3a 81       	ldd	r19, Y+2	; 0x02
    3d3a:	8b 81       	ldd	r24, Y+3	; 0x03
    3d3c:	9c 81       	ldd	r25, Y+4	; 0x04
    3d3e:	a9 01       	movw	r20, r18
    3d40:	6e 81       	ldd	r22, Y+6	; 0x06
    3d42:	68 df       	rcall	.-304    	; 0x3c14 <u8x8_i2c_data_transfer>
      in_transfer = 0;
    3d44:	10 92 90 05 	sts	0x0590, r1	; 0x800590 <in_transfer.3254>
      break;
    3d48:	2a c0       	rjmp	.+84     	; 0x3d9e <u8x8_cad_ssd13xx_fast_i2c+0x130>
    case U8X8_MSG_CAD_INIT:
      /* apply default i2c adr if required so that the start transfer msg can use this */
      if ( u8x8->i2c_address == 255 )
    3d4a:	8b 81       	ldd	r24, Y+3	; 0x03
    3d4c:	9c 81       	ldd	r25, Y+4	; 0x04
    3d4e:	dc 01       	movw	r26, r24
    3d50:	56 96       	adiw	r26, 0x16	; 22
    3d52:	8c 91       	ld	r24, X
    3d54:	8f 3f       	cpi	r24, 0xFF	; 255
    3d56:	29 f4       	brne	.+10     	; 0x3d62 <u8x8_cad_ssd13xx_fast_i2c+0xf4>
	u8x8->i2c_address = 0x078;
    3d58:	8b 81       	ldd	r24, Y+3	; 0x03
    3d5a:	9c 81       	ldd	r25, Y+4	; 0x04
    3d5c:	28 e7       	ldi	r18, 0x78	; 120
    3d5e:	fc 01       	movw	r30, r24
    3d60:	26 8b       	std	Z+22, r18	; 0x16
      return u8x8->byte_cb(u8x8, msg, arg_int, arg_ptr);
    3d62:	8b 81       	ldd	r24, Y+3	; 0x03
    3d64:	9c 81       	ldd	r25, Y+4	; 0x04
    3d66:	dc 01       	movw	r26, r24
    3d68:	18 96       	adiw	r26, 0x08	; 8
    3d6a:	ed 91       	ld	r30, X+
    3d6c:	fc 91       	ld	r31, X
    3d6e:	19 97       	sbiw	r26, 0x09	; 9
    3d70:	2f 81       	ldd	r18, Y+7	; 0x07
    3d72:	38 85       	ldd	r19, Y+8	; 0x08
    3d74:	8b 81       	ldd	r24, Y+3	; 0x03
    3d76:	9c 81       	ldd	r25, Y+4	; 0x04
    3d78:	4e 81       	ldd	r20, Y+6	; 0x06
    3d7a:	6d 81       	ldd	r22, Y+5	; 0x05
    3d7c:	09 95       	icall
    3d7e:	10 c0       	rjmp	.+32     	; 0x3da0 <u8x8_cad_ssd13xx_fast_i2c+0x132>
    case U8X8_MSG_CAD_START_TRANSFER:
      in_transfer = 0;
    3d80:	10 92 90 05 	sts	0x0590, r1	; 0x800590 <in_transfer.3254>
      break;
    case U8X8_MSG_CAD_END_TRANSFER:
      if ( in_transfer != 0 )
    3d84:	0c c0       	rjmp	.+24     	; 0x3d9e <u8x8_cad_ssd13xx_fast_i2c+0x130>
    3d86:	80 91 90 05 	lds	r24, 0x0590	; 0x800590 <in_transfer.3254>
    3d8a:	88 23       	and	r24, r24
	u8x8_byte_EndTransfer(u8x8); 
    3d8c:	19 f0       	breq	.+6      	; 0x3d94 <u8x8_cad_ssd13xx_fast_i2c+0x126>
    3d8e:	8b 81       	ldd	r24, Y+3	; 0x03
    3d90:	9c 81       	ldd	r25, Y+4	; 0x04
    3d92:	5f dc       	rcall	.-1858   	; 0x3652 <u8x8_byte_EndTransfer>
      in_transfer = 0;
    3d94:	10 92 90 05 	sts	0x0590, r1	; 0x800590 <in_transfer.3254>
      break;
    3d98:	02 c0       	rjmp	.+4      	; 0x3d9e <u8x8_cad_ssd13xx_fast_i2c+0x130>
    default:
      return 0;
    3d9a:	80 e0       	ldi	r24, 0x00	; 0
    3d9c:	01 c0       	rjmp	.+2      	; 0x3da0 <u8x8_cad_ssd13xx_fast_i2c+0x132>
  }
  return 1;
    3d9e:	81 e0       	ldi	r24, 0x01	; 1
}
    3da0:	28 96       	adiw	r28, 0x08	; 8
    3da2:	0f b6       	in	r0, 0x3f	; 63
    3da4:	f8 94       	cli
    3da6:	de bf       	out	0x3e, r29	; 62
    3da8:	0f be       	out	0x3f, r0	; 63
    3daa:	cd bf       	out	0x3d, r28	; 61
    3dac:	df 91       	pop	r29
    3dae:	cf 91       	pop	r28
    3db0:	08 95       	ret

00003db2 <u8x8_read_pin_state>:
*/

#include "u8x8.h"

static uint8_t u8x8_read_pin_state(u8x8_t *u8x8)
{
    3db2:	cf 93       	push	r28
    3db4:	df 93       	push	r29
    3db6:	00 d0       	rcall	.+0      	; 0x3db8 <u8x8_read_pin_state+0x6>
    3db8:	00 d0       	rcall	.+0      	; 0x3dba <u8x8_read_pin_state+0x8>
    3dba:	cd b7       	in	r28, 0x3d	; 61
    3dbc:	de b7       	in	r29, 0x3e	; 62
    3dbe:	9c 83       	std	Y+4, r25	; 0x04
    3dc0:	8b 83       	std	Y+3, r24	; 0x03
  uint8_t i;
  uint8_t pin_state;
  
  pin_state = 255;	/* be compatible with the setup of the default pin setup, which is 255 */
    3dc2:	8f ef       	ldi	r24, 0xFF	; 255
    3dc4:	8a 83       	std	Y+2, r24	; 0x02
  for( i = 0; i < U8X8_PIN_INPUT_CNT; i++ )
    3dc6:	19 82       	std	Y+1, r1	; 0x01
    3dc8:	1c c0       	rjmp	.+56     	; 0x3e02 <u8x8_read_pin_state+0x50>
  {
    pin_state <<= 1;
    3dca:	8a 81       	ldd	r24, Y+2	; 0x02
    3dcc:	88 0f       	add	r24, r24
    3dce:	8a 83       	std	Y+2, r24	; 0x02
    
    /* the callback function should put the return value into this variable */
    u8x8->gpio_result = 1;
    3dd0:	8b 81       	ldd	r24, Y+3	; 0x03
    3dd2:	9c 81       	ldd	r25, Y+4	; 0x04
    3dd4:	21 e0       	ldi	r18, 0x01	; 1
    3dd6:	fc 01       	movw	r30, r24
    3dd8:	22 8f       	std	Z+26, r18	; 0x1a
    u8x8_gpio_call(u8x8, U8X8_MSG_GPIO(i+U8X8_PIN_OUTPUT_CNT), 0);
    3dda:	89 81       	ldd	r24, Y+1	; 0x01
    3ddc:	20 e5       	ldi	r18, 0x50	; 80
    3dde:	28 0f       	add	r18, r24
    3de0:	8b 81       	ldd	r24, Y+3	; 0x03
    3de2:	9c 81       	ldd	r25, Y+4	; 0x04
    3de4:	40 e0       	ldi	r20, 0x00	; 0
    3de6:	62 2f       	mov	r22, r18
    3de8:	ed d2       	rcall	.+1498   	; 0x43c4 <u8x8_gpio_call>
    pin_state |= u8x8->gpio_result & 1;
    3dea:	8b 81       	ldd	r24, Y+3	; 0x03
    3dec:	9c 81       	ldd	r25, Y+4	; 0x04
    3dee:	fc 01       	movw	r30, r24
    3df0:	82 8d       	ldd	r24, Z+26	; 0x1a
    3df2:	98 2f       	mov	r25, r24
    3df4:	91 70       	andi	r25, 0x01	; 1
    3df6:	8a 81       	ldd	r24, Y+2	; 0x02
    3df8:	89 2b       	or	r24, r25
    3dfa:	8a 83       	std	Y+2, r24	; 0x02
{
  uint8_t i;
  uint8_t pin_state;
  
  pin_state = 255;	/* be compatible with the setup of the default pin setup, which is 255 */
  for( i = 0; i < U8X8_PIN_INPUT_CNT; i++ )
    3dfc:	89 81       	ldd	r24, Y+1	; 0x01
    3dfe:	8f 5f       	subi	r24, 0xFF	; 255
    3e00:	89 83       	std	Y+1, r24	; 0x01
    3e02:	89 81       	ldd	r24, Y+1	; 0x01
    3e04:	86 30       	cpi	r24, 0x06	; 6
    3e06:	08 f3       	brcs	.-62     	; 0x3dca <u8x8_read_pin_state+0x18>
    u8x8->gpio_result = 1;
    u8x8_gpio_call(u8x8, U8X8_MSG_GPIO(i+U8X8_PIN_OUTPUT_CNT), 0);
    pin_state |= u8x8->gpio_result & 1;
  }
  
  return pin_state;
    3e08:	8a 81       	ldd	r24, Y+2	; 0x02
}
    3e0a:	0f 90       	pop	r0
    3e0c:	0f 90       	pop	r0
    3e0e:	0f 90       	pop	r0
    3e10:	0f 90       	pop	r0
    3e12:	df 91       	pop	r29
    3e14:	cf 91       	pop	r28
    3e16:	08 95       	ret

00003e18 <u8x8_find_first_diff>:
/*
  return 0 to U8X8_PIN_INPUT_CNT-1 if there is a difference
  return U8X8_PIN_INPUT_CNT if there is no difference
*/
static uint8_t u8x8_find_first_diff(uint8_t a, uint8_t b)
{
    3e18:	cf 93       	push	r28
    3e1a:	df 93       	push	r29
    3e1c:	00 d0       	rcall	.+0      	; 0x3e1e <u8x8_find_first_diff+0x6>
    3e1e:	00 d0       	rcall	.+0      	; 0x3e20 <u8x8_find_first_diff+0x8>
    3e20:	cd b7       	in	r28, 0x3d	; 61
    3e22:	de b7       	in	r29, 0x3e	; 62
    3e24:	8b 83       	std	Y+3, r24	; 0x03
    3e26:	6c 83       	std	Y+4, r22	; 0x04
  uint8_t mask;
  uint8_t i;
  mask = 1;
    3e28:	81 e0       	ldi	r24, 0x01	; 1
    3e2a:	89 83       	std	Y+1, r24	; 0x01
  i = U8X8_PIN_INPUT_CNT;
    3e2c:	86 e0       	ldi	r24, 0x06	; 6
    3e2e:	8a 83       	std	Y+2, r24	; 0x02
  do
  {
    i--;
    3e30:	8a 81       	ldd	r24, Y+2	; 0x02
    3e32:	81 50       	subi	r24, 0x01	; 1
    3e34:	8a 83       	std	Y+2, r24	; 0x02
    if ( (a & mask) != (b & mask) )
    3e36:	9b 81       	ldd	r25, Y+3	; 0x03
    3e38:	8c 81       	ldd	r24, Y+4	; 0x04
    3e3a:	98 27       	eor	r25, r24
    3e3c:	89 81       	ldd	r24, Y+1	; 0x01
    3e3e:	89 23       	and	r24, r25
    3e40:	88 23       	and	r24, r24
    3e42:	11 f0       	breq	.+4      	; 0x3e48 <u8x8_find_first_diff+0x30>
      return i;
    3e44:	8a 81       	ldd	r24, Y+2	; 0x02
    3e46:	07 c0       	rjmp	.+14     	; 0x3e56 <u8x8_find_first_diff+0x3e>
    mask <<= 1;
    3e48:	89 81       	ldd	r24, Y+1	; 0x01
    3e4a:	88 0f       	add	r24, r24
    3e4c:	89 83       	std	Y+1, r24	; 0x01
  } while( i > 0 );
    3e4e:	8a 81       	ldd	r24, Y+2	; 0x02
    3e50:	88 23       	and	r24, r24
    3e52:	71 f7       	brne	.-36     	; 0x3e30 <u8x8_find_first_diff+0x18>
  return U8X8_PIN_INPUT_CNT;
    3e54:	86 e0       	ldi	r24, 0x06	; 6
}
    3e56:	0f 90       	pop	r0
    3e58:	0f 90       	pop	r0
    3e5a:	0f 90       	pop	r0
    3e5c:	0f 90       	pop	r0
    3e5e:	df 91       	pop	r29
    3e60:	cf 91       	pop	r28
    3e62:	08 95       	ret

00003e64 <u8x8_GetMenuEvent>:
/* returns 0, if there is no event */
#if defined(__GNUC__) && !defined(__CYGWIN__)
# pragma weak  u8x8_GetMenuEvent
#endif
uint8_t u8x8_GetMenuEvent(u8x8_t *u8x8)
{
    3e64:	cf 93       	push	r28
    3e66:	df 93       	push	r29
    3e68:	00 d0       	rcall	.+0      	; 0x3e6a <u8x8_GetMenuEvent+0x6>
    3e6a:	00 d0       	rcall	.+0      	; 0x3e6c <u8x8_GetMenuEvent+0x8>
    3e6c:	cd b7       	in	r28, 0x3d	; 61
    3e6e:	de b7       	in	r29, 0x3e	; 62
    3e70:	9c 83       	std	Y+4, r25	; 0x04
    3e72:	8b 83       	std	Y+3, r24	; 0x03
  uint8_t pin_state;
  uint8_t result_msg = 0;	/* invalid message, no event */
    3e74:	19 82       	std	Y+1, r1	; 0x01
  
  pin_state = u8x8_read_pin_state(u8x8);
    3e76:	8b 81       	ldd	r24, Y+3	; 0x03
    3e78:	9c 81       	ldd	r25, Y+4	; 0x04
    3e7a:	9b df       	rcall	.-202    	; 0x3db2 <u8x8_read_pin_state>
    3e7c:	8a 83       	std	Y+2, r24	; 0x02
  
  /* States A, B, C & D are encoded in the upper 4 bit*/
  switch(u8x8->debounce_state)
    3e7e:	8b 81       	ldd	r24, Y+3	; 0x03
    3e80:	9c 81       	ldd	r25, Y+4	; 0x04
    3e82:	fc 01       	movw	r30, r24
    3e84:	85 8d       	ldd	r24, Z+29	; 0x1d
    3e86:	88 2f       	mov	r24, r24
    3e88:	90 e0       	ldi	r25, 0x00	; 0
    3e8a:	80 31       	cpi	r24, 0x10	; 16
    3e8c:	91 05       	cpc	r25, r1
    3e8e:	d1 f0       	breq	.+52     	; 0x3ec4 <u8x8_GetMenuEvent+0x60>
    3e90:	81 31       	cpi	r24, 0x11	; 17
    3e92:	91 05       	cpc	r25, r1
    3e94:	1c f4       	brge	.+6      	; 0x3e9c <u8x8_GetMenuEvent+0x38>
    3e96:	89 2b       	or	r24, r25
    3e98:	39 f0       	breq	.+14     	; 0x3ea8 <u8x8_GetMenuEvent+0x44>
    3e9a:	55 c0       	rjmp	.+170    	; 0x3f46 <u8x8_GetMenuEvent+0xe2>
    3e9c:	80 32       	cpi	r24, 0x20	; 32
    3e9e:	91 05       	cpc	r25, r1
    3ea0:	41 f1       	breq	.+80     	; 0x3ef2 <u8x8_GetMenuEvent+0x8e>
    3ea2:	c0 97       	sbiw	r24, 0x30	; 48
    3ea4:	c1 f1       	breq	.+112    	; 0x3f16 <u8x8_GetMenuEvent+0xb2>
    3ea6:	4f c0       	rjmp	.+158    	; 0x3f46 <u8x8_GetMenuEvent+0xe2>
  {
    case 0x00:	/* State A, default state */
      if ( u8x8->debounce_default_pin_state != pin_state )
    3ea8:	8b 81       	ldd	r24, Y+3	; 0x03
    3eaa:	9c 81       	ldd	r25, Y+4	; 0x04
    3eac:	fc 01       	movw	r30, r24
    3eae:	93 8d       	ldd	r25, Z+27	; 0x1b
    3eb0:	8a 81       	ldd	r24, Y+2	; 0x02
    3eb2:	98 17       	cp	r25, r24
    3eb4:	09 f4       	brne	.+2      	; 0x3eb8 <u8x8_GetMenuEvent+0x54>
    3eb6:	52 c0       	rjmp	.+164    	; 0x3f5c <u8x8_GetMenuEvent+0xf8>
      {
	//u8x8->debounce_last_pin_state = pin_state;
	u8x8->debounce_state = 0x010 + U8X8_DEBOUNCE_WAIT;
    3eb8:	8b 81       	ldd	r24, Y+3	; 0x03
    3eba:	9c 81       	ldd	r25, Y+4	; 0x04
    3ebc:	22 e1       	ldi	r18, 0x12	; 18
    3ebe:	fc 01       	movw	r30, r24
    3ec0:	25 8f       	std	Z+29, r18	; 0x1d
      }
      break;
    3ec2:	4c c0       	rjmp	.+152    	; 0x3f5c <u8x8_GetMenuEvent+0xf8>
    case 0x10:	/* State B */
      //if ( u8x8->debounce_last_pin_state != pin_state )
      if ( u8x8->debounce_default_pin_state == pin_state )
    3ec4:	8b 81       	ldd	r24, Y+3	; 0x03
    3ec6:	9c 81       	ldd	r25, Y+4	; 0x04
    3ec8:	fc 01       	movw	r30, r24
    3eca:	93 8d       	ldd	r25, Z+27	; 0x1b
    3ecc:	8a 81       	ldd	r24, Y+2	; 0x02
    3ece:	98 17       	cp	r25, r24
    3ed0:	29 f4       	brne	.+10     	; 0x3edc <u8x8_GetMenuEvent+0x78>
      {
	u8x8->debounce_state = 0x00;	/* back to state A */
    3ed2:	8b 81       	ldd	r24, Y+3	; 0x03
    3ed4:	9c 81       	ldd	r25, Y+4	; 0x04
    3ed6:	fc 01       	movw	r30, r24
    3ed8:	15 8e       	std	Z+29, r1	; 0x1d
	/* keypress detected */
	u8x8->debounce_last_pin_state = pin_state;
	//result_msg = U8X8_MSG_GPIO_MENU_NEXT;
	u8x8->debounce_state = 0x020 + U8X8_DEBOUNCE_WAIT;	/* got to state C */	
      }
      break;
    3eda:	43 c0       	rjmp	.+134    	; 0x3f62 <u8x8_GetMenuEvent+0xfe>
	u8x8->debounce_state = 0x00;	/* back to state A */
      }
      else
      {
	/* keypress detected */
	u8x8->debounce_last_pin_state = pin_state;
    3edc:	8b 81       	ldd	r24, Y+3	; 0x03
    3ede:	9c 81       	ldd	r25, Y+4	; 0x04
    3ee0:	2a 81       	ldd	r18, Y+2	; 0x02
    3ee2:	fc 01       	movw	r30, r24
    3ee4:	24 8f       	std	Z+28, r18	; 0x1c
	//result_msg = U8X8_MSG_GPIO_MENU_NEXT;
	u8x8->debounce_state = 0x020 + U8X8_DEBOUNCE_WAIT;	/* got to state C */	
    3ee6:	8b 81       	ldd	r24, Y+3	; 0x03
    3ee8:	9c 81       	ldd	r25, Y+4	; 0x04
    3eea:	22 e2       	ldi	r18, 0x22	; 34
    3eec:	fc 01       	movw	r30, r24
    3eee:	25 8f       	std	Z+29, r18	; 0x1d
      }
      break;
    3ef0:	38 c0       	rjmp	.+112    	; 0x3f62 <u8x8_GetMenuEvent+0xfe>
      
    case 0x20:	/* State C */
      if ( u8x8->debounce_last_pin_state != pin_state )
    3ef2:	8b 81       	ldd	r24, Y+3	; 0x03
    3ef4:	9c 81       	ldd	r25, Y+4	; 0x04
    3ef6:	fc 01       	movw	r30, r24
    3ef8:	94 8d       	ldd	r25, Z+28	; 0x1c
    3efa:	8a 81       	ldd	r24, Y+2	; 0x02
    3efc:	98 17       	cp	r25, r24
    3efe:	29 f0       	breq	.+10     	; 0x3f0a <u8x8_GetMenuEvent+0xa6>
      {
	u8x8->debounce_state = 0x00;	/* back to state A */
    3f00:	8b 81       	ldd	r24, Y+3	; 0x03
    3f02:	9c 81       	ldd	r25, Y+4	; 0x04
    3f04:	fc 01       	movw	r30, r24
    3f06:	15 8e       	std	Z+29, r1	; 0x1d
      }
      else
      {
	u8x8->debounce_state = 0x030;	/* got to state D */	
      }
      break;
    3f08:	2c c0       	rjmp	.+88     	; 0x3f62 <u8x8_GetMenuEvent+0xfe>
      {
	u8x8->debounce_state = 0x00;	/* back to state A */
      }
      else
      {
	u8x8->debounce_state = 0x030;	/* got to state D */	
    3f0a:	8b 81       	ldd	r24, Y+3	; 0x03
    3f0c:	9c 81       	ldd	r25, Y+4	; 0x04
    3f0e:	20 e3       	ldi	r18, 0x30	; 48
    3f10:	fc 01       	movw	r30, r24
    3f12:	25 8f       	std	Z+29, r18	; 0x1d
      }
      break;
    3f14:	26 c0       	rjmp	.+76     	; 0x3f62 <u8x8_GetMenuEvent+0xfe>
      
    case 0x30:	/* State D */
      /* wait until key release */
      if ( u8x8->debounce_default_pin_state == pin_state )
    3f16:	8b 81       	ldd	r24, Y+3	; 0x03
    3f18:	9c 81       	ldd	r25, Y+4	; 0x04
    3f1a:	fc 01       	movw	r30, r24
    3f1c:	93 8d       	ldd	r25, Z+27	; 0x1b
    3f1e:	8a 81       	ldd	r24, Y+2	; 0x02
    3f20:	98 17       	cp	r25, r24
    3f22:	f1 f4       	brne	.+60     	; 0x3f60 <u8x8_GetMenuEvent+0xfc>
      {
	u8x8->debounce_state = 0x00;	/* back to state A */
    3f24:	8b 81       	ldd	r24, Y+3	; 0x03
    3f26:	9c 81       	ldd	r25, Y+4	; 0x04
    3f28:	fc 01       	movw	r30, r24
    3f2a:	15 8e       	std	Z+29, r1	; 0x1d
	result_msg = U8X8_MSG_GPIO(u8x8_find_first_diff(u8x8->debounce_default_pin_state, u8x8->debounce_last_pin_state)+U8X8_PIN_OUTPUT_CNT);
    3f2c:	8b 81       	ldd	r24, Y+3	; 0x03
    3f2e:	9c 81       	ldd	r25, Y+4	; 0x04
    3f30:	fc 01       	movw	r30, r24
    3f32:	24 8d       	ldd	r18, Z+28	; 0x1c
    3f34:	8b 81       	ldd	r24, Y+3	; 0x03
    3f36:	9c 81       	ldd	r25, Y+4	; 0x04
    3f38:	fc 01       	movw	r30, r24
    3f3a:	83 8d       	ldd	r24, Z+27	; 0x1b
    3f3c:	62 2f       	mov	r22, r18
    3f3e:	6c df       	rcall	.-296    	; 0x3e18 <u8x8_find_first_diff>
    3f40:	80 5b       	subi	r24, 0xB0	; 176
    3f42:	89 83       	std	Y+1, r24	; 0x01
      else
      {
	//result_msg = U8X8_MSG_GPIO_MENU_NEXT;
	// maybe implement autorepeat here 
      }
      break;
    3f44:	0d c0       	rjmp	.+26     	; 0x3f60 <u8x8_GetMenuEvent+0xfc>
    default:
      u8x8->debounce_state--;	/* count down, until there is a valid state */
    3f46:	8b 81       	ldd	r24, Y+3	; 0x03
    3f48:	9c 81       	ldd	r25, Y+4	; 0x04
    3f4a:	fc 01       	movw	r30, r24
    3f4c:	85 8d       	ldd	r24, Z+29	; 0x1d
    3f4e:	2f ef       	ldi	r18, 0xFF	; 255
    3f50:	28 0f       	add	r18, r24
    3f52:	8b 81       	ldd	r24, Y+3	; 0x03
    3f54:	9c 81       	ldd	r25, Y+4	; 0x04
    3f56:	fc 01       	movw	r30, r24
    3f58:	25 8f       	std	Z+29, r18	; 0x1d
      break;
    3f5a:	03 c0       	rjmp	.+6      	; 0x3f62 <u8x8_GetMenuEvent+0xfe>
      if ( u8x8->debounce_default_pin_state != pin_state )
      {
	//u8x8->debounce_last_pin_state = pin_state;
	u8x8->debounce_state = 0x010 + U8X8_DEBOUNCE_WAIT;
      }
      break;
    3f5c:	00 00       	nop
    3f5e:	01 c0       	rjmp	.+2      	; 0x3f62 <u8x8_GetMenuEvent+0xfe>
      else
      {
	//result_msg = U8X8_MSG_GPIO_MENU_NEXT;
	// maybe implement autorepeat here 
      }
      break;
    3f60:	00 00       	nop
    default:
      u8x8->debounce_state--;	/* count down, until there is a valid state */
      break;
  }
  return result_msg;
    3f62:	89 81       	ldd	r24, Y+1	; 0x01
}
    3f64:	0f 90       	pop	r0
    3f66:	0f 90       	pop	r0
    3f68:	0f 90       	pop	r0
    3f6a:	0f 90       	pop	r0
    3f6c:	df 91       	pop	r29
    3f6e:	cf 91       	pop	r28
    3f70:	08 95       	ret

00003f72 <u8x8_d_helper_display_setup_memory>:
}

void u8x8_SetContrast(u8x8_t *u8x8, uint8_t value)
{
  u8x8->display_cb(u8x8, U8X8_MSG_DISPLAY_SET_CONTRAST, value, NULL);  
}
    3f72:	cf 93       	push	r28
    3f74:	df 93       	push	r29
    3f76:	00 d0       	rcall	.+0      	; 0x3f78 <u8x8_d_helper_display_setup_memory+0x6>
    3f78:	00 d0       	rcall	.+0      	; 0x3f7a <u8x8_d_helper_display_setup_memory+0x8>
    3f7a:	cd b7       	in	r28, 0x3d	; 61
    3f7c:	de b7       	in	r29, 0x3e	; 62
    3f7e:	9a 83       	std	Y+2, r25	; 0x02
    3f80:	89 83       	std	Y+1, r24	; 0x01
    3f82:	7c 83       	std	Y+4, r23	; 0x04
    3f84:	6b 83       	std	Y+3, r22	; 0x03
    3f86:	89 81       	ldd	r24, Y+1	; 0x01
    3f88:	9a 81       	ldd	r25, Y+2	; 0x02
    3f8a:	2b 81       	ldd	r18, Y+3	; 0x03
    3f8c:	3c 81       	ldd	r19, Y+4	; 0x04
    3f8e:	fc 01       	movw	r30, r24
    3f90:	31 83       	std	Z+1, r19	; 0x01
    3f92:	20 83       	st	Z, r18
    3f94:	89 81       	ldd	r24, Y+1	; 0x01
    3f96:	9a 81       	ldd	r25, Y+2	; 0x02
    3f98:	fc 01       	movw	r30, r24
    3f9a:	80 81       	ld	r24, Z
    3f9c:	91 81       	ldd	r25, Z+1	; 0x01
    3f9e:	fc 01       	movw	r30, r24
    3fa0:	22 89       	ldd	r18, Z+18	; 0x12
    3fa2:	89 81       	ldd	r24, Y+1	; 0x01
    3fa4:	9a 81       	ldd	r25, Y+2	; 0x02
    3fa6:	fc 01       	movw	r30, r24
    3fa8:	24 8b       	std	Z+20, r18	; 0x14
    3faa:	00 00       	nop
    3fac:	0f 90       	pop	r0
    3fae:	0f 90       	pop	r0
    3fb0:	0f 90       	pop	r0
    3fb2:	0f 90       	pop	r0
    3fb4:	df 91       	pop	r29
    3fb6:	cf 91       	pop	r28
    3fb8:	08 95       	ret

00003fba <u8x8_d_helper_display_init>:
    3fba:	cf 93       	push	r28
    3fbc:	df 93       	push	r29
    3fbe:	00 d0       	rcall	.+0      	; 0x3fc0 <u8x8_d_helper_display_init+0x6>
    3fc0:	cd b7       	in	r28, 0x3d	; 61
    3fc2:	de b7       	in	r29, 0x3e	; 62
    3fc4:	9a 83       	std	Y+2, r25	; 0x02
    3fc6:	89 83       	std	Y+1, r24	; 0x01
    3fc8:	89 81       	ldd	r24, Y+1	; 0x01
    3fca:	9a 81       	ldd	r25, Y+2	; 0x02
    3fcc:	dc 01       	movw	r26, r24
    3fce:	1a 96       	adiw	r26, 0x0a	; 10
    3fd0:	ed 91       	ld	r30, X+
    3fd2:	fc 91       	ld	r31, X
    3fd4:	1b 97       	sbiw	r26, 0x0b	; 11
    3fd6:	89 81       	ldd	r24, Y+1	; 0x01
    3fd8:	9a 81       	ldd	r25, Y+2	; 0x02
    3fda:	20 e0       	ldi	r18, 0x00	; 0
    3fdc:	30 e0       	ldi	r19, 0x00	; 0
    3fde:	40 e0       	ldi	r20, 0x00	; 0
    3fe0:	68 e2       	ldi	r22, 0x28	; 40
    3fe2:	09 95       	icall
    3fe4:	89 81       	ldd	r24, Y+1	; 0x01
    3fe6:	9a 81       	ldd	r25, Y+2	; 0x02
    3fe8:	dc 01       	movw	r26, r24
    3fea:	16 96       	adiw	r26, 0x06	; 6
    3fec:	ed 91       	ld	r30, X+
    3fee:	fc 91       	ld	r31, X
    3ff0:	17 97       	sbiw	r26, 0x07	; 7
    3ff2:	89 81       	ldd	r24, Y+1	; 0x01
    3ff4:	9a 81       	ldd	r25, Y+2	; 0x02
    3ff6:	20 e0       	ldi	r18, 0x00	; 0
    3ff8:	30 e0       	ldi	r19, 0x00	; 0
    3ffa:	40 e0       	ldi	r20, 0x00	; 0
    3ffc:	64 e1       	ldi	r22, 0x14	; 20
    3ffe:	09 95       	icall
    4000:	89 81       	ldd	r24, Y+1	; 0x01
    4002:	9a 81       	ldd	r25, Y+2	; 0x02
    4004:	41 e0       	ldi	r20, 0x01	; 1
    4006:	6b e4       	ldi	r22, 0x4B	; 75
    4008:	dd d1       	rcall	.+954    	; 0x43c4 <u8x8_gpio_call>
    400a:	89 81       	ldd	r24, Y+1	; 0x01
    400c:	9a 81       	ldd	r25, Y+2	; 0x02
    400e:	fc 01       	movw	r30, r24
    4010:	80 81       	ld	r24, Z
    4012:	91 81       	ldd	r25, Z+1	; 0x01
    4014:	dc 01       	movw	r26, r24
    4016:	14 96       	adiw	r26, 0x04	; 4
    4018:	2c 91       	ld	r18, X
    401a:	89 81       	ldd	r24, Y+1	; 0x01
    401c:	9a 81       	ldd	r25, Y+2	; 0x02
    401e:	42 2f       	mov	r20, r18
    4020:	69 e2       	ldi	r22, 0x29	; 41
    4022:	d0 d1       	rcall	.+928    	; 0x43c4 <u8x8_gpio_call>
    4024:	89 81       	ldd	r24, Y+1	; 0x01
    4026:	9a 81       	ldd	r25, Y+2	; 0x02
    4028:	40 e0       	ldi	r20, 0x00	; 0
    402a:	6b e4       	ldi	r22, 0x4B	; 75
    402c:	cb d1       	rcall	.+918    	; 0x43c4 <u8x8_gpio_call>
    402e:	89 81       	ldd	r24, Y+1	; 0x01
    4030:	9a 81       	ldd	r25, Y+2	; 0x02
    4032:	fc 01       	movw	r30, r24
    4034:	80 81       	ld	r24, Z
    4036:	91 81       	ldd	r25, Z+1	; 0x01
    4038:	dc 01       	movw	r26, r24
    403a:	14 96       	adiw	r26, 0x04	; 4
    403c:	2c 91       	ld	r18, X
    403e:	89 81       	ldd	r24, Y+1	; 0x01
    4040:	9a 81       	ldd	r25, Y+2	; 0x02
    4042:	42 2f       	mov	r20, r18
    4044:	69 e2       	ldi	r22, 0x29	; 41
    4046:	be d1       	rcall	.+892    	; 0x43c4 <u8x8_gpio_call>
    4048:	89 81       	ldd	r24, Y+1	; 0x01
    404a:	9a 81       	ldd	r25, Y+2	; 0x02
    404c:	41 e0       	ldi	r20, 0x01	; 1
    404e:	6b e4       	ldi	r22, 0x4B	; 75
    4050:	b9 d1       	rcall	.+882    	; 0x43c4 <u8x8_gpio_call>
    4052:	89 81       	ldd	r24, Y+1	; 0x01
    4054:	9a 81       	ldd	r25, Y+2	; 0x02
    4056:	fc 01       	movw	r30, r24
    4058:	80 81       	ld	r24, Z
    405a:	91 81       	ldd	r25, Z+1	; 0x01
    405c:	dc 01       	movw	r26, r24
    405e:	15 96       	adiw	r26, 0x05	; 5
    4060:	2c 91       	ld	r18, X
    4062:	89 81       	ldd	r24, Y+1	; 0x01
    4064:	9a 81       	ldd	r25, Y+2	; 0x02
    4066:	42 2f       	mov	r20, r18
    4068:	69 e2       	ldi	r22, 0x29	; 41
    406a:	ac d1       	rcall	.+856    	; 0x43c4 <u8x8_gpio_call>
    406c:	00 00       	nop
    406e:	0f 90       	pop	r0
    4070:	0f 90       	pop	r0
    4072:	df 91       	pop	r29
    4074:	cf 91       	pop	r28
    4076:	08 95       	ret

00004078 <u8x8_DrawTile>:
    4078:	0f 93       	push	r16
    407a:	1f 93       	push	r17
    407c:	cf 93       	push	r28
    407e:	df 93       	push	r29
    4080:	cd b7       	in	r28, 0x3d	; 61
    4082:	de b7       	in	r29, 0x3e	; 62
    4084:	2c 97       	sbiw	r28, 0x0c	; 12
    4086:	0f b6       	in	r0, 0x3f	; 63
    4088:	f8 94       	cli
    408a:	de bf       	out	0x3e, r29	; 62
    408c:	0f be       	out	0x3f, r0	; 63
    408e:	cd bf       	out	0x3d, r28	; 61
    4090:	9f 83       	std	Y+7, r25	; 0x07
    4092:	8e 83       	std	Y+6, r24	; 0x06
    4094:	68 87       	std	Y+8, r22	; 0x08
    4096:	49 87       	std	Y+9, r20	; 0x09
    4098:	2a 87       	std	Y+10, r18	; 0x0a
    409a:	1c 87       	std	Y+12, r17	; 0x0c
    409c:	0b 87       	std	Y+11, r16	; 0x0b
    409e:	88 85       	ldd	r24, Y+8	; 0x08
    40a0:	8c 83       	std	Y+4, r24	; 0x04
    40a2:	89 85       	ldd	r24, Y+9	; 0x09
    40a4:	8d 83       	std	Y+5, r24	; 0x05
    40a6:	8a 85       	ldd	r24, Y+10	; 0x0a
    40a8:	8b 83       	std	Y+3, r24	; 0x03
    40aa:	8b 85       	ldd	r24, Y+11	; 0x0b
    40ac:	9c 85       	ldd	r25, Y+12	; 0x0c
    40ae:	9a 83       	std	Y+2, r25	; 0x02
    40b0:	89 83       	std	Y+1, r24	; 0x01
    40b2:	8e 81       	ldd	r24, Y+6	; 0x06
    40b4:	9f 81       	ldd	r25, Y+7	; 0x07
    40b6:	dc 01       	movw	r26, r24
    40b8:	14 96       	adiw	r26, 0x04	; 4
    40ba:	ed 91       	ld	r30, X+
    40bc:	fc 91       	ld	r31, X
    40be:	15 97       	sbiw	r26, 0x05	; 5
    40c0:	8e 81       	ldd	r24, Y+6	; 0x06
    40c2:	9f 81       	ldd	r25, Y+7	; 0x07
    40c4:	9e 01       	movw	r18, r28
    40c6:	2f 5f       	subi	r18, 0xFF	; 255
    40c8:	3f 4f       	sbci	r19, 0xFF	; 255
    40ca:	41 e0       	ldi	r20, 0x01	; 1
    40cc:	6f e0       	ldi	r22, 0x0F	; 15
    40ce:	09 95       	icall
    40d0:	2c 96       	adiw	r28, 0x0c	; 12
    40d2:	0f b6       	in	r0, 0x3f	; 63
    40d4:	f8 94       	cli
    40d6:	de bf       	out	0x3e, r29	; 62
    40d8:	0f be       	out	0x3f, r0	; 63
    40da:	cd bf       	out	0x3d, r28	; 61
    40dc:	df 91       	pop	r29
    40de:	cf 91       	pop	r28
    40e0:	1f 91       	pop	r17
    40e2:	0f 91       	pop	r16
    40e4:	08 95       	ret

000040e6 <u8x8_SetupMemory>:
    40e6:	cf 93       	push	r28
    40e8:	df 93       	push	r29
    40ea:	00 d0       	rcall	.+0      	; 0x40ec <u8x8_SetupMemory+0x6>
    40ec:	cd b7       	in	r28, 0x3d	; 61
    40ee:	de b7       	in	r29, 0x3e	; 62
    40f0:	9a 83       	std	Y+2, r25	; 0x02
    40f2:	89 83       	std	Y+1, r24	; 0x01
    40f4:	89 81       	ldd	r24, Y+1	; 0x01
    40f6:	9a 81       	ldd	r25, Y+2	; 0x02
    40f8:	dc 01       	movw	r26, r24
    40fa:	14 96       	adiw	r26, 0x04	; 4
    40fc:	ed 91       	ld	r30, X+
    40fe:	fc 91       	ld	r31, X
    4100:	15 97       	sbiw	r26, 0x05	; 5
    4102:	89 81       	ldd	r24, Y+1	; 0x01
    4104:	9a 81       	ldd	r25, Y+2	; 0x02
    4106:	20 e0       	ldi	r18, 0x00	; 0
    4108:	30 e0       	ldi	r19, 0x00	; 0
    410a:	40 e0       	ldi	r20, 0x00	; 0
    410c:	69 e0       	ldi	r22, 0x09	; 9
    410e:	09 95       	icall
    4110:	00 00       	nop
    4112:	0f 90       	pop	r0
    4114:	0f 90       	pop	r0
    4116:	df 91       	pop	r29
    4118:	cf 91       	pop	r28
    411a:	08 95       	ret

0000411c <u8x8_InitDisplay>:
    411c:	cf 93       	push	r28
    411e:	df 93       	push	r29
    4120:	00 d0       	rcall	.+0      	; 0x4122 <u8x8_InitDisplay+0x6>
    4122:	cd b7       	in	r28, 0x3d	; 61
    4124:	de b7       	in	r29, 0x3e	; 62
    4126:	9a 83       	std	Y+2, r25	; 0x02
    4128:	89 83       	std	Y+1, r24	; 0x01
    412a:	89 81       	ldd	r24, Y+1	; 0x01
    412c:	9a 81       	ldd	r25, Y+2	; 0x02
    412e:	dc 01       	movw	r26, r24
    4130:	14 96       	adiw	r26, 0x04	; 4
    4132:	ed 91       	ld	r30, X+
    4134:	fc 91       	ld	r31, X
    4136:	15 97       	sbiw	r26, 0x05	; 5
    4138:	89 81       	ldd	r24, Y+1	; 0x01
    413a:	9a 81       	ldd	r25, Y+2	; 0x02
    413c:	20 e0       	ldi	r18, 0x00	; 0
    413e:	30 e0       	ldi	r19, 0x00	; 0
    4140:	40 e0       	ldi	r20, 0x00	; 0
    4142:	6a e0       	ldi	r22, 0x0A	; 10
    4144:	09 95       	icall
    4146:	00 00       	nop
    4148:	0f 90       	pop	r0
    414a:	0f 90       	pop	r0
    414c:	df 91       	pop	r29
    414e:	cf 91       	pop	r28
    4150:	08 95       	ret

00004152 <u8x8_SetPowerSave>:
    4152:	cf 93       	push	r28
    4154:	df 93       	push	r29
    4156:	00 d0       	rcall	.+0      	; 0x4158 <u8x8_SetPowerSave+0x6>
    4158:	1f 92       	push	r1
    415a:	cd b7       	in	r28, 0x3d	; 61
    415c:	de b7       	in	r29, 0x3e	; 62
    415e:	9a 83       	std	Y+2, r25	; 0x02
    4160:	89 83       	std	Y+1, r24	; 0x01
    4162:	6b 83       	std	Y+3, r22	; 0x03
    4164:	89 81       	ldd	r24, Y+1	; 0x01
    4166:	9a 81       	ldd	r25, Y+2	; 0x02
    4168:	dc 01       	movw	r26, r24
    416a:	14 96       	adiw	r26, 0x04	; 4
    416c:	ed 91       	ld	r30, X+
    416e:	fc 91       	ld	r31, X
    4170:	15 97       	sbiw	r26, 0x05	; 5
    4172:	89 81       	ldd	r24, Y+1	; 0x01
    4174:	9a 81       	ldd	r25, Y+2	; 0x02
    4176:	20 e0       	ldi	r18, 0x00	; 0
    4178:	30 e0       	ldi	r19, 0x00	; 0
    417a:	4b 81       	ldd	r20, Y+3	; 0x03
    417c:	6b e0       	ldi	r22, 0x0B	; 11
    417e:	09 95       	icall
    4180:	00 00       	nop
    4182:	0f 90       	pop	r0
    4184:	0f 90       	pop	r0
    4186:	0f 90       	pop	r0
    4188:	df 91       	pop	r29
    418a:	cf 91       	pop	r28
    418c:	08 95       	ret

0000418e <u8x8_RefreshDisplay>:

void u8x8_RefreshDisplay(u8x8_t *u8x8)
{
    418e:	cf 93       	push	r28
    4190:	df 93       	push	r29
    4192:	00 d0       	rcall	.+0      	; 0x4194 <u8x8_RefreshDisplay+0x6>
    4194:	cd b7       	in	r28, 0x3d	; 61
    4196:	de b7       	in	r29, 0x3e	; 62
    4198:	9a 83       	std	Y+2, r25	; 0x02
    419a:	89 83       	std	Y+1, r24	; 0x01
  u8x8->display_cb(u8x8, U8X8_MSG_DISPLAY_REFRESH, 0, NULL);  
    419c:	89 81       	ldd	r24, Y+1	; 0x01
    419e:	9a 81       	ldd	r25, Y+2	; 0x02
    41a0:	dc 01       	movw	r26, r24
    41a2:	14 96       	adiw	r26, 0x04	; 4
    41a4:	ed 91       	ld	r30, X+
    41a6:	fc 91       	ld	r31, X
    41a8:	15 97       	sbiw	r26, 0x05	; 5
    41aa:	89 81       	ldd	r24, Y+1	; 0x01
    41ac:	9a 81       	ldd	r25, Y+2	; 0x02
    41ae:	20 e0       	ldi	r18, 0x00	; 0
    41b0:	30 e0       	ldi	r19, 0x00	; 0
    41b2:	40 e0       	ldi	r20, 0x00	; 0
    41b4:	60 e1       	ldi	r22, 0x10	; 16
    41b6:	09 95       	icall
}
    41b8:	00 00       	nop
    41ba:	0f 90       	pop	r0
    41bc:	0f 90       	pop	r0
    41be:	df 91       	pop	r29
    41c0:	cf 91       	pop	r28
    41c2:	08 95       	ret

000041c4 <u8x8_d_ssd1306_sh1106_generic>:
  U8X8_END()             			/* end of sequence */
};


static uint8_t u8x8_d_ssd1306_sh1106_generic(u8x8_t *u8x8, uint8_t msg, uint8_t arg_int, void *arg_ptr)
{
    41c4:	cf 93       	push	r28
    41c6:	df 93       	push	r29
    41c8:	cd b7       	in	r28, 0x3d	; 61
    41ca:	de b7       	in	r29, 0x3e	; 62
    41cc:	2a 97       	sbiw	r28, 0x0a	; 10
    41ce:	0f b6       	in	r0, 0x3f	; 63
    41d0:	f8 94       	cli
    41d2:	de bf       	out	0x3e, r29	; 62
    41d4:	0f be       	out	0x3f, r0	; 63
    41d6:	cd bf       	out	0x3d, r28	; 61
    41d8:	9e 83       	std	Y+6, r25	; 0x06
    41da:	8d 83       	std	Y+5, r24	; 0x05
    41dc:	6f 83       	std	Y+7, r22	; 0x07
    41de:	48 87       	std	Y+8, r20	; 0x08
    41e0:	3a 87       	std	Y+10, r19	; 0x0a
    41e2:	29 87       	std	Y+9, r18	; 0x09
  uint8_t x, c;
  uint8_t *ptr;
  switch(msg)
    41e4:	8f 81       	ldd	r24, Y+7	; 0x07
    41e6:	88 2f       	mov	r24, r24
    41e8:	90 e0       	ldi	r25, 0x00	; 0
    41ea:	8d 30       	cpi	r24, 0x0D	; 13
    41ec:	91 05       	cpc	r25, r1
    41ee:	e1 f0       	breq	.+56     	; 0x4228 <u8x8_d_ssd1306_sh1106_generic+0x64>
    41f0:	8e 30       	cpi	r24, 0x0E	; 14
    41f2:	91 05       	cpc	r25, r1
    41f4:	1c f4       	brge	.+6      	; 0x41fc <u8x8_d_ssd1306_sh1106_generic+0x38>
    41f6:	0b 97       	sbiw	r24, 0x0b	; 11
    41f8:	41 f0       	breq	.+16     	; 0x420a <u8x8_d_ssd1306_sh1106_generic+0x46>
    41fa:	9d c0       	rjmp	.+314    	; 0x4336 <u8x8_d_ssd1306_sh1106_generic+0x172>
    41fc:	8e 30       	cpi	r24, 0x0E	; 14
    41fe:	91 05       	cpc	r25, r1
    4200:	c1 f1       	breq	.+112    	; 0x4272 <u8x8_d_ssd1306_sh1106_generic+0xae>
    4202:	0f 97       	sbiw	r24, 0x0f	; 15
    4204:	09 f4       	brne	.+2      	; 0x4208 <u8x8_d_ssd1306_sh1106_generic+0x44>
    4206:	44 c0       	rjmp	.+136    	; 0x4290 <u8x8_d_ssd1306_sh1106_generic+0xcc>
    4208:	96 c0       	rjmp	.+300    	; 0x4336 <u8x8_d_ssd1306_sh1106_generic+0x172>
      u8x8_d_helper_display_init(u8x8);
      u8x8_cad_SendSequence(u8x8, u8x8_d_ssd1306_128x64_noname_init_seq);    
      break;
    */
    case U8X8_MSG_DISPLAY_SET_POWER_SAVE:
      if ( arg_int == 0 )
    420a:	88 85       	ldd	r24, Y+8	; 0x08
    420c:	88 23       	and	r24, r24
    420e:	31 f4       	brne	.+12     	; 0x421c <u8x8_d_ssd1306_sh1106_generic+0x58>
	u8x8_cad_SendSequence(u8x8, u8x8_d_ssd1306_128x64_noname_powersave0_seq);
    4210:	8d 81       	ldd	r24, Y+5	; 0x05
    4212:	9e 81       	ldd	r25, Y+6	; 0x06
    4214:	6f e5       	ldi	r22, 0x5F	; 95
    4216:	71 e0       	ldi	r23, 0x01	; 1
    4218:	7d dc       	rcall	.-1798   	; 0x3b14 <u8x8_cad_SendSequence>
      else
	u8x8_cad_SendSequence(u8x8, u8x8_d_ssd1306_128x64_noname_powersave1_seq);
      break;
    421a:	8f c0       	rjmp	.+286    	; 0x433a <u8x8_d_ssd1306_sh1106_generic+0x176>
    */
    case U8X8_MSG_DISPLAY_SET_POWER_SAVE:
      if ( arg_int == 0 )
	u8x8_cad_SendSequence(u8x8, u8x8_d_ssd1306_128x64_noname_powersave0_seq);
      else
	u8x8_cad_SendSequence(u8x8, u8x8_d_ssd1306_128x64_noname_powersave1_seq);
    421c:	8d 81       	ldd	r24, Y+5	; 0x05
    421e:	9e 81       	ldd	r25, Y+6	; 0x06
    4220:	64 e6       	ldi	r22, 0x64	; 100
    4222:	71 e0       	ldi	r23, 0x01	; 1
    4224:	77 dc       	rcall	.-1810   	; 0x3b14 <u8x8_cad_SendSequence>
      break;
    4226:	89 c0       	rjmp	.+274    	; 0x433a <u8x8_d_ssd1306_sh1106_generic+0x176>
    case U8X8_MSG_DISPLAY_SET_FLIP_MODE:
      if ( arg_int == 0 )
    4228:	88 85       	ldd	r24, Y+8	; 0x08
    422a:	88 23       	and	r24, r24
    422c:	89 f4       	brne	.+34     	; 0x4250 <u8x8_d_ssd1306_sh1106_generic+0x8c>
      {
	u8x8_cad_SendSequence(u8x8, u8x8_d_ssd1306_128x64_noname_flip0_seq);
    422e:	8d 81       	ldd	r24, Y+5	; 0x05
    4230:	9e 81       	ldd	r25, Y+6	; 0x06
    4232:	69 e6       	ldi	r22, 0x69	; 105
    4234:	71 e0       	ldi	r23, 0x01	; 1
    4236:	6e dc       	rcall	.-1828   	; 0x3b14 <u8x8_cad_SendSequence>
	u8x8->x_offset = u8x8->display_info->default_x_offset;
    4238:	8d 81       	ldd	r24, Y+5	; 0x05
    423a:	9e 81       	ldd	r25, Y+6	; 0x06
    423c:	fc 01       	movw	r30, r24
    423e:	80 81       	ld	r24, Z
    4240:	91 81       	ldd	r25, Z+1	; 0x01
    4242:	fc 01       	movw	r30, r24
    4244:	22 89       	ldd	r18, Z+18	; 0x12
    4246:	8d 81       	ldd	r24, Y+5	; 0x05
    4248:	9e 81       	ldd	r25, Y+6	; 0x06
    424a:	fc 01       	movw	r30, r24
    424c:	24 8b       	std	Z+20, r18	; 0x14
      else
      {
	u8x8_cad_SendSequence(u8x8, u8x8_d_ssd1306_128x64_noname_flip1_seq);
	u8x8->x_offset = u8x8->display_info->flipmode_x_offset;
      }
      break;
    424e:	75 c0       	rjmp	.+234    	; 0x433a <u8x8_d_ssd1306_sh1106_generic+0x176>
	u8x8_cad_SendSequence(u8x8, u8x8_d_ssd1306_128x64_noname_flip0_seq);
	u8x8->x_offset = u8x8->display_info->default_x_offset;
      }
      else
      {
	u8x8_cad_SendSequence(u8x8, u8x8_d_ssd1306_128x64_noname_flip1_seq);
    4250:	8d 81       	ldd	r24, Y+5	; 0x05
    4252:	9e 81       	ldd	r25, Y+6	; 0x06
    4254:	60 e7       	ldi	r22, 0x70	; 112
    4256:	71 e0       	ldi	r23, 0x01	; 1
    4258:	5d dc       	rcall	.-1862   	; 0x3b14 <u8x8_cad_SendSequence>
	u8x8->x_offset = u8x8->display_info->flipmode_x_offset;
    425a:	8d 81       	ldd	r24, Y+5	; 0x05
    425c:	9e 81       	ldd	r25, Y+6	; 0x06
    425e:	fc 01       	movw	r30, r24
    4260:	80 81       	ld	r24, Z
    4262:	91 81       	ldd	r25, Z+1	; 0x01
    4264:	fc 01       	movw	r30, r24
    4266:	23 89       	ldd	r18, Z+19	; 0x13
    4268:	8d 81       	ldd	r24, Y+5	; 0x05
    426a:	9e 81       	ldd	r25, Y+6	; 0x06
    426c:	fc 01       	movw	r30, r24
      }
      break;
    426e:	24 8b       	std	Z+20, r18	; 0x14
#ifdef U8X8_WITH_SET_CONTRAST
    case U8X8_MSG_DISPLAY_SET_CONTRAST:
      u8x8_cad_StartTransfer(u8x8);
    4270:	64 c0       	rjmp	.+200    	; 0x433a <u8x8_d_ssd1306_sh1106_generic+0x176>
    4272:	8d 81       	ldd	r24, Y+5	; 0x05
    4274:	9e 81       	ldd	r25, Y+6	; 0x06
      u8x8_cad_SendCmd(u8x8, 0x081 );
    4276:	1a dc       	rcall	.-1996   	; 0x3aac <u8x8_cad_StartTransfer>
    4278:	8d 81       	ldd	r24, Y+5	; 0x05
    427a:	9e 81       	ldd	r25, Y+6	; 0x06
    427c:	61 e8       	ldi	r22, 0x81	; 129
      u8x8_cad_SendArg(u8x8, arg_int );	/* ssd1306 has range from 0 to 255 */
    427e:	ba db       	rcall	.-2188   	; 0x39f4 <u8x8_cad_SendCmd>
    4280:	8d 81       	ldd	r24, Y+5	; 0x05
    4282:	9e 81       	ldd	r25, Y+6	; 0x06
    4284:	68 85       	ldd	r22, Y+8	; 0x08
      u8x8_cad_EndTransfer(u8x8);
    4286:	d3 db       	rcall	.-2138   	; 0x3a2e <u8x8_cad_SendArg>
    4288:	8d 81       	ldd	r24, Y+5	; 0x05
    428a:	9e 81       	ldd	r25, Y+6	; 0x06
    428c:	29 dc       	rcall	.-1966   	; 0x3ae0 <u8x8_cad_EndTransfer>
      break;
    428e:	55 c0       	rjmp	.+170    	; 0x433a <u8x8_d_ssd1306_sh1106_generic+0x176>
#endif
    case U8X8_MSG_DISPLAY_DRAW_TILE:
      u8x8_cad_StartTransfer(u8x8);
    4290:	8d 81       	ldd	r24, Y+5	; 0x05
    4292:	9e 81       	ldd	r25, Y+6	; 0x06
    4294:	0b dc       	rcall	.-2026   	; 0x3aac <u8x8_cad_StartTransfer>
    4296:	89 85       	ldd	r24, Y+9	; 0x09
      x = ((u8x8_tile_t *)arg_ptr)->x_pos;    
    4298:	9a 85       	ldd	r25, Y+10	; 0x0a
    429a:	fc 01       	movw	r30, r24
    429c:	83 81       	ldd	r24, Z+3	; 0x03
    429e:	89 83       	std	Y+1, r24	; 0x01
    42a0:	89 81       	ldd	r24, Y+1	; 0x01
      x *= 8;
    42a2:	88 0f       	add	r24, r24
    42a4:	88 0f       	add	r24, r24
    42a6:	88 0f       	add	r24, r24
    42a8:	89 83       	std	Y+1, r24	; 0x01
    42aa:	8d 81       	ldd	r24, Y+5	; 0x05
      x += u8x8->x_offset;
    42ac:	9e 81       	ldd	r25, Y+6	; 0x06
    42ae:	fc 01       	movw	r30, r24
    42b0:	84 89       	ldd	r24, Z+20	; 0x14
    42b2:	99 81       	ldd	r25, Y+1	; 0x01
    42b4:	89 0f       	add	r24, r25
    42b6:	89 83       	std	Y+1, r24	; 0x01
    
      u8x8_cad_SendCmd(u8x8, 0x040 );	/* set line offset to 0 */
    42b8:	8d 81       	ldd	r24, Y+5	; 0x05
    42ba:	9e 81       	ldd	r25, Y+6	; 0x06
    42bc:	60 e4       	ldi	r22, 0x40	; 64
    42be:	9a db       	rcall	.-2252   	; 0x39f4 <u8x8_cad_SendCmd>
    
      u8x8_cad_SendCmd(u8x8, 0x010 | (x>>4) );
    42c0:	89 81       	ldd	r24, Y+1	; 0x01
    42c2:	82 95       	swap	r24
    42c4:	8f 70       	andi	r24, 0x0F	; 15
    42c6:	28 2f       	mov	r18, r24
    42c8:	20 61       	ori	r18, 0x10	; 16
    42ca:	8d 81       	ldd	r24, Y+5	; 0x05
    42cc:	9e 81       	ldd	r25, Y+6	; 0x06
    42ce:	62 2f       	mov	r22, r18
    42d0:	91 db       	rcall	.-2270   	; 0x39f4 <u8x8_cad_SendCmd>
      u8x8_cad_SendArg(u8x8, 0x000 | ((x&15)));					/* probably wrong, should be SendCmd */
    42d2:	89 81       	ldd	r24, Y+1	; 0x01
    42d4:	28 2f       	mov	r18, r24
    42d6:	2f 70       	andi	r18, 0x0F	; 15
    42d8:	8d 81       	ldd	r24, Y+5	; 0x05
    42da:	9e 81       	ldd	r25, Y+6	; 0x06
    42dc:	62 2f       	mov	r22, r18
    42de:	a7 db       	rcall	.-2226   	; 0x3a2e <u8x8_cad_SendArg>
      u8x8_cad_SendArg(u8x8, 0x0b0 | (((u8x8_tile_t *)arg_ptr)->y_pos));	/* probably wrong, should be SendCmd */
    42e0:	89 85       	ldd	r24, Y+9	; 0x09
    42e2:	9a 85       	ldd	r25, Y+10	; 0x0a
    42e4:	fc 01       	movw	r30, r24
    42e6:	84 81       	ldd	r24, Z+4	; 0x04
    42e8:	28 2f       	mov	r18, r24
    42ea:	20 6b       	ori	r18, 0xB0	; 176
    42ec:	8d 81       	ldd	r24, Y+5	; 0x05
    42ee:	9e 81       	ldd	r25, Y+6	; 0x06
    42f0:	62 2f       	mov	r22, r18
    42f2:	9d db       	rcall	.-2246   	; 0x3a2e <u8x8_cad_SendArg>
    42f4:	89 85       	ldd	r24, Y+9	; 0x09

    
      do
      {
	c = ((u8x8_tile_t *)arg_ptr)->cnt;
    42f6:	9a 85       	ldd	r25, Y+10	; 0x0a
    42f8:	fc 01       	movw	r30, r24
    42fa:	82 81       	ldd	r24, Z+2	; 0x02
    42fc:	8a 83       	std	Y+2, r24	; 0x02
    42fe:	89 85       	ldd	r24, Y+9	; 0x09
	ptr = ((u8x8_tile_t *)arg_ptr)->tile_ptr;
    4300:	9a 85       	ldd	r25, Y+10	; 0x0a
    4302:	fc 01       	movw	r30, r24
    4304:	80 81       	ld	r24, Z
    4306:	91 81       	ldd	r25, Z+1	; 0x01
    4308:	9c 83       	std	Y+4, r25	; 0x04
    430a:	8b 83       	std	Y+3, r24	; 0x03
	u8x8_cad_SendData(u8x8, c*8, ptr); 	/* note: SendData can not handle more than 255 bytes */
    430c:	8a 81       	ldd	r24, Y+2	; 0x02
    430e:	68 2f       	mov	r22, r24
    4310:	66 0f       	add	r22, r22
    4312:	66 0f       	add	r22, r22
    4314:	66 0f       	add	r22, r22
    4316:	2b 81       	ldd	r18, Y+3	; 0x03
    4318:	3c 81       	ldd	r19, Y+4	; 0x04
    431a:	8d 81       	ldd	r24, Y+5	; 0x05
    431c:	9e 81       	ldd	r25, Y+6	; 0x06
    431e:	a9 01       	movw	r20, r18
    4320:	a3 db       	rcall	.-2234   	; 0x3a68 <u8x8_cad_SendData>
	  u8x8_cad_SendData(u8x8, 8, ptr);
	  ptr += 8;
	  c--;
	} while( c > 0 );
	*/
	arg_int--;
    4322:	88 85       	ldd	r24, Y+8	; 0x08
    4324:	81 50       	subi	r24, 0x01	; 1
    4326:	88 87       	std	Y+8, r24	; 0x08
      } while( arg_int > 0 );
    4328:	88 85       	ldd	r24, Y+8	; 0x08
    432a:	88 23       	and	r24, r24
    432c:	19 f7       	brne	.-58     	; 0x42f4 <u8x8_d_ssd1306_sh1106_generic+0x130>
      
      u8x8_cad_EndTransfer(u8x8);
    432e:	8d 81       	ldd	r24, Y+5	; 0x05
    4330:	9e 81       	ldd	r25, Y+6	; 0x06
    4332:	d6 db       	rcall	.-2132   	; 0x3ae0 <u8x8_cad_EndTransfer>
    4334:	02 c0       	rjmp	.+4      	; 0x433a <u8x8_d_ssd1306_sh1106_generic+0x176>
      break;
    4336:	80 e0       	ldi	r24, 0x00	; 0
    default:
      return 0;
    4338:	01 c0       	rjmp	.+2      	; 0x433c <u8x8_d_ssd1306_sh1106_generic+0x178>
    433a:	81 e0       	ldi	r24, 0x01	; 1
  }
  return 1;
    433c:	2a 96       	adiw	r28, 0x0a	; 10
}
    433e:	0f b6       	in	r0, 0x3f	; 63
    4340:	f8 94       	cli
    4342:	de bf       	out	0x3e, r29	; 62
    4344:	0f be       	out	0x3f, r0	; 63
    4346:	cd bf       	out	0x3d, r28	; 61
    4348:	df 91       	pop	r29
    434a:	cf 91       	pop	r28
    434c:	08 95       	ret

0000434e <u8x8_d_ssd1306_128x64_noname>:
    434e:	cf 93       	push	r28
  /* pixel_width = */ 128,
  /* pixel_height = */ 64
};

uint8_t u8x8_d_ssd1306_128x64_noname(u8x8_t *u8x8, uint8_t msg, uint8_t arg_int, void *arg_ptr)
{
    4350:	df 93       	push	r29
    4352:	00 d0       	rcall	.+0      	; 0x4354 <u8x8_d_ssd1306_128x64_noname+0x6>
    4354:	00 d0       	rcall	.+0      	; 0x4356 <u8x8_d_ssd1306_128x64_noname+0x8>
    4356:	00 d0       	rcall	.+0      	; 0x4358 <u8x8_d_ssd1306_128x64_noname+0xa>
    4358:	cd b7       	in	r28, 0x3d	; 61
    435a:	de b7       	in	r29, 0x3e	; 62
    435c:	9a 83       	std	Y+2, r25	; 0x02
    435e:	89 83       	std	Y+1, r24	; 0x01
    4360:	6b 83       	std	Y+3, r22	; 0x03
    4362:	4c 83       	std	Y+4, r20	; 0x04
    4364:	3e 83       	std	Y+6, r19	; 0x06
    4366:	2d 83       	std	Y+5, r18	; 0x05
    
  if ( u8x8_d_ssd1306_sh1106_generic(u8x8, msg, arg_int, arg_ptr) != 0 )
    4368:	2d 81       	ldd	r18, Y+5	; 0x05
    436a:	3e 81       	ldd	r19, Y+6	; 0x06
    436c:	89 81       	ldd	r24, Y+1	; 0x01
    436e:	9a 81       	ldd	r25, Y+2	; 0x02
    4370:	4c 81       	ldd	r20, Y+4	; 0x04
    4372:	6b 81       	ldd	r22, Y+3	; 0x03
    4374:	27 df       	rcall	.-434    	; 0x41c4 <u8x8_d_ssd1306_sh1106_generic>
    4376:	88 23       	and	r24, r24
    4378:	11 f0       	breq	.+4      	; 0x437e <u8x8_d_ssd1306_128x64_noname+0x30>
    return 1;
    437a:	81 e0       	ldi	r24, 0x01	; 1
    437c:	1a c0       	rjmp	.+52     	; 0x43b2 <u8x8_d_ssd1306_128x64_noname+0x64>
  
  switch(msg)
    437e:	8b 81       	ldd	r24, Y+3	; 0x03
    4380:	88 2f       	mov	r24, r24
    4382:	90 e0       	ldi	r25, 0x00	; 0
    4384:	89 30       	cpi	r24, 0x09	; 9
    4386:	91 05       	cpc	r25, r1
    4388:	59 f0       	breq	.+22     	; 0x43a0 <u8x8_d_ssd1306_128x64_noname+0x52>
    438a:	0a 97       	sbiw	r24, 0x0a	; 10
    438c:	79 f4       	brne	.+30     	; 0x43ac <u8x8_d_ssd1306_128x64_noname+0x5e>
  {
    case U8X8_MSG_DISPLAY_INIT:
      u8x8_d_helper_display_init(u8x8);
    438e:	89 81       	ldd	r24, Y+1	; 0x01
    4390:	9a 81       	ldd	r25, Y+2	; 0x02
    4392:	13 de       	rcall	.-986    	; 0x3fba <u8x8_d_helper_display_init>
      u8x8_cad_SendSequence(u8x8, u8x8_d_ssd1306_128x64_noname_init_seq);    
    4394:	89 81       	ldd	r24, Y+1	; 0x01
    4396:	9a 81       	ldd	r25, Y+2	; 0x02
    4398:	6a e2       	ldi	r22, 0x2A	; 42
    439a:	71 e0       	ldi	r23, 0x01	; 1
    439c:	bb db       	rcall	.-2186   	; 0x3b14 <u8x8_cad_SendSequence>
      break;
    439e:	08 c0       	rjmp	.+16     	; 0x43b0 <u8x8_d_ssd1306_128x64_noname+0x62>
    case U8X8_MSG_DISPLAY_SETUP_MEMORY:
      u8x8_d_helper_display_setup_memory(u8x8, &u8x8_ssd1306_128x64_noname_display_info);
    43a0:	89 81       	ldd	r24, Y+1	; 0x01
    43a2:	9a 81       	ldd	r25, Y+2	; 0x02
    43a4:	67 e7       	ldi	r22, 0x77	; 119
    43a6:	71 e0       	ldi	r23, 0x01	; 1
    43a8:	e4 dd       	rcall	.-1080   	; 0x3f72 <u8x8_d_helper_display_setup_memory>
      break;
    43aa:	02 c0       	rjmp	.+4      	; 0x43b0 <u8x8_d_ssd1306_128x64_noname+0x62>
    default:
      return 0;
    43ac:	80 e0       	ldi	r24, 0x00	; 0
    43ae:	01 c0       	rjmp	.+2      	; 0x43b2 <u8x8_d_ssd1306_128x64_noname+0x64>
  }
  return 1;
    43b0:	81 e0       	ldi	r24, 0x01	; 1
}
    43b2:	26 96       	adiw	r28, 0x06	; 6
    43b4:	0f b6       	in	r0, 0x3f	; 63
    43b6:	f8 94       	cli
    43b8:	de bf       	out	0x3e, r29	; 62
    43ba:	0f be       	out	0x3f, r0	; 63
    43bc:	cd bf       	out	0x3d, r28	; 61
    43be:	df 91       	pop	r29
    43c0:	cf 91       	pop	r28
    43c2:	08 95       	ret

000043c4 <u8x8_gpio_call>:

#include "u8x8.h"


void u8x8_gpio_call(u8x8_t *u8x8, uint8_t msg, uint8_t arg)
{
    43c4:	cf 93       	push	r28
    43c6:	df 93       	push	r29
    43c8:	00 d0       	rcall	.+0      	; 0x43ca <u8x8_gpio_call+0x6>
    43ca:	00 d0       	rcall	.+0      	; 0x43cc <u8x8_gpio_call+0x8>
    43cc:	cd b7       	in	r28, 0x3d	; 61
    43ce:	de b7       	in	r29, 0x3e	; 62
    43d0:	9a 83       	std	Y+2, r25	; 0x02
    43d2:	89 83       	std	Y+1, r24	; 0x01
    43d4:	6b 83       	std	Y+3, r22	; 0x03
    43d6:	4c 83       	std	Y+4, r20	; 0x04
  u8x8->gpio_and_delay_cb(u8x8, msg, arg, NULL);
    43d8:	89 81       	ldd	r24, Y+1	; 0x01
    43da:	9a 81       	ldd	r25, Y+2	; 0x02
    43dc:	dc 01       	movw	r26, r24
    43de:	1a 96       	adiw	r26, 0x0a	; 10
    43e0:	ed 91       	ld	r30, X+
    43e2:	fc 91       	ld	r31, X
    43e4:	1b 97       	sbiw	r26, 0x0b	; 11
    43e6:	89 81       	ldd	r24, Y+1	; 0x01
    43e8:	9a 81       	ldd	r25, Y+2	; 0x02
    43ea:	20 e0       	ldi	r18, 0x00	; 0
    43ec:	30 e0       	ldi	r19, 0x00	; 0
    43ee:	4c 81       	ldd	r20, Y+4	; 0x04
    43f0:	6b 81       	ldd	r22, Y+3	; 0x03
    43f2:	09 95       	icall
}
    43f4:	00 00       	nop
    43f6:	0f 90       	pop	r0
    43f8:	0f 90       	pop	r0
    43fa:	0f 90       	pop	r0
    43fc:	0f 90       	pop	r0
    43fe:	df 91       	pop	r29
    4400:	cf 91       	pop	r28
    4402:	08 95       	ret

00004404 <u8sl_Next>:

/*
  increase the cursor position
*/
void u8sl_Next(u8sl_t *u8sl)
{
    4404:	cf 93       	push	r28
    4406:	df 93       	push	r29
    4408:	00 d0       	rcall	.+0      	; 0x440a <u8sl_Next+0x6>
    440a:	cd b7       	in	r28, 0x3d	; 61
    440c:	de b7       	in	r29, 0x3e	; 62
    440e:	9a 83       	std	Y+2, r25	; 0x02
    4410:	89 83       	std	Y+1, r24	; 0x01
  u8sl->current_pos++;
    4412:	89 81       	ldd	r24, Y+1	; 0x01
    4414:	9a 81       	ldd	r25, Y+2	; 0x02
    4416:	fc 01       	movw	r30, r24
    4418:	83 81       	ldd	r24, Z+3	; 0x03
    441a:	21 e0       	ldi	r18, 0x01	; 1
    441c:	28 0f       	add	r18, r24
    441e:	89 81       	ldd	r24, Y+1	; 0x01
    4420:	9a 81       	ldd	r25, Y+2	; 0x02
    4422:	fc 01       	movw	r30, r24
    4424:	23 83       	std	Z+3, r18	; 0x03
  if ( u8sl->current_pos >= u8sl->total )
    4426:	89 81       	ldd	r24, Y+1	; 0x01
    4428:	9a 81       	ldd	r25, Y+2	; 0x02
    442a:	fc 01       	movw	r30, r24
    442c:	23 81       	ldd	r18, Z+3	; 0x03
    442e:	89 81       	ldd	r24, Y+1	; 0x01
    4430:	9a 81       	ldd	r25, Y+2	; 0x02
    4432:	fc 01       	movw	r30, r24
    4434:	81 81       	ldd	r24, Z+1	; 0x01
    4436:	28 17       	cp	r18, r24
    4438:	48 f0       	brcs	.+18     	; 0x444c <u8sl_Next+0x48>
  {
    u8sl->current_pos = 0;
    443a:	89 81       	ldd	r24, Y+1	; 0x01
    443c:	9a 81       	ldd	r25, Y+2	; 0x02
    443e:	fc 01       	movw	r30, r24
    4440:	13 82       	std	Z+3, r1	; 0x03
    u8sl->first_pos = 0;
    4442:	89 81       	ldd	r24, Y+1	; 0x01
    4444:	9a 81       	ldd	r25, Y+2	; 0x02
    4446:	fc 01       	movw	r30, r24
    4448:	12 82       	std	Z+2, r1	; 0x02
    if ( u8sl->first_pos + u8sl->visible <= u8sl->current_pos + 1 )
    {
      u8sl->first_pos = u8sl->current_pos - u8sl->visible + 1;
    }
  }
}
    444a:	29 c0       	rjmp	.+82     	; 0x449e <u8sl_Next+0x9a>
    u8sl->current_pos = 0;
    u8sl->first_pos = 0;
  }
  else
  {
    if ( u8sl->first_pos + u8sl->visible <= u8sl->current_pos + 1 )
    444c:	89 81       	ldd	r24, Y+1	; 0x01
    444e:	9a 81       	ldd	r25, Y+2	; 0x02
    4450:	fc 01       	movw	r30, r24
    4452:	82 81       	ldd	r24, Z+2	; 0x02
    4454:	28 2f       	mov	r18, r24
    4456:	30 e0       	ldi	r19, 0x00	; 0
    4458:	89 81       	ldd	r24, Y+1	; 0x01
    445a:	9a 81       	ldd	r25, Y+2	; 0x02
    445c:	fc 01       	movw	r30, r24
    445e:	80 81       	ld	r24, Z
    4460:	88 2f       	mov	r24, r24
    4462:	90 e0       	ldi	r25, 0x00	; 0
    4464:	28 0f       	add	r18, r24
    4466:	39 1f       	adc	r19, r25
    4468:	89 81       	ldd	r24, Y+1	; 0x01
    446a:	9a 81       	ldd	r25, Y+2	; 0x02
    446c:	fc 01       	movw	r30, r24
    446e:	83 81       	ldd	r24, Z+3	; 0x03
    4470:	88 2f       	mov	r24, r24
    4472:	90 e0       	ldi	r25, 0x00	; 0
    4474:	01 96       	adiw	r24, 0x01	; 1
    4476:	82 17       	cp	r24, r18
    4478:	93 07       	cpc	r25, r19
    447a:	8c f0       	brlt	.+34     	; 0x449e <u8sl_Next+0x9a>
    {
      u8sl->first_pos = u8sl->current_pos - u8sl->visible + 1;
    447c:	89 81       	ldd	r24, Y+1	; 0x01
    447e:	9a 81       	ldd	r25, Y+2	; 0x02
    4480:	fc 01       	movw	r30, r24
    4482:	23 81       	ldd	r18, Z+3	; 0x03
    4484:	89 81       	ldd	r24, Y+1	; 0x01
    4486:	9a 81       	ldd	r25, Y+2	; 0x02
    4488:	fc 01       	movw	r30, r24
    448a:	80 81       	ld	r24, Z
    448c:	f2 2f       	mov	r31, r18
    448e:	f8 1b       	sub	r31, r24
    4490:	8f 2f       	mov	r24, r31
    4492:	21 e0       	ldi	r18, 0x01	; 1
    4494:	28 0f       	add	r18, r24
    4496:	89 81       	ldd	r24, Y+1	; 0x01
    4498:	9a 81       	ldd	r25, Y+2	; 0x02
    449a:	fc 01       	movw	r30, r24
    449c:	22 83       	std	Z+2, r18	; 0x02
    }
  }
}
    449e:	00 00       	nop
    44a0:	0f 90       	pop	r0
    44a2:	0f 90       	pop	r0
    44a4:	df 91       	pop	r29
    44a6:	cf 91       	pop	r28
    44a8:	08 95       	ret

000044aa <u8sl_Prev>:

void u8sl_Prev(u8sl_t *u8sl)
{
    44aa:	cf 93       	push	r28
    44ac:	df 93       	push	r29
    44ae:	00 d0       	rcall	.+0      	; 0x44b0 <u8sl_Prev+0x6>
    44b0:	cd b7       	in	r28, 0x3d	; 61
    44b2:	de b7       	in	r29, 0x3e	; 62
    44b4:	9a 83       	std	Y+2, r25	; 0x02
    44b6:	89 83       	std	Y+1, r24	; 0x01
  if ( u8sl->current_pos == 0 )
    44b8:	89 81       	ldd	r24, Y+1	; 0x01
    44ba:	9a 81       	ldd	r25, Y+2	; 0x02
    44bc:	fc 01       	movw	r30, r24
    44be:	83 81       	ldd	r24, Z+3	; 0x03
    44c0:	88 23       	and	r24, r24
    44c2:	31 f5       	brne	.+76     	; 0x4510 <u8sl_Prev+0x66>
  {
    u8sl->current_pos = u8sl->total - 1;
    44c4:	89 81       	ldd	r24, Y+1	; 0x01
    44c6:	9a 81       	ldd	r25, Y+2	; 0x02
    44c8:	fc 01       	movw	r30, r24
    44ca:	81 81       	ldd	r24, Z+1	; 0x01
    44cc:	2f ef       	ldi	r18, 0xFF	; 255
    44ce:	28 0f       	add	r18, r24
    44d0:	89 81       	ldd	r24, Y+1	; 0x01
    44d2:	9a 81       	ldd	r25, Y+2	; 0x02
    44d4:	fc 01       	movw	r30, r24
    44d6:	23 83       	std	Z+3, r18	; 0x03
    u8sl->first_pos = 0;
    44d8:	89 81       	ldd	r24, Y+1	; 0x01
    44da:	9a 81       	ldd	r25, Y+2	; 0x02
    44dc:	fc 01       	movw	r30, r24
    44de:	12 82       	std	Z+2, r1	; 0x02
    if ( u8sl->total > u8sl->visible )
    44e0:	89 81       	ldd	r24, Y+1	; 0x01
    44e2:	9a 81       	ldd	r25, Y+2	; 0x02
    44e4:	fc 01       	movw	r30, r24
    44e6:	21 81       	ldd	r18, Z+1	; 0x01
    44e8:	89 81       	ldd	r24, Y+1	; 0x01
    44ea:	9a 81       	ldd	r25, Y+2	; 0x02
    44ec:	fc 01       	movw	r30, r24
    44ee:	80 81       	ld	r24, Z
    44f0:	82 17       	cp	r24, r18
    44f2:	50 f5       	brcc	.+84     	; 0x4548 <u8sl_Prev+0x9e>
      u8sl->first_pos = u8sl->total - u8sl->visible;
    44f4:	89 81       	ldd	r24, Y+1	; 0x01
    44f6:	9a 81       	ldd	r25, Y+2	; 0x02
    44f8:	fc 01       	movw	r30, r24
    44fa:	21 81       	ldd	r18, Z+1	; 0x01
    44fc:	89 81       	ldd	r24, Y+1	; 0x01
    44fe:	9a 81       	ldd	r25, Y+2	; 0x02
    4500:	fc 01       	movw	r30, r24
    4502:	80 81       	ld	r24, Z
    4504:	28 1b       	sub	r18, r24
    4506:	89 81       	ldd	r24, Y+1	; 0x01
    4508:	9a 81       	ldd	r25, Y+2	; 0x02
    450a:	fc 01       	movw	r30, r24
    450c:	22 83       	std	Z+2, r18	; 0x02
  {
    u8sl->current_pos--;
    if ( u8sl->first_pos > u8sl->current_pos )
      u8sl->first_pos = u8sl->current_pos;
  }
}
    450e:	1c c0       	rjmp	.+56     	; 0x4548 <u8sl_Prev+0x9e>
    if ( u8sl->total > u8sl->visible )
      u8sl->first_pos = u8sl->total - u8sl->visible;
  }
  else
  {
    u8sl->current_pos--;
    4510:	89 81       	ldd	r24, Y+1	; 0x01
    4512:	9a 81       	ldd	r25, Y+2	; 0x02
    4514:	fc 01       	movw	r30, r24
    4516:	83 81       	ldd	r24, Z+3	; 0x03
    4518:	2f ef       	ldi	r18, 0xFF	; 255
    451a:	28 0f       	add	r18, r24
    451c:	89 81       	ldd	r24, Y+1	; 0x01
    451e:	9a 81       	ldd	r25, Y+2	; 0x02
    4520:	fc 01       	movw	r30, r24
    4522:	23 83       	std	Z+3, r18	; 0x03
    if ( u8sl->first_pos > u8sl->current_pos )
    4524:	89 81       	ldd	r24, Y+1	; 0x01
    4526:	9a 81       	ldd	r25, Y+2	; 0x02
    4528:	fc 01       	movw	r30, r24
    452a:	22 81       	ldd	r18, Z+2	; 0x02
    452c:	89 81       	ldd	r24, Y+1	; 0x01
    452e:	9a 81       	ldd	r25, Y+2	; 0x02
    4530:	fc 01       	movw	r30, r24
    4532:	83 81       	ldd	r24, Z+3	; 0x03
    4534:	82 17       	cp	r24, r18
    4536:	40 f4       	brcc	.+16     	; 0x4548 <u8sl_Prev+0x9e>
      u8sl->first_pos = u8sl->current_pos;
    4538:	89 81       	ldd	r24, Y+1	; 0x01
    453a:	9a 81       	ldd	r25, Y+2	; 0x02
    453c:	fc 01       	movw	r30, r24
    453e:	23 81       	ldd	r18, Z+3	; 0x03
    4540:	89 81       	ldd	r24, Y+1	; 0x01
    4542:	9a 81       	ldd	r25, Y+2	; 0x02
    4544:	fc 01       	movw	r30, r24
    4546:	22 83       	std	Z+2, r18	; 0x02
  }
}
    4548:	00 00       	nop
    454a:	0f 90       	pop	r0
    454c:	0f 90       	pop	r0
    454e:	df 91       	pop	r29
    4550:	cf 91       	pop	r28
    4552:	08 95       	ret

00004554 <u8x8_dummy_cb>:
      u8x8_d_helper_display_init(u8x8);
      break;
  }
  /* the null device callback will succeed for all messages */
  return 1;
}
    4554:	cf 93       	push	r28
    4556:	df 93       	push	r29
    4558:	00 d0       	rcall	.+0      	; 0x455a <u8x8_dummy_cb+0x6>
    455a:	00 d0       	rcall	.+0      	; 0x455c <u8x8_dummy_cb+0x8>
    455c:	00 d0       	rcall	.+0      	; 0x455e <u8x8_dummy_cb+0xa>
    455e:	cd b7       	in	r28, 0x3d	; 61
    4560:	de b7       	in	r29, 0x3e	; 62
    4562:	9a 83       	std	Y+2, r25	; 0x02
    4564:	89 83       	std	Y+1, r24	; 0x01
    4566:	6b 83       	std	Y+3, r22	; 0x03
    4568:	4c 83       	std	Y+4, r20	; 0x04
    456a:	3e 83       	std	Y+6, r19	; 0x06
    456c:	2d 83       	std	Y+5, r18	; 0x05
    456e:	80 e0       	ldi	r24, 0x00	; 0
    4570:	26 96       	adiw	r28, 0x06	; 6
    4572:	0f b6       	in	r0, 0x3f	; 63
    4574:	f8 94       	cli
    4576:	de bf       	out	0x3e, r29	; 62
    4578:	0f be       	out	0x3f, r0	; 63
    457a:	cd bf       	out	0x3d, r28	; 61
    457c:	df 91       	pop	r29
    457e:	cf 91       	pop	r28
    4580:	08 95       	ret

00004582 <u8x8_SetupDefaults>:
    Setup u8x8
  Args:
    u8x8	An empty u8x8 structure
*/
void u8x8_SetupDefaults(u8x8_t *u8x8)
{
    4582:	cf 93       	push	r28
    4584:	df 93       	push	r29
    4586:	00 d0       	rcall	.+0      	; 0x4588 <u8x8_SetupDefaults+0x6>
    4588:	cd b7       	in	r28, 0x3d	; 61
    458a:	de b7       	in	r29, 0x3e	; 62
    458c:	9a 83       	std	Y+2, r25	; 0x02
    458e:	89 83       	std	Y+1, r24	; 0x01
    u8x8->display_info = NULL;
    4590:	89 81       	ldd	r24, Y+1	; 0x01
    4592:	9a 81       	ldd	r25, Y+2	; 0x02
    4594:	fc 01       	movw	r30, r24
    4596:	11 82       	std	Z+1, r1	; 0x01
    4598:	10 82       	st	Z, r1
    u8x8->display_cb = u8x8_dummy_cb;
    459a:	89 81       	ldd	r24, Y+1	; 0x01
    459c:	9a 81       	ldd	r25, Y+2	; 0x02
    459e:	2a ea       	ldi	r18, 0xAA	; 170
    45a0:	32 e2       	ldi	r19, 0x22	; 34
    45a2:	fc 01       	movw	r30, r24
    45a4:	35 83       	std	Z+5, r19	; 0x05
    45a6:	24 83       	std	Z+4, r18	; 0x04
    u8x8->cad_cb = u8x8_dummy_cb;
    45a8:	89 81       	ldd	r24, Y+1	; 0x01
    45aa:	9a 81       	ldd	r25, Y+2	; 0x02
    45ac:	2a ea       	ldi	r18, 0xAA	; 170
    45ae:	32 e2       	ldi	r19, 0x22	; 34
    45b0:	fc 01       	movw	r30, r24
    45b2:	37 83       	std	Z+7, r19	; 0x07
    45b4:	26 83       	std	Z+6, r18	; 0x06
    u8x8->byte_cb = u8x8_dummy_cb;
    45b6:	89 81       	ldd	r24, Y+1	; 0x01
    45b8:	9a 81       	ldd	r25, Y+2	; 0x02
    45ba:	2a ea       	ldi	r18, 0xAA	; 170
    45bc:	32 e2       	ldi	r19, 0x22	; 34
    45be:	fc 01       	movw	r30, r24
    45c0:	31 87       	std	Z+9, r19	; 0x09
    45c2:	20 87       	std	Z+8, r18	; 0x08
    u8x8->gpio_and_delay_cb = u8x8_dummy_cb;
    45c4:	89 81       	ldd	r24, Y+1	; 0x01
    45c6:	9a 81       	ldd	r25, Y+2	; 0x02
    45c8:	2a ea       	ldi	r18, 0xAA	; 170
    45ca:	32 e2       	ldi	r19, 0x22	; 34
    45cc:	fc 01       	movw	r30, r24
    45ce:	33 87       	std	Z+11, r19	; 0x0b
    45d0:	22 87       	std	Z+10, r18	; 0x0a
    u8x8->is_font_inverse_mode = 0;
    45d2:	89 81       	ldd	r24, Y+1	; 0x01
    45d4:	9a 81       	ldd	r25, Y+2	; 0x02
    45d6:	fc 01       	movw	r30, r24
    45d8:	15 8a       	std	Z+21, r1	; 0x15
    u8x8->device_address = 0;
    45da:	89 81       	ldd	r24, Y+1	; 0x01
    45dc:	9a 81       	ldd	r25, Y+2	; 0x02
    45de:	fc 01       	movw	r30, r24
    45e0:	10 8e       	std	Z+24, r1	; 0x18
    u8x8->utf8_state = 0;		/* also reset by u8x8_utf8_init */
    45e2:	89 81       	ldd	r24, Y+1	; 0x01
    45e4:	9a 81       	ldd	r25, Y+2	; 0x02
    45e6:	fc 01       	movw	r30, r24
    45e8:	11 8e       	std	Z+25, r1	; 0x19
    u8x8->bus_clock = 0;		/* issue 769 */
    45ea:	89 81       	ldd	r24, Y+1	; 0x01
    45ec:	9a 81       	ldd	r25, Y+2	; 0x02
    45ee:	fc 01       	movw	r30, r24
    45f0:	14 86       	std	Z+12, r1	; 0x0c
    45f2:	15 86       	std	Z+13, r1	; 0x0d
    45f4:	16 86       	std	Z+14, r1	; 0x0e
    45f6:	17 86       	std	Z+15, r1	; 0x0f
    u8x8->i2c_address = 255;
    45f8:	89 81       	ldd	r24, Y+1	; 0x01
    45fa:	9a 81       	ldd	r25, Y+2	; 0x02
    45fc:	2f ef       	ldi	r18, 0xFF	; 255
    45fe:	fc 01       	movw	r30, r24
    4600:	26 8b       	std	Z+22, r18	; 0x16
    u8x8->debounce_default_pin_state = 255;	/* assume all low active buttons */
    4602:	89 81       	ldd	r24, Y+1	; 0x01
    4604:	9a 81       	ldd	r25, Y+2	; 0x02
    4606:	2f ef       	ldi	r18, 0xFF	; 255
    4608:	fc 01       	movw	r30, r24
    460a:	23 8f       	std	Z+27, r18	; 0x1b
    uint8_t i;
    for( i = 0; i < U8X8_PIN_CNT; i++ )
      u8x8->pins[i] = U8X8_PIN_NONE;
  }
#endif
}
    460c:	00 00       	nop
    460e:	0f 90       	pop	r0
    4610:	0f 90       	pop	r0
    4612:	df 91       	pop	r29
    4614:	cf 91       	pop	r28
    4616:	08 95       	ret

00004618 <u8x8_Setup>:
    byte_cb			Display controller/communication specific callback funtion
    gpio_and_delay_cb	Environment specific callback function

*/
void u8x8_Setup(u8x8_t *u8x8, u8x8_msg_cb display_cb, u8x8_msg_cb cad_cb, u8x8_msg_cb byte_cb, u8x8_msg_cb gpio_and_delay_cb)
{
    4618:	0f 93       	push	r16
    461a:	1f 93       	push	r17
    461c:	cf 93       	push	r28
    461e:	df 93       	push	r29
    4620:	cd b7       	in	r28, 0x3d	; 61
    4622:	de b7       	in	r29, 0x3e	; 62
    4624:	2a 97       	sbiw	r28, 0x0a	; 10
    4626:	0f b6       	in	r0, 0x3f	; 63
    4628:	f8 94       	cli
    462a:	de bf       	out	0x3e, r29	; 62
    462c:	0f be       	out	0x3f, r0	; 63
    462e:	cd bf       	out	0x3d, r28	; 61
    4630:	9a 83       	std	Y+2, r25	; 0x02
    4632:	89 83       	std	Y+1, r24	; 0x01
    4634:	7c 83       	std	Y+4, r23	; 0x04
    4636:	6b 83       	std	Y+3, r22	; 0x03
    4638:	5e 83       	std	Y+6, r21	; 0x06
    463a:	4d 83       	std	Y+5, r20	; 0x05
    463c:	38 87       	std	Y+8, r19	; 0x08
    463e:	2f 83       	std	Y+7, r18	; 0x07
    4640:	1a 87       	std	Y+10, r17	; 0x0a
    4642:	09 87       	std	Y+9, r16	; 0x09
  /* setup defaults and reset pins to U8X8_PIN_NONE */
  u8x8_SetupDefaults(u8x8);
    4644:	89 81       	ldd	r24, Y+1	; 0x01
    4646:	9a 81       	ldd	r25, Y+2	; 0x02
    4648:	9c df       	rcall	.-200    	; 0x4582 <u8x8_SetupDefaults>

  /* setup specific callbacks */
  u8x8->display_cb = display_cb;
    464a:	89 81       	ldd	r24, Y+1	; 0x01
    464c:	9a 81       	ldd	r25, Y+2	; 0x02
    464e:	2b 81       	ldd	r18, Y+3	; 0x03
    4650:	3c 81       	ldd	r19, Y+4	; 0x04
    4652:	fc 01       	movw	r30, r24
    4654:	35 83       	std	Z+5, r19	; 0x05
    4656:	24 83       	std	Z+4, r18	; 0x04
  u8x8->cad_cb = cad_cb;
    4658:	89 81       	ldd	r24, Y+1	; 0x01
    465a:	9a 81       	ldd	r25, Y+2	; 0x02
    465c:	2d 81       	ldd	r18, Y+5	; 0x05
    465e:	3e 81       	ldd	r19, Y+6	; 0x06
    4660:	fc 01       	movw	r30, r24
    4662:	37 83       	std	Z+7, r19	; 0x07
    4664:	26 83       	std	Z+6, r18	; 0x06
  u8x8->byte_cb = byte_cb;
    4666:	89 81       	ldd	r24, Y+1	; 0x01
    4668:	9a 81       	ldd	r25, Y+2	; 0x02
    466a:	2f 81       	ldd	r18, Y+7	; 0x07
    466c:	38 85       	ldd	r19, Y+8	; 0x08
    466e:	fc 01       	movw	r30, r24
    4670:	31 87       	std	Z+9, r19	; 0x09
    4672:	20 87       	std	Z+8, r18	; 0x08
  u8x8->gpio_and_delay_cb = gpio_and_delay_cb;
    4674:	89 81       	ldd	r24, Y+1	; 0x01
    4676:	9a 81       	ldd	r25, Y+2	; 0x02
    4678:	29 85       	ldd	r18, Y+9	; 0x09
    467a:	3a 85       	ldd	r19, Y+10	; 0x0a
    467c:	fc 01       	movw	r30, r24
    467e:	33 87       	std	Z+11, r19	; 0x0b
    4680:	22 87       	std	Z+10, r18	; 0x0a

  /* setup display info */
  u8x8_SetupMemory(u8x8);
    4682:	89 81       	ldd	r24, Y+1	; 0x01
    4684:	9a 81       	ldd	r25, Y+2	; 0x02
    4686:	2f dd       	rcall	.-1442   	; 0x40e6 <u8x8_SetupMemory>
}
    4688:	00 00       	nop
    468a:	2a 96       	adiw	r28, 0x0a	; 10
    468c:	0f b6       	in	r0, 0x3f	; 63
    468e:	f8 94       	cli
    4690:	de bf       	out	0x3e, r29	; 62
    4692:	0f be       	out	0x3f, r0	; 63
    4694:	cd bf       	out	0x3d, r28	; 61
    4696:	df 91       	pop	r29
    4698:	cf 91       	pop	r28
    469a:	1f 91       	pop	r17
    469c:	0f 91       	pop	r16
    469e:	08 95       	ret

000046a0 <u8x8_GetStringLineCnt>:
*/

#include "u8x8.h"

uint8_t u8x8_GetStringLineCnt(const char *str)
{
    46a0:	cf 93       	push	r28
    46a2:	df 93       	push	r29
    46a4:	00 d0       	rcall	.+0      	; 0x46a6 <u8x8_GetStringLineCnt+0x6>
    46a6:	00 d0       	rcall	.+0      	; 0x46a8 <u8x8_GetStringLineCnt+0x8>
    46a8:	cd b7       	in	r28, 0x3d	; 61
    46aa:	de b7       	in	r29, 0x3e	; 62
    46ac:	9c 83       	std	Y+4, r25	; 0x04
    46ae:	8b 83       	std	Y+3, r24	; 0x03
  char e;
  uint8_t line_cnt = 1;
    46b0:	81 e0       	ldi	r24, 0x01	; 1
    46b2:	89 83       	std	Y+1, r24	; 0x01
  if ( str == NULL )
    46b4:	8b 81       	ldd	r24, Y+3	; 0x03
    46b6:	9c 81       	ldd	r25, Y+4	; 0x04
    46b8:	89 2b       	or	r24, r25
    46ba:	11 f4       	brne	.+4      	; 0x46c0 <u8x8_GetStringLineCnt+0x20>
    return 0;
    46bc:	80 e0       	ldi	r24, 0x00	; 0
    46be:	16 c0       	rjmp	.+44     	; 0x46ec <u8x8_GetStringLineCnt+0x4c>
  for(;;)
  {
    e = *str;
    46c0:	8b 81       	ldd	r24, Y+3	; 0x03
    46c2:	9c 81       	ldd	r25, Y+4	; 0x04
    46c4:	fc 01       	movw	r30, r24
    46c6:	80 81       	ld	r24, Z
    46c8:	8a 83       	std	Y+2, r24	; 0x02
    if ( e == '\0' )
    46ca:	8a 81       	ldd	r24, Y+2	; 0x02
    46cc:	88 23       	and	r24, r24
    46ce:	61 f0       	breq	.+24     	; 0x46e8 <u8x8_GetStringLineCnt+0x48>
      break;
    str++;
    46d0:	8b 81       	ldd	r24, Y+3	; 0x03
    46d2:	9c 81       	ldd	r25, Y+4	; 0x04
    46d4:	01 96       	adiw	r24, 0x01	; 1
    46d6:	9c 83       	std	Y+4, r25	; 0x04
    46d8:	8b 83       	std	Y+3, r24	; 0x03
    if ( e == '\n' )
    46da:	8a 81       	ldd	r24, Y+2	; 0x02
    46dc:	8a 30       	cpi	r24, 0x0A	; 10
    46de:	81 f7       	brne	.-32     	; 0x46c0 <u8x8_GetStringLineCnt+0x20>
      line_cnt++;
    46e0:	89 81       	ldd	r24, Y+1	; 0x01
    46e2:	8f 5f       	subi	r24, 0xFF	; 255
    46e4:	89 83       	std	Y+1, r24	; 0x01
  }
    46e6:	ec cf       	rjmp	.-40     	; 0x46c0 <u8x8_GetStringLineCnt+0x20>
    return 0;
  for(;;)
  {
    e = *str;
    if ( e == '\0' )
      break;
    46e8:	00 00       	nop
    str++;
    if ( e == '\n' )
      line_cnt++;
  }
  return line_cnt;
    46ea:	89 81       	ldd	r24, Y+1	; 0x01
}
    46ec:	0f 90       	pop	r0
    46ee:	0f 90       	pop	r0
    46f0:	0f 90       	pop	r0
    46f2:	0f 90       	pop	r0
    46f4:	df 91       	pop	r29
    46f6:	cf 91       	pop	r28
    46f8:	08 95       	ret

000046fa <u8x8_GetStringLineStart>:
    Example:
      Returns "xyz" for line_idx = 1 with str = "abc\nxyz"
    Support both UTF8 and normal strings.
*/
const char *u8x8_GetStringLineStart(uint8_t line_idx, const char *str )
{
    46fa:	cf 93       	push	r28
    46fc:	df 93       	push	r29
    46fe:	00 d0       	rcall	.+0      	; 0x4700 <u8x8_GetStringLineStart+0x6>
    4700:	00 d0       	rcall	.+0      	; 0x4702 <u8x8_GetStringLineStart+0x8>
    4702:	1f 92       	push	r1
    4704:	cd b7       	in	r28, 0x3d	; 61
    4706:	de b7       	in	r29, 0x3e	; 62
    4708:	8b 83       	std	Y+3, r24	; 0x03
    470a:	7d 83       	std	Y+5, r23	; 0x05
    470c:	6c 83       	std	Y+4, r22	; 0x04
  char e;
  uint8_t line_cnt = 1;
    470e:	81 e0       	ldi	r24, 0x01	; 1
    4710:	89 83       	std	Y+1, r24	; 0x01
  
  if ( line_idx == 0 )
    4712:	8b 81       	ldd	r24, Y+3	; 0x03
    4714:	88 23       	and	r24, r24
    4716:	19 f4       	brne	.+6      	; 0x471e <u8x8_GetStringLineStart+0x24>
    return str;
    4718:	8c 81       	ldd	r24, Y+4	; 0x04
    471a:	9d 81       	ldd	r25, Y+5	; 0x05
    471c:	1e c0       	rjmp	.+60     	; 0x475a <u8x8_GetStringLineStart+0x60>

  for(;;)
  {
    e = *str;
    471e:	8c 81       	ldd	r24, Y+4	; 0x04
    4720:	9d 81       	ldd	r25, Y+5	; 0x05
    4722:	fc 01       	movw	r30, r24
    4724:	80 81       	ld	r24, Z
    4726:	8a 83       	std	Y+2, r24	; 0x02
    if ( e == '\0' )
    4728:	8a 81       	ldd	r24, Y+2	; 0x02
    472a:	88 23       	and	r24, r24
    472c:	99 f0       	breq	.+38     	; 0x4754 <u8x8_GetStringLineStart+0x5a>
      break;
    str++;
    472e:	8c 81       	ldd	r24, Y+4	; 0x04
    4730:	9d 81       	ldd	r25, Y+5	; 0x05
    4732:	01 96       	adiw	r24, 0x01	; 1
    4734:	9d 83       	std	Y+5, r25	; 0x05
    4736:	8c 83       	std	Y+4, r24	; 0x04
    if ( e == '\n' )
    4738:	8a 81       	ldd	r24, Y+2	; 0x02
    473a:	8a 30       	cpi	r24, 0x0A	; 10
    473c:	81 f7       	brne	.-32     	; 0x471e <u8x8_GetStringLineStart+0x24>
    {
      if ( line_cnt == line_idx )
    473e:	99 81       	ldd	r25, Y+1	; 0x01
    4740:	8b 81       	ldd	r24, Y+3	; 0x03
    4742:	98 17       	cp	r25, r24
    4744:	19 f4       	brne	.+6      	; 0x474c <u8x8_GetStringLineStart+0x52>
	return str;
    4746:	8c 81       	ldd	r24, Y+4	; 0x04
    4748:	9d 81       	ldd	r25, Y+5	; 0x05
    474a:	07 c0       	rjmp	.+14     	; 0x475a <u8x8_GetStringLineStart+0x60>
      line_cnt++;
    474c:	89 81       	ldd	r24, Y+1	; 0x01
    474e:	8f 5f       	subi	r24, 0xFF	; 255
    4750:	89 83       	std	Y+1, r24	; 0x01
    }
  }
    4752:	e5 cf       	rjmp	.-54     	; 0x471e <u8x8_GetStringLineStart+0x24>

  for(;;)
  {
    e = *str;
    if ( e == '\0' )
      break;
    4754:	00 00       	nop
      if ( line_cnt == line_idx )
	return str;
      line_cnt++;
    }
  }
  return NULL;	/* line not found */
    4756:	80 e0       	ldi	r24, 0x00	; 0
    4758:	90 e0       	ldi	r25, 0x00	; 0
}
    475a:	0f 90       	pop	r0
    475c:	0f 90       	pop	r0
    475e:	0f 90       	pop	r0
    4760:	0f 90       	pop	r0
    4762:	0f 90       	pop	r0
    4764:	df 91       	pop	r29
    4766:	cf 91       	pop	r28
    4768:	08 95       	ret

0000476a <__cmpsf2>:
    476a:	97 d0       	rcall	.+302    	; 0x489a <__fp_cmp>
    476c:	08 f4       	brcc	.+2      	; 0x4770 <__cmpsf2+0x6>
    476e:	81 e0       	ldi	r24, 0x01	; 1
    4770:	08 95       	ret

00004772 <__divsf3>:
    4772:	0c d0       	rcall	.+24     	; 0x478c <__divsf3x>
    4774:	cd c0       	rjmp	.+410    	; 0x4910 <__fp_round>
    4776:	c5 d0       	rcall	.+394    	; 0x4902 <__fp_pscB>
    4778:	40 f0       	brcs	.+16     	; 0x478a <__divsf3+0x18>
    477a:	bc d0       	rcall	.+376    	; 0x48f4 <__fp_pscA>
    477c:	30 f0       	brcs	.+12     	; 0x478a <__divsf3+0x18>
    477e:	21 f4       	brne	.+8      	; 0x4788 <__divsf3+0x16>
    4780:	5f 3f       	cpi	r21, 0xFF	; 255
    4782:	19 f0       	breq	.+6      	; 0x478a <__divsf3+0x18>
    4784:	ae c0       	rjmp	.+348    	; 0x48e2 <__fp_inf>
    4786:	51 11       	cpse	r21, r1
    4788:	f7 c0       	rjmp	.+494    	; 0x4978 <__fp_szero>
    478a:	b1 c0       	rjmp	.+354    	; 0x48ee <__fp_nan>

0000478c <__divsf3x>:
    478c:	d2 d0       	rcall	.+420    	; 0x4932 <__fp_split3>
    478e:	98 f3       	brcs	.-26     	; 0x4776 <__divsf3+0x4>

00004790 <__divsf3_pse>:
    4790:	99 23       	and	r25, r25
    4792:	c9 f3       	breq	.-14     	; 0x4786 <__divsf3+0x14>
    4794:	55 23       	and	r21, r21
    4796:	b1 f3       	breq	.-20     	; 0x4784 <__divsf3+0x12>
    4798:	95 1b       	sub	r25, r21
    479a:	55 0b       	sbc	r21, r21
    479c:	bb 27       	eor	r27, r27
    479e:	aa 27       	eor	r26, r26
    47a0:	62 17       	cp	r22, r18
    47a2:	73 07       	cpc	r23, r19
    47a4:	84 07       	cpc	r24, r20
    47a6:	38 f0       	brcs	.+14     	; 0x47b6 <__divsf3_pse+0x26>
    47a8:	9f 5f       	subi	r25, 0xFF	; 255
    47aa:	5f 4f       	sbci	r21, 0xFF	; 255
    47ac:	22 0f       	add	r18, r18
    47ae:	33 1f       	adc	r19, r19
    47b0:	44 1f       	adc	r20, r20
    47b2:	aa 1f       	adc	r26, r26
    47b4:	a9 f3       	breq	.-22     	; 0x47a0 <__divsf3_pse+0x10>
    47b6:	33 d0       	rcall	.+102    	; 0x481e <__divsf3_pse+0x8e>
    47b8:	0e 2e       	mov	r0, r30
    47ba:	3a f0       	brmi	.+14     	; 0x47ca <__divsf3_pse+0x3a>
    47bc:	e0 e8       	ldi	r30, 0x80	; 128
    47be:	30 d0       	rcall	.+96     	; 0x4820 <__divsf3_pse+0x90>
    47c0:	91 50       	subi	r25, 0x01	; 1
    47c2:	50 40       	sbci	r21, 0x00	; 0
    47c4:	e6 95       	lsr	r30
    47c6:	00 1c       	adc	r0, r0
    47c8:	ca f7       	brpl	.-14     	; 0x47bc <__divsf3_pse+0x2c>
    47ca:	29 d0       	rcall	.+82     	; 0x481e <__divsf3_pse+0x8e>
    47cc:	fe 2f       	mov	r31, r30
    47ce:	27 d0       	rcall	.+78     	; 0x481e <__divsf3_pse+0x8e>
    47d0:	66 0f       	add	r22, r22
    47d2:	77 1f       	adc	r23, r23
    47d4:	88 1f       	adc	r24, r24
    47d6:	bb 1f       	adc	r27, r27
    47d8:	26 17       	cp	r18, r22
    47da:	37 07       	cpc	r19, r23
    47dc:	48 07       	cpc	r20, r24
    47de:	ab 07       	cpc	r26, r27
    47e0:	b0 e8       	ldi	r27, 0x80	; 128
    47e2:	09 f0       	breq	.+2      	; 0x47e6 <__divsf3_pse+0x56>
    47e4:	bb 0b       	sbc	r27, r27
    47e6:	80 2d       	mov	r24, r0
    47e8:	bf 01       	movw	r22, r30
    47ea:	ff 27       	eor	r31, r31
    47ec:	93 58       	subi	r25, 0x83	; 131
    47ee:	5f 4f       	sbci	r21, 0xFF	; 255
    47f0:	2a f0       	brmi	.+10     	; 0x47fc <__divsf3_pse+0x6c>
    47f2:	9e 3f       	cpi	r25, 0xFE	; 254
    47f4:	51 05       	cpc	r21, r1
    47f6:	68 f0       	brcs	.+26     	; 0x4812 <__divsf3_pse+0x82>
    47f8:	74 c0       	rjmp	.+232    	; 0x48e2 <__fp_inf>
    47fa:	be c0       	rjmp	.+380    	; 0x4978 <__fp_szero>
    47fc:	5f 3f       	cpi	r21, 0xFF	; 255
    47fe:	ec f3       	brlt	.-6      	; 0x47fa <__divsf3_pse+0x6a>
    4800:	98 3e       	cpi	r25, 0xE8	; 232
    4802:	dc f3       	brlt	.-10     	; 0x47fa <__divsf3_pse+0x6a>
    4804:	86 95       	lsr	r24
    4806:	77 95       	ror	r23
    4808:	67 95       	ror	r22
    480a:	b7 95       	ror	r27
    480c:	f7 95       	ror	r31
    480e:	9f 5f       	subi	r25, 0xFF	; 255
    4810:	c9 f7       	brne	.-14     	; 0x4804 <__divsf3_pse+0x74>
    4812:	88 0f       	add	r24, r24
    4814:	91 1d       	adc	r25, r1
    4816:	96 95       	lsr	r25
    4818:	87 95       	ror	r24
    481a:	97 f9       	bld	r25, 7
    481c:	08 95       	ret
    481e:	e1 e0       	ldi	r30, 0x01	; 1
    4820:	66 0f       	add	r22, r22
    4822:	77 1f       	adc	r23, r23
    4824:	88 1f       	adc	r24, r24
    4826:	bb 1f       	adc	r27, r27
    4828:	62 17       	cp	r22, r18
    482a:	73 07       	cpc	r23, r19
    482c:	84 07       	cpc	r24, r20
    482e:	ba 07       	cpc	r27, r26
    4830:	20 f0       	brcs	.+8      	; 0x483a <__divsf3_pse+0xaa>
    4832:	62 1b       	sub	r22, r18
    4834:	73 0b       	sbc	r23, r19
    4836:	84 0b       	sbc	r24, r20
    4838:	ba 0b       	sbc	r27, r26
    483a:	ee 1f       	adc	r30, r30
    483c:	88 f7       	brcc	.-30     	; 0x4820 <__divsf3_pse+0x90>
    483e:	e0 95       	com	r30
    4840:	08 95       	ret

00004842 <__fixunssfsi>:
    4842:	7f d0       	rcall	.+254    	; 0x4942 <__fp_splitA>
    4844:	88 f0       	brcs	.+34     	; 0x4868 <__fixunssfsi+0x26>
    4846:	9f 57       	subi	r25, 0x7F	; 127
    4848:	90 f0       	brcs	.+36     	; 0x486e <__fixunssfsi+0x2c>
    484a:	b9 2f       	mov	r27, r25
    484c:	99 27       	eor	r25, r25
    484e:	b7 51       	subi	r27, 0x17	; 23
    4850:	a0 f0       	brcs	.+40     	; 0x487a <__fixunssfsi+0x38>
    4852:	d1 f0       	breq	.+52     	; 0x4888 <__fixunssfsi+0x46>
    4854:	66 0f       	add	r22, r22
    4856:	77 1f       	adc	r23, r23
    4858:	88 1f       	adc	r24, r24
    485a:	99 1f       	adc	r25, r25
    485c:	1a f0       	brmi	.+6      	; 0x4864 <__fixunssfsi+0x22>
    485e:	ba 95       	dec	r27
    4860:	c9 f7       	brne	.-14     	; 0x4854 <__fixunssfsi+0x12>
    4862:	12 c0       	rjmp	.+36     	; 0x4888 <__fixunssfsi+0x46>
    4864:	b1 30       	cpi	r27, 0x01	; 1
    4866:	81 f0       	breq	.+32     	; 0x4888 <__fixunssfsi+0x46>
    4868:	86 d0       	rcall	.+268    	; 0x4976 <__fp_zero>
    486a:	b1 e0       	ldi	r27, 0x01	; 1
    486c:	08 95       	ret
    486e:	83 c0       	rjmp	.+262    	; 0x4976 <__fp_zero>
    4870:	67 2f       	mov	r22, r23
    4872:	78 2f       	mov	r23, r24
    4874:	88 27       	eor	r24, r24
    4876:	b8 5f       	subi	r27, 0xF8	; 248
    4878:	39 f0       	breq	.+14     	; 0x4888 <__fixunssfsi+0x46>
    487a:	b9 3f       	cpi	r27, 0xF9	; 249
    487c:	cc f3       	brlt	.-14     	; 0x4870 <__fixunssfsi+0x2e>
    487e:	86 95       	lsr	r24
    4880:	77 95       	ror	r23
    4882:	67 95       	ror	r22
    4884:	b3 95       	inc	r27
    4886:	d9 f7       	brne	.-10     	; 0x487e <__fixunssfsi+0x3c>
    4888:	3e f4       	brtc	.+14     	; 0x4898 <__fixunssfsi+0x56>
    488a:	90 95       	com	r25
    488c:	80 95       	com	r24
    488e:	70 95       	com	r23
    4890:	61 95       	neg	r22
    4892:	7f 4f       	sbci	r23, 0xFF	; 255
    4894:	8f 4f       	sbci	r24, 0xFF	; 255
    4896:	9f 4f       	sbci	r25, 0xFF	; 255
    4898:	08 95       	ret

0000489a <__fp_cmp>:
    489a:	99 0f       	add	r25, r25
    489c:	00 08       	sbc	r0, r0
    489e:	55 0f       	add	r21, r21
    48a0:	aa 0b       	sbc	r26, r26
    48a2:	e0 e8       	ldi	r30, 0x80	; 128
    48a4:	fe ef       	ldi	r31, 0xFE	; 254
    48a6:	16 16       	cp	r1, r22
    48a8:	17 06       	cpc	r1, r23
    48aa:	e8 07       	cpc	r30, r24
    48ac:	f9 07       	cpc	r31, r25
    48ae:	c0 f0       	brcs	.+48     	; 0x48e0 <__fp_cmp+0x46>
    48b0:	12 16       	cp	r1, r18
    48b2:	13 06       	cpc	r1, r19
    48b4:	e4 07       	cpc	r30, r20
    48b6:	f5 07       	cpc	r31, r21
    48b8:	98 f0       	brcs	.+38     	; 0x48e0 <__fp_cmp+0x46>
    48ba:	62 1b       	sub	r22, r18
    48bc:	73 0b       	sbc	r23, r19
    48be:	84 0b       	sbc	r24, r20
    48c0:	95 0b       	sbc	r25, r21
    48c2:	39 f4       	brne	.+14     	; 0x48d2 <__fp_cmp+0x38>
    48c4:	0a 26       	eor	r0, r26
    48c6:	61 f0       	breq	.+24     	; 0x48e0 <__fp_cmp+0x46>
    48c8:	23 2b       	or	r18, r19
    48ca:	24 2b       	or	r18, r20
    48cc:	25 2b       	or	r18, r21
    48ce:	21 f4       	brne	.+8      	; 0x48d8 <__fp_cmp+0x3e>
    48d0:	08 95       	ret
    48d2:	0a 26       	eor	r0, r26
    48d4:	09 f4       	brne	.+2      	; 0x48d8 <__fp_cmp+0x3e>
    48d6:	a1 40       	sbci	r26, 0x01	; 1
    48d8:	a6 95       	lsr	r26
    48da:	8f ef       	ldi	r24, 0xFF	; 255
    48dc:	81 1d       	adc	r24, r1
    48de:	81 1d       	adc	r24, r1
    48e0:	08 95       	ret

000048e2 <__fp_inf>:
    48e2:	97 f9       	bld	r25, 7
    48e4:	9f 67       	ori	r25, 0x7F	; 127
    48e6:	80 e8       	ldi	r24, 0x80	; 128
    48e8:	70 e0       	ldi	r23, 0x00	; 0
    48ea:	60 e0       	ldi	r22, 0x00	; 0
    48ec:	08 95       	ret

000048ee <__fp_nan>:
    48ee:	9f ef       	ldi	r25, 0xFF	; 255
    48f0:	80 ec       	ldi	r24, 0xC0	; 192
    48f2:	08 95       	ret

000048f4 <__fp_pscA>:
    48f4:	00 24       	eor	r0, r0
    48f6:	0a 94       	dec	r0
    48f8:	16 16       	cp	r1, r22
    48fa:	17 06       	cpc	r1, r23
    48fc:	18 06       	cpc	r1, r24
    48fe:	09 06       	cpc	r0, r25
    4900:	08 95       	ret

00004902 <__fp_pscB>:
    4902:	00 24       	eor	r0, r0
    4904:	0a 94       	dec	r0
    4906:	12 16       	cp	r1, r18
    4908:	13 06       	cpc	r1, r19
    490a:	14 06       	cpc	r1, r20
    490c:	05 06       	cpc	r0, r21
    490e:	08 95       	ret

00004910 <__fp_round>:
    4910:	09 2e       	mov	r0, r25
    4912:	03 94       	inc	r0
    4914:	00 0c       	add	r0, r0
    4916:	11 f4       	brne	.+4      	; 0x491c <__fp_round+0xc>
    4918:	88 23       	and	r24, r24
    491a:	52 f0       	brmi	.+20     	; 0x4930 <__fp_round+0x20>
    491c:	bb 0f       	add	r27, r27
    491e:	40 f4       	brcc	.+16     	; 0x4930 <__fp_round+0x20>
    4920:	bf 2b       	or	r27, r31
    4922:	11 f4       	brne	.+4      	; 0x4928 <__fp_round+0x18>
    4924:	60 ff       	sbrs	r22, 0
    4926:	04 c0       	rjmp	.+8      	; 0x4930 <__fp_round+0x20>
    4928:	6f 5f       	subi	r22, 0xFF	; 255
    492a:	7f 4f       	sbci	r23, 0xFF	; 255
    492c:	8f 4f       	sbci	r24, 0xFF	; 255
    492e:	9f 4f       	sbci	r25, 0xFF	; 255
    4930:	08 95       	ret

00004932 <__fp_split3>:
    4932:	57 fd       	sbrc	r21, 7
    4934:	90 58       	subi	r25, 0x80	; 128
    4936:	44 0f       	add	r20, r20
    4938:	55 1f       	adc	r21, r21
    493a:	59 f0       	breq	.+22     	; 0x4952 <__fp_splitA+0x10>
    493c:	5f 3f       	cpi	r21, 0xFF	; 255
    493e:	71 f0       	breq	.+28     	; 0x495c <__fp_splitA+0x1a>
    4940:	47 95       	ror	r20

00004942 <__fp_splitA>:
    4942:	88 0f       	add	r24, r24
    4944:	97 fb       	bst	r25, 7
    4946:	99 1f       	adc	r25, r25
    4948:	61 f0       	breq	.+24     	; 0x4962 <__fp_splitA+0x20>
    494a:	9f 3f       	cpi	r25, 0xFF	; 255
    494c:	79 f0       	breq	.+30     	; 0x496c <__fp_splitA+0x2a>
    494e:	87 95       	ror	r24
    4950:	08 95       	ret
    4952:	12 16       	cp	r1, r18
    4954:	13 06       	cpc	r1, r19
    4956:	14 06       	cpc	r1, r20
    4958:	55 1f       	adc	r21, r21
    495a:	f2 cf       	rjmp	.-28     	; 0x4940 <__fp_split3+0xe>
    495c:	46 95       	lsr	r20
    495e:	f1 df       	rcall	.-30     	; 0x4942 <__fp_splitA>
    4960:	08 c0       	rjmp	.+16     	; 0x4972 <__fp_splitA+0x30>
    4962:	16 16       	cp	r1, r22
    4964:	17 06       	cpc	r1, r23
    4966:	18 06       	cpc	r1, r24
    4968:	99 1f       	adc	r25, r25
    496a:	f1 cf       	rjmp	.-30     	; 0x494e <__fp_splitA+0xc>
    496c:	86 95       	lsr	r24
    496e:	71 05       	cpc	r23, r1
    4970:	61 05       	cpc	r22, r1
    4972:	08 94       	sec
    4974:	08 95       	ret

00004976 <__fp_zero>:
    4976:	e8 94       	clt

00004978 <__fp_szero>:
    4978:	bb 27       	eor	r27, r27
    497a:	66 27       	eor	r22, r22
    497c:	77 27       	eor	r23, r23
    497e:	cb 01       	movw	r24, r22
    4980:	97 f9       	bld	r25, 7
    4982:	08 95       	ret

00004984 <__gesf2>:
    4984:	8a df       	rcall	.-236    	; 0x489a <__fp_cmp>
    4986:	08 f4       	brcc	.+2      	; 0x498a <__gesf2+0x6>
    4988:	8f ef       	ldi	r24, 0xFF	; 255
    498a:	08 95       	ret

0000498c <__mulsf3>:
    498c:	0b d0       	rcall	.+22     	; 0x49a4 <__mulsf3x>
    498e:	c0 cf       	rjmp	.-128    	; 0x4910 <__fp_round>
    4990:	b1 df       	rcall	.-158    	; 0x48f4 <__fp_pscA>
    4992:	28 f0       	brcs	.+10     	; 0x499e <__mulsf3+0x12>
    4994:	b6 df       	rcall	.-148    	; 0x4902 <__fp_pscB>
    4996:	18 f0       	brcs	.+6      	; 0x499e <__mulsf3+0x12>
    4998:	95 23       	and	r25, r21
    499a:	09 f0       	breq	.+2      	; 0x499e <__mulsf3+0x12>
    499c:	a2 cf       	rjmp	.-188    	; 0x48e2 <__fp_inf>
    499e:	a7 cf       	rjmp	.-178    	; 0x48ee <__fp_nan>
    49a0:	11 24       	eor	r1, r1
    49a2:	ea cf       	rjmp	.-44     	; 0x4978 <__fp_szero>

000049a4 <__mulsf3x>:
    49a4:	c6 df       	rcall	.-116    	; 0x4932 <__fp_split3>
    49a6:	a0 f3       	brcs	.-24     	; 0x4990 <__mulsf3+0x4>

000049a8 <__mulsf3_pse>:
    49a8:	95 9f       	mul	r25, r21
    49aa:	d1 f3       	breq	.-12     	; 0x49a0 <__mulsf3+0x14>
    49ac:	95 0f       	add	r25, r21
    49ae:	50 e0       	ldi	r21, 0x00	; 0
    49b0:	55 1f       	adc	r21, r21
    49b2:	62 9f       	mul	r22, r18
    49b4:	f0 01       	movw	r30, r0
    49b6:	72 9f       	mul	r23, r18
    49b8:	bb 27       	eor	r27, r27
    49ba:	f0 0d       	add	r31, r0
    49bc:	b1 1d       	adc	r27, r1
    49be:	63 9f       	mul	r22, r19
    49c0:	aa 27       	eor	r26, r26
    49c2:	f0 0d       	add	r31, r0
    49c4:	b1 1d       	adc	r27, r1
    49c6:	aa 1f       	adc	r26, r26
    49c8:	64 9f       	mul	r22, r20
    49ca:	66 27       	eor	r22, r22
    49cc:	b0 0d       	add	r27, r0
    49ce:	a1 1d       	adc	r26, r1
    49d0:	66 1f       	adc	r22, r22
    49d2:	82 9f       	mul	r24, r18
    49d4:	22 27       	eor	r18, r18
    49d6:	b0 0d       	add	r27, r0
    49d8:	a1 1d       	adc	r26, r1
    49da:	62 1f       	adc	r22, r18
    49dc:	73 9f       	mul	r23, r19
    49de:	b0 0d       	add	r27, r0
    49e0:	a1 1d       	adc	r26, r1
    49e2:	62 1f       	adc	r22, r18
    49e4:	83 9f       	mul	r24, r19
    49e6:	a0 0d       	add	r26, r0
    49e8:	61 1d       	adc	r22, r1
    49ea:	22 1f       	adc	r18, r18
    49ec:	74 9f       	mul	r23, r20
    49ee:	33 27       	eor	r19, r19
    49f0:	a0 0d       	add	r26, r0
    49f2:	61 1d       	adc	r22, r1
    49f4:	23 1f       	adc	r18, r19
    49f6:	84 9f       	mul	r24, r20
    49f8:	60 0d       	add	r22, r0
    49fa:	21 1d       	adc	r18, r1
    49fc:	82 2f       	mov	r24, r18
    49fe:	76 2f       	mov	r23, r22
    4a00:	6a 2f       	mov	r22, r26
    4a02:	11 24       	eor	r1, r1
    4a04:	9f 57       	subi	r25, 0x7F	; 127
    4a06:	50 40       	sbci	r21, 0x00	; 0
    4a08:	8a f0       	brmi	.+34     	; 0x4a2c <__mulsf3_pse+0x84>
    4a0a:	e1 f0       	breq	.+56     	; 0x4a44 <__mulsf3_pse+0x9c>
    4a0c:	88 23       	and	r24, r24
    4a0e:	4a f0       	brmi	.+18     	; 0x4a22 <__mulsf3_pse+0x7a>
    4a10:	ee 0f       	add	r30, r30
    4a12:	ff 1f       	adc	r31, r31
    4a14:	bb 1f       	adc	r27, r27
    4a16:	66 1f       	adc	r22, r22
    4a18:	77 1f       	adc	r23, r23
    4a1a:	88 1f       	adc	r24, r24
    4a1c:	91 50       	subi	r25, 0x01	; 1
    4a1e:	50 40       	sbci	r21, 0x00	; 0
    4a20:	a9 f7       	brne	.-22     	; 0x4a0c <__mulsf3_pse+0x64>
    4a22:	9e 3f       	cpi	r25, 0xFE	; 254
    4a24:	51 05       	cpc	r21, r1
    4a26:	70 f0       	brcs	.+28     	; 0x4a44 <__mulsf3_pse+0x9c>
    4a28:	5c cf       	rjmp	.-328    	; 0x48e2 <__fp_inf>
    4a2a:	a6 cf       	rjmp	.-180    	; 0x4978 <__fp_szero>
    4a2c:	5f 3f       	cpi	r21, 0xFF	; 255
    4a2e:	ec f3       	brlt	.-6      	; 0x4a2a <__mulsf3_pse+0x82>
    4a30:	98 3e       	cpi	r25, 0xE8	; 232
    4a32:	dc f3       	brlt	.-10     	; 0x4a2a <__mulsf3_pse+0x82>
    4a34:	86 95       	lsr	r24
    4a36:	77 95       	ror	r23
    4a38:	67 95       	ror	r22
    4a3a:	b7 95       	ror	r27
    4a3c:	f7 95       	ror	r31
    4a3e:	e7 95       	ror	r30
    4a40:	9f 5f       	subi	r25, 0xFF	; 255
    4a42:	c1 f7       	brne	.-16     	; 0x4a34 <__mulsf3_pse+0x8c>
    4a44:	fe 2b       	or	r31, r30
    4a46:	88 0f       	add	r24, r24
    4a48:	91 1d       	adc	r25, r1
    4a4a:	96 95       	lsr	r25
    4a4c:	87 95       	ror	r24
    4a4e:	97 f9       	bld	r25, 7
    4a50:	08 95       	ret

00004a52 <__udivmodqi4>:
    4a52:	99 1b       	sub	r25, r25
    4a54:	79 e0       	ldi	r23, 0x09	; 9
    4a56:	04 c0       	rjmp	.+8      	; 0x4a60 <__udivmodqi4_ep>

00004a58 <__udivmodqi4_loop>:
    4a58:	99 1f       	adc	r25, r25
    4a5a:	96 17       	cp	r25, r22
    4a5c:	08 f0       	brcs	.+2      	; 0x4a60 <__udivmodqi4_ep>
    4a5e:	96 1b       	sub	r25, r22

00004a60 <__udivmodqi4_ep>:
    4a60:	88 1f       	adc	r24, r24
    4a62:	7a 95       	dec	r23
    4a64:	c9 f7       	brne	.-14     	; 0x4a58 <__udivmodqi4_loop>
    4a66:	80 95       	com	r24
    4a68:	08 95       	ret

00004a6a <__divmodhi4>:
    4a6a:	97 fb       	bst	r25, 7
    4a6c:	07 2e       	mov	r0, r23
    4a6e:	16 f4       	brtc	.+4      	; 0x4a74 <__divmodhi4+0xa>
    4a70:	00 94       	com	r0
    4a72:	06 d0       	rcall	.+12     	; 0x4a80 <__divmodhi4_neg1>
    4a74:	77 fd       	sbrc	r23, 7
    4a76:	08 d0       	rcall	.+16     	; 0x4a88 <__divmodhi4_neg2>
    4a78:	46 d0       	rcall	.+140    	; 0x4b06 <__udivmodhi4>
    4a7a:	07 fc       	sbrc	r0, 7
    4a7c:	05 d0       	rcall	.+10     	; 0x4a88 <__divmodhi4_neg2>
    4a7e:	3e f4       	brtc	.+14     	; 0x4a8e <__divmodhi4_exit>

00004a80 <__divmodhi4_neg1>:
    4a80:	90 95       	com	r25
    4a82:	81 95       	neg	r24
    4a84:	9f 4f       	sbci	r25, 0xFF	; 255
    4a86:	08 95       	ret

00004a88 <__divmodhi4_neg2>:
    4a88:	70 95       	com	r23
    4a8a:	61 95       	neg	r22
    4a8c:	7f 4f       	sbci	r23, 0xFF	; 255

00004a8e <__divmodhi4_exit>:
    4a8e:	08 95       	ret

00004a90 <__udivmodsi4>:
    4a90:	a1 e2       	ldi	r26, 0x21	; 33
    4a92:	1a 2e       	mov	r1, r26
    4a94:	aa 1b       	sub	r26, r26
    4a96:	bb 1b       	sub	r27, r27
    4a98:	fd 01       	movw	r30, r26
    4a9a:	0d c0       	rjmp	.+26     	; 0x4ab6 <__udivmodsi4_ep>

00004a9c <__udivmodsi4_loop>:
    4a9c:	aa 1f       	adc	r26, r26
    4a9e:	bb 1f       	adc	r27, r27
    4aa0:	ee 1f       	adc	r30, r30
    4aa2:	ff 1f       	adc	r31, r31
    4aa4:	a2 17       	cp	r26, r18
    4aa6:	b3 07       	cpc	r27, r19
    4aa8:	e4 07       	cpc	r30, r20
    4aaa:	f5 07       	cpc	r31, r21
    4aac:	20 f0       	brcs	.+8      	; 0x4ab6 <__udivmodsi4_ep>
    4aae:	a2 1b       	sub	r26, r18
    4ab0:	b3 0b       	sbc	r27, r19
    4ab2:	e4 0b       	sbc	r30, r20
    4ab4:	f5 0b       	sbc	r31, r21

00004ab6 <__udivmodsi4_ep>:
    4ab6:	66 1f       	adc	r22, r22
    4ab8:	77 1f       	adc	r23, r23
    4aba:	88 1f       	adc	r24, r24
    4abc:	99 1f       	adc	r25, r25
    4abe:	1a 94       	dec	r1
    4ac0:	69 f7       	brne	.-38     	; 0x4a9c <__udivmodsi4_loop>
    4ac2:	60 95       	com	r22
    4ac4:	70 95       	com	r23
    4ac6:	80 95       	com	r24
    4ac8:	90 95       	com	r25
    4aca:	9b 01       	movw	r18, r22
    4acc:	ac 01       	movw	r20, r24
    4ace:	bd 01       	movw	r22, r26
    4ad0:	cf 01       	movw	r24, r30
    4ad2:	08 95       	ret

00004ad4 <__umulhisi3>:
    4ad4:	a2 9f       	mul	r26, r18
    4ad6:	b0 01       	movw	r22, r0
    4ad8:	b3 9f       	mul	r27, r19
    4ada:	c0 01       	movw	r24, r0
    4adc:	a3 9f       	mul	r26, r19
    4ade:	70 0d       	add	r23, r0
    4ae0:	81 1d       	adc	r24, r1
    4ae2:	11 24       	eor	r1, r1
    4ae4:	91 1d       	adc	r25, r1
    4ae6:	b2 9f       	mul	r27, r18
    4ae8:	70 0d       	add	r23, r0
    4aea:	81 1d       	adc	r24, r1
    4aec:	11 24       	eor	r1, r1
    4aee:	91 1d       	adc	r25, r1
    4af0:	08 95       	ret

00004af2 <__muluhisi3>:
    4af2:	f0 df       	rcall	.-32     	; 0x4ad4 <__umulhisi3>
    4af4:	a5 9f       	mul	r26, r21
    4af6:	90 0d       	add	r25, r0
    4af8:	b4 9f       	mul	r27, r20
    4afa:	90 0d       	add	r25, r0
    4afc:	a4 9f       	mul	r26, r20
    4afe:	80 0d       	add	r24, r0
    4b00:	91 1d       	adc	r25, r1
    4b02:	11 24       	eor	r1, r1
    4b04:	08 95       	ret

00004b06 <__udivmodhi4>:
    4b06:	aa 1b       	sub	r26, r26
    4b08:	bb 1b       	sub	r27, r27
    4b0a:	51 e1       	ldi	r21, 0x11	; 17
    4b0c:	07 c0       	rjmp	.+14     	; 0x4b1c <__udivmodhi4_ep>

00004b0e <__udivmodhi4_loop>:
    4b0e:	aa 1f       	adc	r26, r26
    4b10:	bb 1f       	adc	r27, r27
    4b12:	a6 17       	cp	r26, r22
    4b14:	b7 07       	cpc	r27, r23
    4b16:	10 f0       	brcs	.+4      	; 0x4b1c <__udivmodhi4_ep>
    4b18:	a6 1b       	sub	r26, r22
    4b1a:	b7 0b       	sbc	r27, r23

00004b1c <__udivmodhi4_ep>:
    4b1c:	88 1f       	adc	r24, r24
    4b1e:	99 1f       	adc	r25, r25
    4b20:	5a 95       	dec	r21
    4b22:	a9 f7       	brne	.-22     	; 0x4b0e <__udivmodhi4_loop>
    4b24:	80 95       	com	r24
    4b26:	90 95       	com	r25
    4b28:	bc 01       	movw	r22, r24
    4b2a:	cd 01       	movw	r24, r26
    4b2c:	08 95       	ret

00004b2e <memset>:
    4b2e:	dc 01       	movw	r26, r24
    4b30:	01 c0       	rjmp	.+2      	; 0x4b34 <memset+0x6>
    4b32:	6d 93       	st	X+, r22
    4b34:	41 50       	subi	r20, 0x01	; 1
    4b36:	50 40       	sbci	r21, 0x00	; 0
    4b38:	e0 f7       	brcc	.-8      	; 0x4b32 <memset+0x4>
    4b3a:	08 95       	ret

00004b3c <_exit>:
    4b3c:	f8 94       	cli

00004b3e <__stop_program>:
    4b3e:	ff cf       	rjmp	.-2      	; 0x4b3e <__stop_program>
