
Tetris_NEW.elf:     file format elf32-avr

Sections:
Idx Name          Size      VMA       LMA       File off  Algn
  0 .data         00000000  00800100  00800100  0000291c  2**0
                  CONTENTS, ALLOC, LOAD, DATA
  1 .text         000028a8  00000000  00000000  00000074  2**1
                  CONTENTS, ALLOC, LOAD, READONLY, CODE
  2 .bss          0000051f  00800100  00800100  0000291c  2**0
                  ALLOC
  3 .comment      00000030  00000000  00000000  0000291c  2**0
                  CONTENTS, READONLY
  4 .note.gnu.avr.deviceinfo 00000040  00000000  00000000  0000294c  2**2
                  CONTENTS, READONLY
  5 .debug_aranges 000001f8  00000000  00000000  0000298c  2**0
                  CONTENTS, READONLY, DEBUGGING
  6 .debug_info   00001934  00000000  00000000  00002b84  2**0
                  CONTENTS, READONLY, DEBUGGING
  7 .debug_abbrev 00000b86  00000000  00000000  000044b8  2**0
                  CONTENTS, READONLY, DEBUGGING
  8 .debug_line   0000159e  00000000  00000000  0000503e  2**0
                  CONTENTS, READONLY, DEBUGGING
  9 .debug_frame  000008c0  00000000  00000000  000065dc  2**2
                  CONTENTS, READONLY, DEBUGGING
 10 .debug_str    00000861  00000000  00000000  00006e9c  2**0
                  CONTENTS, READONLY, DEBUGGING
 11 .debug_loc    000012be  00000000  00000000  000076fd  2**0
                  CONTENTS, READONLY, DEBUGGING
 12 .debug_ranges 000001d8  00000000  00000000  000089bb  2**0
                  CONTENTS, READONLY, DEBUGGING

Disassembly of section .text:

00000000 <__vectors>:
       0:	61 c0       	rjmp	.+194    	; 0xc4 <__ctors_end>
       2:	00 00       	nop
       4:	7e c0       	rjmp	.+252    	; 0x102 <__bad_interrupt>
       6:	00 00       	nop
       8:	7c c0       	rjmp	.+248    	; 0x102 <__bad_interrupt>
       a:	00 00       	nop
       c:	7a c0       	rjmp	.+244    	; 0x102 <__bad_interrupt>
       e:	00 00       	nop
      10:	78 c0       	rjmp	.+240    	; 0x102 <__bad_interrupt>
      12:	00 00       	nop
      14:	c7 c5       	rjmp	.+2958   	; 0xba4 <__vector_5>
      16:	00 00       	nop
      18:	ee c6       	rjmp	.+3548   	; 0xdf6 <__vector_6>
      1a:	00 00       	nop
      1c:	0c 94 22 08 	jmp	0x1044	; 0x1044 <__vector_7>
      20:	0c 94 44 09 	jmp	0x1288	; 0x1288 <__vector_8>
      24:	6e c0       	rjmp	.+220    	; 0x102 <__bad_interrupt>
      26:	00 00       	nop
      28:	6c c0       	rjmp	.+216    	; 0x102 <__bad_interrupt>
      2a:	00 00       	nop
      2c:	6a c0       	rjmp	.+212    	; 0x102 <__bad_interrupt>
      2e:	00 00       	nop
      30:	0c 94 65 0a 	jmp	0x14ca	; 0x14ca <__vector_12>
      34:	66 c0       	rjmp	.+204    	; 0x102 <__bad_interrupt>
      36:	00 00       	nop
      38:	64 c0       	rjmp	.+200    	; 0x102 <__bad_interrupt>
      3a:	00 00       	nop
      3c:	62 c0       	rjmp	.+196    	; 0x102 <__bad_interrupt>
      3e:	00 00       	nop
      40:	60 c0       	rjmp	.+192    	; 0x102 <__bad_interrupt>
      42:	00 00       	nop
      44:	5e c0       	rjmp	.+188    	; 0x102 <__bad_interrupt>
      46:	00 00       	nop
      48:	5c c0       	rjmp	.+184    	; 0x102 <__bad_interrupt>
      4a:	00 00       	nop
      4c:	5a c0       	rjmp	.+180    	; 0x102 <__bad_interrupt>
      4e:	00 00       	nop
      50:	58 c0       	rjmp	.+176    	; 0x102 <__bad_interrupt>
      52:	00 00       	nop
      54:	56 c0       	rjmp	.+172    	; 0x102 <__bad_interrupt>
      56:	00 00       	nop
      58:	54 c0       	rjmp	.+168    	; 0x102 <__bad_interrupt>
      5a:	00 00       	nop
      5c:	52 c0       	rjmp	.+164    	; 0x102 <__bad_interrupt>
      5e:	00 00       	nop
      60:	50 c0       	rjmp	.+160    	; 0x102 <__bad_interrupt>
      62:	00 00       	nop
      64:	4e c0       	rjmp	.+156    	; 0x102 <__bad_interrupt>
      66:	00 00       	nop
      68:	4c c0       	rjmp	.+152    	; 0x102 <__bad_interrupt>
      6a:	00 00       	nop
      6c:	4a c0       	rjmp	.+148    	; 0x102 <__bad_interrupt>
      6e:	00 00       	nop
      70:	48 c0       	rjmp	.+144    	; 0x102 <__bad_interrupt>
      72:	00 00       	nop
      74:	46 c0       	rjmp	.+140    	; 0x102 <__bad_interrupt>
      76:	00 00       	nop
      78:	44 c0       	rjmp	.+136    	; 0x102 <__bad_interrupt>
      7a:	00 00       	nop
      7c:	42 c0       	rjmp	.+132    	; 0x102 <__bad_interrupt>
      7e:	00 00       	nop
      80:	40 c0       	rjmp	.+128    	; 0x102 <__bad_interrupt>
      82:	00 00       	nop
      84:	3e c0       	rjmp	.+124    	; 0x102 <__bad_interrupt>
      86:	00 00       	nop
      88:	3c c0       	rjmp	.+120    	; 0x102 <__bad_interrupt>
	...

0000008c <__trampolines_end>:
      8c:	00 66       	ori	r16, 0x60	; 96
      8e:	00 66       	ori	r16, 0x60	; 96
      90:	00 66       	ori	r16, 0x60	; 96
      92:	00 66       	ori	r16, 0x60	; 96
      94:	00 f0       	brcs	.+0      	; 0x96 <__trampolines_end+0xa>
      96:	44 44       	sbci	r20, 0x44	; 68
      98:	00 f0       	brcs	.+0      	; 0x9a <__trampolines_end+0xe>
      9a:	44 44       	sbci	r20, 0x44	; 68
      9c:	00 6c       	ori	r16, 0xC0	; 192
      9e:	40 8c       	ldd	r4, Z+24	; 0x18
      a0:	00 6c       	ori	r16, 0xC0	; 192
      a2:	40 8c       	ldd	r4, Z+24	; 0x18
      a4:	00 c6       	rjmp	.+3072   	; 0xca6 <__vector_5+0x102>
      a6:	80 4c       	sbci	r24, 0xC0	; 192
      a8:	00 c6       	rjmp	.+3072   	; 0xcaa <__vector_5+0x106>
      aa:	80 4c       	sbci	r24, 0xC0	; 192
      ac:	00 4e       	sbci	r16, 0xE0	; 224
      ae:	80 8c       	ldd	r8, Z+24	; 0x18
      b0:	00 e4       	ldi	r16, 0x40	; 64
      b2:	40 4c       	sbci	r20, 0xC0	; 192
      b4:	00 2e       	mov	r0, r16
      b6:	40 c4       	rjmp	.+2176   	; 0x938 <tetriminos_to_temp_line+0x16a>
      b8:	00 e8       	ldi	r16, 0x80	; 128
      ba:	c0 88       	ldd	r12, Z+16	; 0x10
      bc:	00 8e       	std	Z+24, r0	; 0x18
      be:	c0 44       	sbci	r28, 0x40	; 64
      c0:	00 e2       	ldi	r16, 0x20	; 32
      c2:	80 c8       	rjmp	.-3840   	; 0xfffff1c4 <__eeprom_end+0xff7ef1c4>

000000c4 <__ctors_end>:
      c4:	11 24       	eor	r1, r1
      c6:	1f be       	out	0x3f, r1	; 63
      c8:	cf ef       	ldi	r28, 0xFF	; 255
      ca:	d0 e1       	ldi	r29, 0x10	; 16
      cc:	de bf       	out	0x3e, r29	; 62
      ce:	cd bf       	out	0x3d, r28	; 61

000000d0 <__do_copy_data>:
      d0:	11 e0       	ldi	r17, 0x01	; 1
      d2:	a0 e0       	ldi	r26, 0x00	; 0
      d4:	b1 e0       	ldi	r27, 0x01	; 1
      d6:	e8 ea       	ldi	r30, 0xA8	; 168
      d8:	f8 e2       	ldi	r31, 0x28	; 40
      da:	00 e0       	ldi	r16, 0x00	; 0
      dc:	0b bf       	out	0x3b, r16	; 59
      de:	02 c0       	rjmp	.+4      	; 0xe4 <__do_copy_data+0x14>
      e0:	07 90       	elpm	r0, Z+
      e2:	0d 92       	st	X+, r0
      e4:	a0 30       	cpi	r26, 0x00	; 0
      e6:	b1 07       	cpc	r27, r17
      e8:	d9 f7       	brne	.-10     	; 0xe0 <__do_copy_data+0x10>

000000ea <__do_clear_bss>:
      ea:	26 e0       	ldi	r18, 0x06	; 6
      ec:	a0 e0       	ldi	r26, 0x00	; 0
      ee:	b1 e0       	ldi	r27, 0x01	; 1
      f0:	01 c0       	rjmp	.+2      	; 0xf4 <.do_clear_bss_start>

000000f2 <.do_clear_bss_loop>:
      f2:	1d 92       	st	X+, r1

000000f4 <.do_clear_bss_start>:
      f4:	af 31       	cpi	r26, 0x1F	; 31
      f6:	b2 07       	cpc	r27, r18
      f8:	e1 f7       	brne	.-8      	; 0xf2 <.do_clear_bss_loop>
      fa:	0e 94 3e 12 	call	0x247c	; 0x247c <main>
      fe:	0c 94 52 14 	jmp	0x28a4	; 0x28a4 <_exit>

00000102 <__bad_interrupt>:
     102:	7e cf       	rjmp	.-260    	; 0x0 <__vectors>

00000104 <twiStart>:
        return -1;

    twi_stop();

    return 0;
}
     104:	cf 93       	push	r28
     106:	df 93       	push	r29
     108:	cd b7       	in	r28, 0x3d	; 61
     10a:	de b7       	in	r29, 0x3e	; 62
     10c:	80 e7       	ldi	r24, 0x70	; 112
     10e:	90 e0       	ldi	r25, 0x00	; 0
     110:	24 ea       	ldi	r18, 0xA4	; 164
     112:	fc 01       	movw	r30, r24
     114:	24 83       	std	Z+4, r18	; 0x04
     116:	00 00       	nop
     118:	df 91       	pop	r29
     11a:	cf 91       	pop	r28
     11c:	08 95       	ret

0000011e <twiStop>:
     11e:	cf 93       	push	r28
     120:	df 93       	push	r29
     122:	cd b7       	in	r28, 0x3d	; 61
     124:	de b7       	in	r29, 0x3e	; 62
     126:	80 e7       	ldi	r24, 0x70	; 112
     128:	90 e0       	ldi	r25, 0x00	; 0
     12a:	24 e9       	ldi	r18, 0x94	; 148
     12c:	fc 01       	movw	r30, r24
     12e:	24 83       	std	Z+4, r18	; 0x04
     130:	00 00       	nop
     132:	df 91       	pop	r29
     134:	cf 91       	pop	r28
     136:	08 95       	ret

00000138 <twiWaitAck>:
     138:	cf 93       	push	r28
     13a:	df 93       	push	r29
     13c:	cd b7       	in	r28, 0x3d	; 61
     13e:	de b7       	in	r29, 0x3e	; 62
     140:	00 00       	nop
     142:	80 e7       	ldi	r24, 0x70	; 112
     144:	90 e0       	ldi	r25, 0x00	; 0
     146:	fc 01       	movw	r30, r24
     148:	84 81       	ldd	r24, Z+4	; 0x04
     14a:	88 23       	and	r24, r24
     14c:	d4 f7       	brge	.-12     	; 0x142 <twiWaitAck+0xa>
     14e:	00 00       	nop
     150:	df 91       	pop	r29
     152:	cf 91       	pop	r28
     154:	08 95       	ret

00000156 <twiChkAck>:
     156:	cf 93       	push	r28
     158:	df 93       	push	r29
     15a:	cd b7       	in	r28, 0x3d	; 61
     15c:	de b7       	in	r29, 0x3e	; 62
     15e:	80 e7       	ldi	r24, 0x70	; 112
     160:	90 e0       	ldi	r25, 0x00	; 0
     162:	fc 01       	movw	r30, r24
     164:	81 81       	ldd	r24, Z+1	; 0x01
     166:	88 7f       	andi	r24, 0xF8	; 248
     168:	df 91       	pop	r29
     16a:	cf 91       	pop	r28
     16c:	08 95       	ret

0000016e <twiSendByte>:
     16e:	cf 93       	push	r28
     170:	df 93       	push	r29
     172:	1f 92       	push	r1
     174:	cd b7       	in	r28, 0x3d	; 61
     176:	de b7       	in	r29, 0x3e	; 62
     178:	89 83       	std	Y+1, r24	; 0x01
     17a:	80 e7       	ldi	r24, 0x70	; 112
     17c:	90 e0       	ldi	r25, 0x00	; 0
     17e:	29 81       	ldd	r18, Y+1	; 0x01
     180:	fc 01       	movw	r30, r24
     182:	23 83       	std	Z+3, r18	; 0x03
     184:	80 e7       	ldi	r24, 0x70	; 112
     186:	90 e0       	ldi	r25, 0x00	; 0
     188:	24 e8       	ldi	r18, 0x84	; 132
     18a:	fc 01       	movw	r30, r24
     18c:	24 83       	std	Z+4, r18	; 0x04
     18e:	00 00       	nop
     190:	0f 90       	pop	r0
     192:	df 91       	pop	r29
     194:	cf 91       	pop	r28
     196:	08 95       	ret

00000198 <twi_start>:
     198:	cf 93       	push	r28
     19a:	df 93       	push	r29
     19c:	cd b7       	in	r28, 0x3d	; 61
     19e:	de b7       	in	r29, 0x3e	; 62
     1a0:	b1 df       	rcall	.-158    	; 0x104 <twiStart>
     1a2:	ca df       	rcall	.-108    	; 0x138 <twiWaitAck>
     1a4:	d8 df       	rcall	.-80     	; 0x156 <twiChkAck>
     1a6:	88 30       	cpi	r24, 0x08	; 8
     1a8:	19 f0       	breq	.+6      	; 0x1b0 <twi_start+0x18>
     1aa:	8f ef       	ldi	r24, 0xFF	; 255
     1ac:	9f ef       	ldi	r25, 0xFF	; 255
     1ae:	02 c0       	rjmp	.+4      	; 0x1b4 <twi_start+0x1c>
     1b0:	80 e0       	ldi	r24, 0x00	; 0
     1b2:	90 e0       	ldi	r25, 0x00	; 0
     1b4:	df 91       	pop	r29
     1b6:	cf 91       	pop	r28
     1b8:	08 95       	ret

000001ba <twi_stop>:
     1ba:	cf 93       	push	r28
     1bc:	df 93       	push	r29
     1be:	cd b7       	in	r28, 0x3d	; 61
     1c0:	de b7       	in	r29, 0x3e	; 62
     1c2:	ad df       	rcall	.-166    	; 0x11e <twiStop>
     1c4:	00 00       	nop
     1c6:	df 91       	pop	r29
     1c8:	cf 91       	pop	r28
     1ca:	08 95       	ret

000001cc <twi_send_dev_addr>:
     1cc:	cf 93       	push	r28
     1ce:	df 93       	push	r29
     1d0:	00 d0       	rcall	.+0      	; 0x1d2 <twi_send_dev_addr+0x6>
     1d2:	cd b7       	in	r28, 0x3d	; 61
     1d4:	de b7       	in	r29, 0x3e	; 62
     1d6:	8a 83       	std	Y+2, r24	; 0x02
     1d8:	8a 81       	ldd	r24, Y+2	; 0x02
     1da:	88 2f       	mov	r24, r24
     1dc:	90 e0       	ldi	r25, 0x00	; 0
     1de:	81 70       	andi	r24, 0x01	; 1
     1e0:	99 27       	eor	r25, r25
     1e2:	89 2b       	or	r24, r25
     1e4:	11 f0       	breq	.+4      	; 0x1ea <twi_send_dev_addr+0x1e>
     1e6:	80 e4       	ldi	r24, 0x40	; 64
     1e8:	01 c0       	rjmp	.+2      	; 0x1ec <twi_send_dev_addr+0x20>
     1ea:	88 e1       	ldi	r24, 0x18	; 24
     1ec:	89 83       	std	Y+1, r24	; 0x01
     1ee:	8a 81       	ldd	r24, Y+2	; 0x02
     1f0:	be df       	rcall	.-132    	; 0x16e <twiSendByte>
     1f2:	a2 df       	rcall	.-188    	; 0x138 <twiWaitAck>
     1f4:	b0 df       	rcall	.-160    	; 0x156 <twiChkAck>
     1f6:	98 2f       	mov	r25, r24
     1f8:	89 81       	ldd	r24, Y+1	; 0x01
     1fa:	98 17       	cp	r25, r24
     1fc:	19 f0       	breq	.+6      	; 0x204 <twi_send_dev_addr+0x38>
     1fe:	8f ef       	ldi	r24, 0xFF	; 255
     200:	9f ef       	ldi	r25, 0xFF	; 255
     202:	02 c0       	rjmp	.+4      	; 0x208 <twi_send_dev_addr+0x3c>
     204:	80 e0       	ldi	r24, 0x00	; 0
     206:	90 e0       	ldi	r25, 0x00	; 0
     208:	0f 90       	pop	r0
     20a:	0f 90       	pop	r0
     20c:	df 91       	pop	r29
     20e:	cf 91       	pop	r28
     210:	08 95       	ret

00000212 <twi_send_data>:
     212:	cf 93       	push	r28
     214:	df 93       	push	r29
     216:	1f 92       	push	r1
     218:	cd b7       	in	r28, 0x3d	; 61
     21a:	de b7       	in	r29, 0x3e	; 62
     21c:	89 83       	std	Y+1, r24	; 0x01
     21e:	89 81       	ldd	r24, Y+1	; 0x01
     220:	a6 df       	rcall	.-180    	; 0x16e <twiSendByte>
     222:	8a df       	rcall	.-236    	; 0x138 <twiWaitAck>
     224:	98 df       	rcall	.-208    	; 0x156 <twiChkAck>
     226:	88 32       	cpi	r24, 0x28	; 40
     228:	19 f0       	breq	.+6      	; 0x230 <twi_send_data+0x1e>
     22a:	8f ef       	ldi	r24, 0xFF	; 255
     22c:	9f ef       	ldi	r25, 0xFF	; 255
     22e:	02 c0       	rjmp	.+4      	; 0x234 <twi_send_data+0x22>
     230:	80 e0       	ldi	r24, 0x00	; 0
     232:	90 e0       	ldi	r25, 0x00	; 0
     234:	0f 90       	pop	r0
     236:	df 91       	pop	r29
     238:	cf 91       	pop	r28
     23a:	08 95       	ret

0000023c <twi_write>:
     23c:	cf 93       	push	r28
     23e:	df 93       	push	r29
     240:	cd b7       	in	r28, 0x3d	; 61
     242:	de b7       	in	r29, 0x3e	; 62
     244:	28 97       	sbiw	r28, 0x08	; 8
     246:	0f b6       	in	r0, 0x3f	; 63
     248:	f8 94       	cli
     24a:	de bf       	out	0x3e, r29	; 62
     24c:	0f be       	out	0x3f, r0	; 63
     24e:	cd bf       	out	0x3d, r28	; 61
     250:	8b 83       	std	Y+3, r24	; 0x03
     252:	6c 83       	std	Y+4, r22	; 0x04
     254:	5e 83       	std	Y+6, r21	; 0x06
     256:	4d 83       	std	Y+5, r20	; 0x05
     258:	38 87       	std	Y+8, r19	; 0x08
     25a:	2f 83       	std	Y+7, r18	; 0x07
     25c:	9d df       	rcall	.-198    	; 0x198 <twi_start>
     25e:	89 2b       	or	r24, r25
     260:	19 f0       	breq	.+6      	; 0x268 <twi_write+0x2c>
     262:	8f ef       	ldi	r24, 0xFF	; 255
     264:	9f ef       	ldi	r25, 0xFF	; 255
     266:	30 c0       	rjmp	.+96     	; 0x2c8 <twi_write+0x8c>
     268:	8b 81       	ldd	r24, Y+3	; 0x03
     26a:	88 0f       	add	r24, r24
     26c:	af df       	rcall	.-162    	; 0x1cc <twi_send_dev_addr>
     26e:	89 2b       	or	r24, r25
     270:	19 f0       	breq	.+6      	; 0x278 <twi_write+0x3c>
     272:	8f ef       	ldi	r24, 0xFF	; 255
     274:	9f ef       	ldi	r25, 0xFF	; 255
     276:	28 c0       	rjmp	.+80     	; 0x2c8 <twi_write+0x8c>
     278:	8c 81       	ldd	r24, Y+4	; 0x04
     27a:	cb df       	rcall	.-106    	; 0x212 <twi_send_data>
     27c:	89 2b       	or	r24, r25
     27e:	19 f0       	breq	.+6      	; 0x286 <twi_write+0x4a>
     280:	8f ef       	ldi	r24, 0xFF	; 255
     282:	9f ef       	ldi	r25, 0xFF	; 255
     284:	21 c0       	rjmp	.+66     	; 0x2c8 <twi_write+0x8c>
     286:	1a 82       	std	Y+2, r1	; 0x02
     288:	19 82       	std	Y+1, r1	; 0x01
     28a:	14 c0       	rjmp	.+40     	; 0x2b4 <twi_write+0x78>
     28c:	8d 81       	ldd	r24, Y+5	; 0x05
     28e:	9e 81       	ldd	r25, Y+6	; 0x06
     290:	9c 01       	movw	r18, r24
     292:	2f 5f       	subi	r18, 0xFF	; 255
     294:	3f 4f       	sbci	r19, 0xFF	; 255
     296:	3e 83       	std	Y+6, r19	; 0x06
     298:	2d 83       	std	Y+5, r18	; 0x05
     29a:	fc 01       	movw	r30, r24
     29c:	80 81       	ld	r24, Z
     29e:	b9 df       	rcall	.-142    	; 0x212 <twi_send_data>
     2a0:	89 2b       	or	r24, r25
     2a2:	19 f0       	breq	.+6      	; 0x2aa <twi_write+0x6e>
     2a4:	8f ef       	ldi	r24, 0xFF	; 255
     2a6:	9f ef       	ldi	r25, 0xFF	; 255
     2a8:	0f c0       	rjmp	.+30     	; 0x2c8 <twi_write+0x8c>
     2aa:	89 81       	ldd	r24, Y+1	; 0x01
     2ac:	9a 81       	ldd	r25, Y+2	; 0x02
     2ae:	01 96       	adiw	r24, 0x01	; 1
     2b0:	9a 83       	std	Y+2, r25	; 0x02
     2b2:	89 83       	std	Y+1, r24	; 0x01
     2b4:	29 81       	ldd	r18, Y+1	; 0x01
     2b6:	3a 81       	ldd	r19, Y+2	; 0x02
     2b8:	8f 81       	ldd	r24, Y+7	; 0x07
     2ba:	98 85       	ldd	r25, Y+8	; 0x08
     2bc:	28 17       	cp	r18, r24
     2be:	39 07       	cpc	r19, r25
     2c0:	2c f3       	brlt	.-54     	; 0x28c <twi_write+0x50>
     2c2:	7b df       	rcall	.-266    	; 0x1ba <twi_stop>
     2c4:	80 e0       	ldi	r24, 0x00	; 0
     2c6:	90 e0       	ldi	r25, 0x00	; 0
     2c8:	28 96       	adiw	r28, 0x08	; 8
     2ca:	0f b6       	in	r0, 0x3f	; 63
     2cc:	f8 94       	cli
     2ce:	de bf       	out	0x3e, r29	; 62
     2d0:	0f be       	out	0x3f, r0	; 63
     2d2:	cd bf       	out	0x3d, r28	; 61
     2d4:	df 91       	pop	r29
     2d6:	cf 91       	pop	r28
     2d8:	08 95       	ret

000002da <twi_init>:

void twi_init(void)
{
     2da:	cf 93       	push	r28
     2dc:	df 93       	push	r29
     2de:	cd b7       	in	r28, 0x3d	; 61
     2e0:	de b7       	in	r29, 0x3e	; 62
    twi->twbr = 5;
     2e2:	80 e7       	ldi	r24, 0x70	; 112
     2e4:	90 e0       	ldi	r25, 0x00	; 0
     2e6:	25 e0       	ldi	r18, 0x05	; 5
     2e8:	fc 01       	movw	r30, r24
     2ea:	20 83       	st	Z, r18
    twi->twsr = 0;
     2ec:	80 e7       	ldi	r24, 0x70	; 112
     2ee:	90 e0       	ldi	r25, 0x00	; 0
     2f0:	fc 01       	movw	r30, r24
     2f2:	11 82       	std	Z+1, r1	; 0x01
}
     2f4:	00 00       	nop
     2f6:	df 91       	pop	r29
     2f8:	cf 91       	pop	r28
     2fa:	08 95       	ret

000002fc <UART_Init>:
	for(unsigned char y=0;y<8;y++)
	{
		ssd1306_set_page_start(y);
		ssd1306_data(MAP[y], COL_NUM);
	}
}
     2fc:	cf 93       	push	r28
     2fe:	df 93       	push	r29
     300:	cd b7       	in	r28, 0x3d	; 61
     302:	de b7       	in	r29, 0x3e	; 62
     304:	8a e2       	ldi	r24, 0x2A	; 42
     306:	90 e0       	ldi	r25, 0x00	; 0
     308:	28 e1       	ldi	r18, 0x18	; 24
     30a:	fc 01       	movw	r30, r24
     30c:	20 83       	st	Z, r18
     30e:	85 e9       	ldi	r24, 0x95	; 149
     310:	90 e0       	ldi	r25, 0x00	; 0
     312:	26 e0       	ldi	r18, 0x06	; 6
     314:	fc 01       	movw	r30, r24
     316:	20 83       	st	Z, r18
     318:	89 e2       	ldi	r24, 0x29	; 41
     31a:	90 e0       	ldi	r25, 0x00	; 0
     31c:	27 e6       	ldi	r18, 0x67	; 103
     31e:	fc 01       	movw	r30, r24
     320:	20 83       	st	Z, r18
     322:	00 00       	nop
     324:	df 91       	pop	r29
     326:	cf 91       	pop	r28
     328:	08 95       	ret

0000032a <ssd1306_cmd>:
     32a:	cf 93       	push	r28
     32c:	df 93       	push	r29
     32e:	00 d0       	rcall	.+0      	; 0x330 <ssd1306_cmd+0x6>
     330:	1f 92       	push	r1
     332:	cd b7       	in	r28, 0x3d	; 61
     334:	de b7       	in	r29, 0x3e	; 62
     336:	9a 83       	std	Y+2, r25	; 0x02
     338:	89 83       	std	Y+1, r24	; 0x01
     33a:	6b 83       	std	Y+3, r22	; 0x03
     33c:	8b 81       	ldd	r24, Y+3	; 0x03
     33e:	28 2f       	mov	r18, r24
     340:	30 e0       	ldi	r19, 0x00	; 0
     342:	89 81       	ldd	r24, Y+1	; 0x01
     344:	9a 81       	ldd	r25, Y+2	; 0x02
     346:	ac 01       	movw	r20, r24
     348:	60 e0       	ldi	r22, 0x00	; 0
     34a:	8c e3       	ldi	r24, 0x3C	; 60
     34c:	77 df       	rcall	.-274    	; 0x23c <twi_write>
     34e:	00 00       	nop
     350:	0f 90       	pop	r0
     352:	0f 90       	pop	r0
     354:	0f 90       	pop	r0
     356:	df 91       	pop	r29
     358:	cf 91       	pop	r28
     35a:	08 95       	ret

0000035c <ssd1306_data>:
     35c:	cf 93       	push	r28
     35e:	df 93       	push	r29
     360:	00 d0       	rcall	.+0      	; 0x362 <ssd1306_data+0x6>
     362:	00 d0       	rcall	.+0      	; 0x364 <ssd1306_data+0x8>
     364:	cd b7       	in	r28, 0x3d	; 61
     366:	de b7       	in	r29, 0x3e	; 62
     368:	9a 83       	std	Y+2, r25	; 0x02
     36a:	89 83       	std	Y+1, r24	; 0x01
     36c:	7c 83       	std	Y+4, r23	; 0x04
     36e:	6b 83       	std	Y+3, r22	; 0x03
     370:	2b 81       	ldd	r18, Y+3	; 0x03
     372:	3c 81       	ldd	r19, Y+4	; 0x04
     374:	89 81       	ldd	r24, Y+1	; 0x01
     376:	9a 81       	ldd	r25, Y+2	; 0x02
     378:	ac 01       	movw	r20, r24
     37a:	60 e4       	ldi	r22, 0x40	; 64
     37c:	8c e3       	ldi	r24, 0x3C	; 60
     37e:	5e df       	rcall	.-324    	; 0x23c <twi_write>
     380:	00 00       	nop
     382:	0f 90       	pop	r0
     384:	0f 90       	pop	r0
     386:	0f 90       	pop	r0
     388:	0f 90       	pop	r0
     38a:	df 91       	pop	r29
     38c:	cf 91       	pop	r28
     38e:	08 95       	ret

00000390 <ssd1306_reset>:
     390:	cf 93       	push	r28
     392:	df 93       	push	r29
     394:	cd b7       	in	r28, 0x3d	; 61
     396:	de b7       	in	r29, 0x3e	; 62
     398:	00 00       	nop
     39a:	df 91       	pop	r29
     39c:	cf 91       	pop	r28
     39e:	08 95       	ret

000003a0 <ssd1306_chargepump_enable>:
     3a0:	cf 93       	push	r28
     3a2:	df 93       	push	r29
     3a4:	00 d0       	rcall	.+0      	; 0x3a6 <ssd1306_chargepump_enable+0x6>
     3a6:	00 d0       	rcall	.+0      	; 0x3a8 <ssd1306_chargepump_enable+0x8>
     3a8:	cd b7       	in	r28, 0x3d	; 61
     3aa:	de b7       	in	r29, 0x3e	; 62
     3ac:	9c 83       	std	Y+4, r25	; 0x04
     3ae:	8b 83       	std	Y+3, r24	; 0x03
     3b0:	8d e8       	ldi	r24, 0x8D	; 141
     3b2:	89 83       	std	Y+1, r24	; 0x01
     3b4:	8b 81       	ldd	r24, Y+3	; 0x03
     3b6:	9c 81       	ldd	r25, Y+4	; 0x04
     3b8:	89 2b       	or	r24, r25
     3ba:	11 f0       	breq	.+4      	; 0x3c0 <ssd1306_chargepump_enable+0x20>
     3bc:	84 e1       	ldi	r24, 0x14	; 20
     3be:	01 c0       	rjmp	.+2      	; 0x3c2 <ssd1306_chargepump_enable+0x22>
     3c0:	80 e1       	ldi	r24, 0x10	; 16
     3c2:	8a 83       	std	Y+2, r24	; 0x02
     3c4:	62 e0       	ldi	r22, 0x02	; 2
     3c6:	ce 01       	movw	r24, r28
     3c8:	01 96       	adiw	r24, 0x01	; 1
     3ca:	af df       	rcall	.-162    	; 0x32a <ssd1306_cmd>
     3cc:	00 00       	nop
     3ce:	0f 90       	pop	r0
     3d0:	0f 90       	pop	r0
     3d2:	0f 90       	pop	r0
     3d4:	0f 90       	pop	r0
     3d6:	df 91       	pop	r29
     3d8:	cf 91       	pop	r28
     3da:	08 95       	ret

000003dc <ssd1306_entire_on>:
     3dc:	cf 93       	push	r28
     3de:	df 93       	push	r29
     3e0:	00 d0       	rcall	.+0      	; 0x3e2 <ssd1306_entire_on+0x6>
     3e2:	1f 92       	push	r1
     3e4:	cd b7       	in	r28, 0x3d	; 61
     3e6:	de b7       	in	r29, 0x3e	; 62
     3e8:	9b 83       	std	Y+3, r25	; 0x03
     3ea:	8a 83       	std	Y+2, r24	; 0x02
     3ec:	8a 81       	ldd	r24, Y+2	; 0x02
     3ee:	84 6a       	ori	r24, 0xA4	; 164
     3f0:	89 83       	std	Y+1, r24	; 0x01
     3f2:	61 e0       	ldi	r22, 0x01	; 1
     3f4:	ce 01       	movw	r24, r28
     3f6:	01 96       	adiw	r24, 0x01	; 1
     3f8:	98 df       	rcall	.-208    	; 0x32a <ssd1306_cmd>
     3fa:	00 00       	nop
     3fc:	0f 90       	pop	r0
     3fe:	0f 90       	pop	r0
     400:	0f 90       	pop	r0
     402:	df 91       	pop	r29
     404:	cf 91       	pop	r28
     406:	08 95       	ret

00000408 <ssd1306_display_on>:
     408:	cf 93       	push	r28
     40a:	df 93       	push	r29
     40c:	00 d0       	rcall	.+0      	; 0x40e <ssd1306_display_on+0x6>
     40e:	1f 92       	push	r1
     410:	cd b7       	in	r28, 0x3d	; 61
     412:	de b7       	in	r29, 0x3e	; 62
     414:	9b 83       	std	Y+3, r25	; 0x03
     416:	8a 83       	std	Y+2, r24	; 0x02
     418:	8a 81       	ldd	r24, Y+2	; 0x02
     41a:	8e 6a       	ori	r24, 0xAE	; 174
     41c:	89 83       	std	Y+1, r24	; 0x01
     41e:	61 e0       	ldi	r22, 0x01	; 1
     420:	ce 01       	movw	r24, r28
     422:	01 96       	adiw	r24, 0x01	; 1
     424:	82 df       	rcall	.-252    	; 0x32a <ssd1306_cmd>
     426:	00 00       	nop
     428:	0f 90       	pop	r0
     42a:	0f 90       	pop	r0
     42c:	0f 90       	pop	r0
     42e:	df 91       	pop	r29
     430:	cf 91       	pop	r28
     432:	08 95       	ret

00000434 <ssd1306_set_addr_mode>:
     434:	cf 93       	push	r28
     436:	df 93       	push	r29
     438:	00 d0       	rcall	.+0      	; 0x43a <ssd1306_set_addr_mode+0x6>
     43a:	1f 92       	push	r1
     43c:	cd b7       	in	r28, 0x3d	; 61
     43e:	de b7       	in	r29, 0x3e	; 62
     440:	8b 83       	std	Y+3, r24	; 0x03
     442:	80 e2       	ldi	r24, 0x20	; 32
     444:	89 83       	std	Y+1, r24	; 0x01
     446:	8b 81       	ldd	r24, Y+3	; 0x03
     448:	8a 83       	std	Y+2, r24	; 0x02
     44a:	62 e0       	ldi	r22, 0x02	; 2
     44c:	ce 01       	movw	r24, r28
     44e:	01 96       	adiw	r24, 0x01	; 1
     450:	6c df       	rcall	.-296    	; 0x32a <ssd1306_cmd>
     452:	00 00       	nop
     454:	0f 90       	pop	r0
     456:	0f 90       	pop	r0
     458:	0f 90       	pop	r0
     45a:	df 91       	pop	r29
     45c:	cf 91       	pop	r28
     45e:	08 95       	ret

00000460 <ssd1306_set_page_start>:
     460:	cf 93       	push	r28
     462:	df 93       	push	r29
     464:	00 d0       	rcall	.+0      	; 0x466 <ssd1306_set_page_start+0x6>
     466:	cd b7       	in	r28, 0x3d	; 61
     468:	de b7       	in	r29, 0x3e	; 62
     46a:	8a 83       	std	Y+2, r24	; 0x02
     46c:	8a 81       	ldd	r24, Y+2	; 0x02
     46e:	80 6b       	ori	r24, 0xB0	; 176
     470:	89 83       	std	Y+1, r24	; 0x01
     472:	61 e0       	ldi	r22, 0x01	; 1
     474:	ce 01       	movw	r24, r28
     476:	01 96       	adiw	r24, 0x01	; 1
     478:	58 df       	rcall	.-336    	; 0x32a <ssd1306_cmd>
     47a:	00 00       	nop
     47c:	0f 90       	pop	r0
     47e:	0f 90       	pop	r0
     480:	df 91       	pop	r29
     482:	cf 91       	pop	r28
     484:	08 95       	ret

00000486 <ssd1306_set_column_addr>:
     486:	cf 93       	push	r28
     488:	df 93       	push	r29
     48a:	00 d0       	rcall	.+0      	; 0x48c <ssd1306_set_column_addr+0x6>
     48c:	cd b7       	in	r28, 0x3d	; 61
     48e:	de b7       	in	r29, 0x3e	; 62
     490:	8a 83       	std	Y+2, r24	; 0x02
     492:	8a 81       	ldd	r24, Y+2	; 0x02
     494:	8f 70       	andi	r24, 0x0F	; 15
     496:	89 83       	std	Y+1, r24	; 0x01
     498:	61 e0       	ldi	r22, 0x01	; 1
     49a:	ce 01       	movw	r24, r28
     49c:	01 96       	adiw	r24, 0x01	; 1
     49e:	45 df       	rcall	.-374    	; 0x32a <ssd1306_cmd>
     4a0:	8a 81       	ldd	r24, Y+2	; 0x02
     4a2:	82 95       	swap	r24
     4a4:	8f 70       	andi	r24, 0x0F	; 15
     4a6:	80 61       	ori	r24, 0x10	; 16
     4a8:	89 83       	std	Y+1, r24	; 0x01
     4aa:	61 e0       	ldi	r22, 0x01	; 1
     4ac:	ce 01       	movw	r24, r28
     4ae:	01 96       	adiw	r24, 0x01	; 1
     4b0:	3c df       	rcall	.-392    	; 0x32a <ssd1306_cmd>
     4b2:	00 00       	nop
     4b4:	0f 90       	pop	r0
     4b6:	0f 90       	pop	r0
     4b8:	df 91       	pop	r29
     4ba:	cf 91       	pop	r28
     4bc:	08 95       	ret

000004be <ssd1306_reverse>:
     4be:	cf 93       	push	r28
     4c0:	df 93       	push	r29
     4c2:	00 d0       	rcall	.+0      	; 0x4c4 <ssd1306_reverse+0x6>
     4c4:	1f 92       	push	r1
     4c6:	cd b7       	in	r28, 0x3d	; 61
     4c8:	de b7       	in	r29, 0x3e	; 62
     4ca:	9b 83       	std	Y+3, r25	; 0x03
     4cc:	8a 83       	std	Y+2, r24	; 0x02
     4ce:	8a 81       	ldd	r24, Y+2	; 0x02
     4d0:	80 6a       	ori	r24, 0xA0	; 160
     4d2:	89 83       	std	Y+1, r24	; 0x01
     4d4:	61 e0       	ldi	r22, 0x01	; 1
     4d6:	ce 01       	movw	r24, r28
     4d8:	01 96       	adiw	r24, 0x01	; 1
     4da:	27 df       	rcall	.-434    	; 0x32a <ssd1306_cmd>
     4dc:	00 00       	nop
     4de:	0f 90       	pop	r0
     4e0:	0f 90       	pop	r0
     4e2:	0f 90       	pop	r0
     4e4:	df 91       	pop	r29
     4e6:	cf 91       	pop	r28
     4e8:	08 95       	ret

000004ea <ssd1306_normal_display>:
     4ea:	cf 93       	push	r28
     4ec:	df 93       	push	r29
     4ee:	00 d0       	rcall	.+0      	; 0x4f0 <ssd1306_normal_display+0x6>
     4f0:	1f 92       	push	r1
     4f2:	cd b7       	in	r28, 0x3d	; 61
     4f4:	de b7       	in	r29, 0x3e	; 62
     4f6:	9b 83       	std	Y+3, r25	; 0x03
     4f8:	8a 83       	std	Y+2, r24	; 0x02
     4fa:	8a 81       	ldd	r24, Y+2	; 0x02
     4fc:	86 6a       	ori	r24, 0xA6	; 166
     4fe:	89 83       	std	Y+1, r24	; 0x01
     500:	61 e0       	ldi	r22, 0x01	; 1
     502:	ce 01       	movw	r24, r28
     504:	01 96       	adiw	r24, 0x01	; 1
     506:	11 df       	rcall	.-478    	; 0x32a <ssd1306_cmd>
     508:	00 00       	nop
     50a:	0f 90       	pop	r0
     50c:	0f 90       	pop	r0
     50e:	0f 90       	pop	r0
     510:	df 91       	pop	r29
     512:	cf 91       	pop	r28
     514:	08 95       	ret

00000516 <ssd1306_output_scan_direction>:
     516:	cf 93       	push	r28
     518:	df 93       	push	r29
     51a:	00 d0       	rcall	.+0      	; 0x51c <ssd1306_output_scan_direction+0x6>
     51c:	1f 92       	push	r1
     51e:	cd b7       	in	r28, 0x3d	; 61
     520:	de b7       	in	r29, 0x3e	; 62
     522:	9b 83       	std	Y+3, r25	; 0x03
     524:	8a 83       	std	Y+2, r24	; 0x02
     526:	8a 81       	ldd	r24, Y+2	; 0x02
     528:	88 6c       	ori	r24, 0xC8	; 200
     52a:	89 83       	std	Y+1, r24	; 0x01
     52c:	61 e0       	ldi	r22, 0x01	; 1
     52e:	ce 01       	movw	r24, r28
     530:	01 96       	adiw	r24, 0x01	; 1
     532:	fb de       	rcall	.-522    	; 0x32a <ssd1306_cmd>
     534:	00 00       	nop
     536:	0f 90       	pop	r0
     538:	0f 90       	pop	r0
     53a:	0f 90       	pop	r0
     53c:	df 91       	pop	r29
     53e:	cf 91       	pop	r28
     540:	08 95       	ret

00000542 <ssd1306_init>:
     542:	cf 93       	push	r28
     544:	df 93       	push	r29
     546:	cd b7       	in	r28, 0x3d	; 61
     548:	de b7       	in	r29, 0x3e	; 62
     54a:	2e 97       	sbiw	r28, 0x0e	; 14
     54c:	0f b6       	in	r0, 0x3f	; 63
     54e:	f8 94       	cli
     550:	de bf       	out	0x3e, r29	; 62
     552:	0f be       	out	0x3f, r0	; 63
     554:	cd bf       	out	0x3d, r28	; 61
     556:	80 e0       	ldi	r24, 0x00	; 0
     558:	90 e0       	ldi	r25, 0x00	; 0
     55a:	a0 e8       	ldi	r26, 0x80	; 128
     55c:	bf e3       	ldi	r27, 0x3F	; 63
     55e:	89 83       	std	Y+1, r24	; 0x01
     560:	9a 83       	std	Y+2, r25	; 0x02
     562:	ab 83       	std	Y+3, r26	; 0x03
     564:	bc 83       	std	Y+4, r27	; 0x04
     566:	20 e0       	ldi	r18, 0x00	; 0
     568:	30 e0       	ldi	r19, 0x00	; 0
     56a:	4a e7       	ldi	r20, 0x7A	; 122
     56c:	55 e4       	ldi	r21, 0x45	; 69
     56e:	69 81       	ldd	r22, Y+1	; 0x01
     570:	7a 81       	ldd	r23, Y+2	; 0x02
     572:	8b 81       	ldd	r24, Y+3	; 0x03
     574:	9c 81       	ldd	r25, Y+4	; 0x04
     576:	0e 94 c7 13 	call	0x278e	; 0x278e <__mulsf3>
     57a:	dc 01       	movw	r26, r24
     57c:	cb 01       	movw	r24, r22
     57e:	8d 83       	std	Y+5, r24	; 0x05
     580:	9e 83       	std	Y+6, r25	; 0x06
     582:	af 83       	std	Y+7, r26	; 0x07
     584:	b8 87       	std	Y+8, r27	; 0x08
     586:	20 e0       	ldi	r18, 0x00	; 0
     588:	30 e0       	ldi	r19, 0x00	; 0
     58a:	40 e8       	ldi	r20, 0x80	; 128
     58c:	5f e3       	ldi	r21, 0x3F	; 63
     58e:	6d 81       	ldd	r22, Y+5	; 0x05
     590:	7e 81       	ldd	r23, Y+6	; 0x06
     592:	8f 81       	ldd	r24, Y+7	; 0x07
     594:	98 85       	ldd	r25, Y+8	; 0x08
     596:	0e 94 46 13 	call	0x268c	; 0x268c <__cmpsf2>
     59a:	88 23       	and	r24, r24
     59c:	2c f4       	brge	.+10     	; 0x5a8 <ssd1306_init+0x66>
     59e:	81 e0       	ldi	r24, 0x01	; 1
     5a0:	90 e0       	ldi	r25, 0x00	; 0
     5a2:	9a 87       	std	Y+10, r25	; 0x0a
     5a4:	89 87       	std	Y+9, r24	; 0x09
     5a6:	3f c0       	rjmp	.+126    	; 0x626 <ssd1306_init+0xe4>
     5a8:	20 e0       	ldi	r18, 0x00	; 0
     5aa:	3f ef       	ldi	r19, 0xFF	; 255
     5ac:	4f e7       	ldi	r20, 0x7F	; 127
     5ae:	57 e4       	ldi	r21, 0x47	; 71
     5b0:	6d 81       	ldd	r22, Y+5	; 0x05
     5b2:	7e 81       	ldd	r23, Y+6	; 0x06
     5b4:	8f 81       	ldd	r24, Y+7	; 0x07
     5b6:	98 85       	ldd	r25, Y+8	; 0x08
     5b8:	0e 94 c3 13 	call	0x2786	; 0x2786 <__gesf2>
     5bc:	18 16       	cp	r1, r24
     5be:	4c f5       	brge	.+82     	; 0x612 <ssd1306_init+0xd0>
     5c0:	20 e0       	ldi	r18, 0x00	; 0
     5c2:	30 e0       	ldi	r19, 0x00	; 0
     5c4:	40 e2       	ldi	r20, 0x20	; 32
     5c6:	51 e4       	ldi	r21, 0x41	; 65
     5c8:	69 81       	ldd	r22, Y+1	; 0x01
     5ca:	7a 81       	ldd	r23, Y+2	; 0x02
     5cc:	8b 81       	ldd	r24, Y+3	; 0x03
     5ce:	9c 81       	ldd	r25, Y+4	; 0x04
     5d0:	0e 94 c7 13 	call	0x278e	; 0x278e <__mulsf3>
     5d4:	dc 01       	movw	r26, r24
     5d6:	cb 01       	movw	r24, r22
     5d8:	bc 01       	movw	r22, r24
     5da:	cd 01       	movw	r24, r26
     5dc:	0e 94 4a 13 	call	0x2694	; 0x2694 <__fixunssfsi>
     5e0:	dc 01       	movw	r26, r24
     5e2:	cb 01       	movw	r24, r22
     5e4:	9a 87       	std	Y+10, r25	; 0x0a
     5e6:	89 87       	std	Y+9, r24	; 0x09
     5e8:	0f c0       	rjmp	.+30     	; 0x608 <ssd1306_init+0xc6>
     5ea:	80 e9       	ldi	r24, 0x90	; 144
     5ec:	91 e0       	ldi	r25, 0x01	; 1
     5ee:	9c 87       	std	Y+12, r25	; 0x0c
     5f0:	8b 87       	std	Y+11, r24	; 0x0b
     5f2:	8b 85       	ldd	r24, Y+11	; 0x0b
     5f4:	9c 85       	ldd	r25, Y+12	; 0x0c
     5f6:	01 97       	sbiw	r24, 0x01	; 1
     5f8:	f1 f7       	brne	.-4      	; 0x5f6 <ssd1306_init+0xb4>
     5fa:	9c 87       	std	Y+12, r25	; 0x0c
     5fc:	8b 87       	std	Y+11, r24	; 0x0b
     5fe:	89 85       	ldd	r24, Y+9	; 0x09
     600:	9a 85       	ldd	r25, Y+10	; 0x0a
     602:	01 97       	sbiw	r24, 0x01	; 1
     604:	9a 87       	std	Y+10, r25	; 0x0a
     606:	89 87       	std	Y+9, r24	; 0x09
     608:	89 85       	ldd	r24, Y+9	; 0x09
     60a:	9a 85       	ldd	r25, Y+10	; 0x0a
     60c:	89 2b       	or	r24, r25
     60e:	69 f7       	brne	.-38     	; 0x5ea <ssd1306_init+0xa8>
     610:	14 c0       	rjmp	.+40     	; 0x63a <ssd1306_init+0xf8>
     612:	6d 81       	ldd	r22, Y+5	; 0x05
     614:	7e 81       	ldd	r23, Y+6	; 0x06
     616:	8f 81       	ldd	r24, Y+7	; 0x07
     618:	98 85       	ldd	r25, Y+8	; 0x08
     61a:	0e 94 4a 13 	call	0x2694	; 0x2694 <__fixunssfsi>
     61e:	dc 01       	movw	r26, r24
     620:	cb 01       	movw	r24, r22
     622:	9a 87       	std	Y+10, r25	; 0x0a
     624:	89 87       	std	Y+9, r24	; 0x09
     626:	89 85       	ldd	r24, Y+9	; 0x09
     628:	9a 85       	ldd	r25, Y+10	; 0x0a
     62a:	9e 87       	std	Y+14, r25	; 0x0e
     62c:	8d 87       	std	Y+13, r24	; 0x0d
     62e:	8d 85       	ldd	r24, Y+13	; 0x0d
     630:	9e 85       	ldd	r25, Y+14	; 0x0e
     632:	01 97       	sbiw	r24, 0x01	; 1
     634:	f1 f7       	brne	.-4      	; 0x632 <ssd1306_init+0xf0>
     636:	9e 87       	std	Y+14, r25	; 0x0e
     638:	8d 87       	std	Y+13, r24	; 0x0d
     63a:	aa de       	rcall	.-684    	; 0x390 <ssd1306_reset>
     63c:	81 e0       	ldi	r24, 0x01	; 1
     63e:	90 e0       	ldi	r25, 0x00	; 0
     640:	af de       	rcall	.-674    	; 0x3a0 <ssd1306_chargepump_enable>
     642:	80 e0       	ldi	r24, 0x00	; 0
     644:	90 e0       	ldi	r25, 0x00	; 0
     646:	ca de       	rcall	.-620    	; 0x3dc <ssd1306_entire_on>
     648:	81 e0       	ldi	r24, 0x01	; 1
     64a:	90 e0       	ldi	r25, 0x00	; 0
     64c:	dd de       	rcall	.-582    	; 0x408 <ssd1306_display_on>
     64e:	00 00       	nop
     650:	2e 96       	adiw	r28, 0x0e	; 14
     652:	0f b6       	in	r0, 0x3f	; 63
     654:	f8 94       	cli
     656:	de bf       	out	0x3e, r29	; 62
     658:	0f be       	out	0x3f, r0	; 63
     65a:	cd bf       	out	0x3d, r28	; 61
     65c:	df 91       	pop	r29
     65e:	cf 91       	pop	r28
     660:	08 95       	ret

00000662 <setup>:
     662:	cf 93       	push	r28
     664:	df 93       	push	r29
     666:	cd b7       	in	r28, 0x3d	; 61
     668:	de b7       	in	r29, 0x3e	; 62
     66a:	37 de       	rcall	.-914    	; 0x2da <twi_init>
     66c:	6a df       	rcall	.-300    	; 0x542 <ssd1306_init>
     66e:	82 e0       	ldi	r24, 0x02	; 2
     670:	e1 de       	rcall	.-574    	; 0x434 <ssd1306_set_addr_mode>
     672:	0e 94 6e 0c 	call	0x18dc	; 0x18dc <clear_screen>
     676:	80 e0       	ldi	r24, 0x00	; 0
     678:	90 e0       	ldi	r25, 0x00	; 0
     67a:	4d df       	rcall	.-358    	; 0x516 <ssd1306_output_scan_direction>
     67c:	81 e0       	ldi	r24, 0x01	; 1
     67e:	90 e0       	ldi	r25, 0x00	; 0
     680:	1e df       	rcall	.-452    	; 0x4be <ssd1306_reverse>
     682:	80 e0       	ldi	r24, 0x00	; 0
     684:	90 e0       	ldi	r25, 0x00	; 0
     686:	31 df       	rcall	.-414    	; 0x4ea <ssd1306_normal_display>
     688:	00 00       	nop
     68a:	df 91       	pop	r29
     68c:	cf 91       	pop	r28
     68e:	08 95       	ret

00000690 <Collision>:
     690:	cf 93       	push	r28
     692:	df 93       	push	r29
     694:	cd b7       	in	r28, 0x3d	; 61
     696:	de b7       	in	r29, 0x3e	; 62
     698:	80 91 8b 05 	lds	r24, 0x058B	; 0x80058b <cur_line>
     69c:	88 2f       	mov	r24, r24
     69e:	90 e0       	ldi	r25, 0x00	; 0
     6a0:	88 0f       	add	r24, r24
     6a2:	99 1f       	adc	r25, r25
     6a4:	88 0f       	add	r24, r24
     6a6:	99 1f       	adc	r25, r25
     6a8:	80 50       	subi	r24, 0x00	; 0
     6aa:	9f 4f       	sbci	r25, 0xFF	; 255
     6ac:	fc 01       	movw	r30, r24
     6ae:	20 81       	ld	r18, Z
     6b0:	31 81       	ldd	r19, Z+1	; 0x01
     6b2:	42 81       	ldd	r20, Z+2	; 0x02
     6b4:	53 81       	ldd	r21, Z+3	; 0x03
     6b6:	80 91 8e 05 	lds	r24, 0x058E	; 0x80058e <temp_line>
     6ba:	90 91 8f 05 	lds	r25, 0x058F	; 0x80058f <temp_line+0x1>
     6be:	a0 91 90 05 	lds	r26, 0x0590	; 0x800590 <temp_line+0x2>
     6c2:	b0 91 91 05 	lds	r27, 0x0591	; 0x800591 <temp_line+0x3>
     6c6:	82 23       	and	r24, r18
     6c8:	93 23       	and	r25, r19
     6ca:	a4 23       	and	r26, r20
     6cc:	b5 23       	and	r27, r21
     6ce:	61 e0       	ldi	r22, 0x01	; 1
     6d0:	89 2b       	or	r24, r25
     6d2:	8a 2b       	or	r24, r26
     6d4:	8b 2b       	or	r24, r27
     6d6:	09 f4       	brne	.+2      	; 0x6da <Collision+0x4a>
     6d8:	60 e0       	ldi	r22, 0x00	; 0
     6da:	80 91 8b 05 	lds	r24, 0x058B	; 0x80058b <cur_line>
     6de:	88 2f       	mov	r24, r24
     6e0:	90 e0       	ldi	r25, 0x00	; 0
     6e2:	01 96       	adiw	r24, 0x01	; 1
     6e4:	88 0f       	add	r24, r24
     6e6:	99 1f       	adc	r25, r25
     6e8:	88 0f       	add	r24, r24
     6ea:	99 1f       	adc	r25, r25
     6ec:	80 50       	subi	r24, 0x00	; 0
     6ee:	9f 4f       	sbci	r25, 0xFF	; 255
     6f0:	fc 01       	movw	r30, r24
     6f2:	20 81       	ld	r18, Z
     6f4:	31 81       	ldd	r19, Z+1	; 0x01
     6f6:	42 81       	ldd	r20, Z+2	; 0x02
     6f8:	53 81       	ldd	r21, Z+3	; 0x03
     6fa:	80 91 92 05 	lds	r24, 0x0592	; 0x800592 <temp_line+0x4>
     6fe:	90 91 93 05 	lds	r25, 0x0593	; 0x800593 <temp_line+0x5>
     702:	a0 91 94 05 	lds	r26, 0x0594	; 0x800594 <temp_line+0x6>
     706:	b0 91 95 05 	lds	r27, 0x0595	; 0x800595 <temp_line+0x7>
     70a:	82 23       	and	r24, r18
     70c:	93 23       	and	r25, r19
     70e:	a4 23       	and	r26, r20
     710:	b5 23       	and	r27, r21
     712:	21 e0       	ldi	r18, 0x01	; 1
     714:	89 2b       	or	r24, r25
     716:	8a 2b       	or	r24, r26
     718:	8b 2b       	or	r24, r27
     71a:	09 f4       	brne	.+2      	; 0x71e <Collision+0x8e>
     71c:	20 e0       	ldi	r18, 0x00	; 0
     71e:	86 2f       	mov	r24, r22
     720:	82 2b       	or	r24, r18
     722:	68 2f       	mov	r22, r24
     724:	70 e0       	ldi	r23, 0x00	; 0
     726:	80 91 8b 05 	lds	r24, 0x058B	; 0x80058b <cur_line>
     72a:	88 2f       	mov	r24, r24
     72c:	90 e0       	ldi	r25, 0x00	; 0
     72e:	02 96       	adiw	r24, 0x02	; 2
     730:	88 0f       	add	r24, r24
     732:	99 1f       	adc	r25, r25
     734:	88 0f       	add	r24, r24
     736:	99 1f       	adc	r25, r25
     738:	80 50       	subi	r24, 0x00	; 0
     73a:	9f 4f       	sbci	r25, 0xFF	; 255
     73c:	fc 01       	movw	r30, r24
     73e:	20 81       	ld	r18, Z
     740:	31 81       	ldd	r19, Z+1	; 0x01
     742:	42 81       	ldd	r20, Z+2	; 0x02
     744:	53 81       	ldd	r21, Z+3	; 0x03
     746:	80 91 96 05 	lds	r24, 0x0596	; 0x800596 <temp_line+0x8>
     74a:	90 91 97 05 	lds	r25, 0x0597	; 0x800597 <temp_line+0x9>
     74e:	a0 91 98 05 	lds	r26, 0x0598	; 0x800598 <temp_line+0xa>
     752:	b0 91 99 05 	lds	r27, 0x0599	; 0x800599 <temp_line+0xb>
     756:	82 23       	and	r24, r18
     758:	93 23       	and	r25, r19
     75a:	a4 23       	and	r26, r20
     75c:	b5 23       	and	r27, r21
     75e:	21 e0       	ldi	r18, 0x01	; 1
     760:	89 2b       	or	r24, r25
     762:	8a 2b       	or	r24, r26
     764:	8b 2b       	or	r24, r27
     766:	09 f4       	brne	.+2      	; 0x76a <Collision+0xda>
     768:	20 e0       	ldi	r18, 0x00	; 0
     76a:	82 2f       	mov	r24, r18
     76c:	90 e0       	ldi	r25, 0x00	; 0
     76e:	68 2b       	or	r22, r24
     770:	79 2b       	or	r23, r25
     772:	80 91 8b 05 	lds	r24, 0x058B	; 0x80058b <cur_line>
     776:	88 2f       	mov	r24, r24
     778:	90 e0       	ldi	r25, 0x00	; 0
     77a:	03 96       	adiw	r24, 0x03	; 3
     77c:	88 0f       	add	r24, r24
     77e:	99 1f       	adc	r25, r25
     780:	88 0f       	add	r24, r24
     782:	99 1f       	adc	r25, r25
     784:	80 50       	subi	r24, 0x00	; 0
     786:	9f 4f       	sbci	r25, 0xFF	; 255
     788:	fc 01       	movw	r30, r24
     78a:	20 81       	ld	r18, Z
     78c:	31 81       	ldd	r19, Z+1	; 0x01
     78e:	42 81       	ldd	r20, Z+2	; 0x02
     790:	53 81       	ldd	r21, Z+3	; 0x03
     792:	80 91 9a 05 	lds	r24, 0x059A	; 0x80059a <temp_line+0xc>
     796:	90 91 9b 05 	lds	r25, 0x059B	; 0x80059b <temp_line+0xd>
     79a:	a0 91 9c 05 	lds	r26, 0x059C	; 0x80059c <temp_line+0xe>
     79e:	b0 91 9d 05 	lds	r27, 0x059D	; 0x80059d <temp_line+0xf>
     7a2:	82 23       	and	r24, r18
     7a4:	93 23       	and	r25, r19
     7a6:	a4 23       	and	r26, r20
     7a8:	b5 23       	and	r27, r21
     7aa:	21 e0       	ldi	r18, 0x01	; 1
     7ac:	89 2b       	or	r24, r25
     7ae:	8a 2b       	or	r24, r26
     7b0:	8b 2b       	or	r24, r27
     7b2:	09 f4       	brne	.+2      	; 0x7b6 <Collision+0x126>
     7b4:	20 e0       	ldi	r18, 0x00	; 0
     7b6:	82 2f       	mov	r24, r18
     7b8:	90 e0       	ldi	r25, 0x00	; 0
     7ba:	86 2b       	or	r24, r22
     7bc:	97 2b       	or	r25, r23
     7be:	89 2b       	or	r24, r25
     7c0:	11 f0       	breq	.+4      	; 0x7c6 <Collision+0x136>
     7c2:	81 e0       	ldi	r24, 0x01	; 1
     7c4:	01 c0       	rjmp	.+2      	; 0x7c8 <Collision+0x138>
     7c6:	80 e0       	ldi	r24, 0x00	; 0
     7c8:	df 91       	pop	r29
     7ca:	cf 91       	pop	r28
     7cc:	08 95       	ret

000007ce <tetriminos_to_temp_line>:
     7ce:	cf 93       	push	r28
     7d0:	df 93       	push	r29
     7d2:	00 d0       	rcall	.+0      	; 0x7d4 <tetriminos_to_temp_line+0x6>
     7d4:	cd b7       	in	r28, 0x3d	; 61
     7d6:	de b7       	in	r29, 0x3e	; 62
     7d8:	1a 82       	std	Y+2, r1	; 0x02
     7da:	19 82       	std	Y+1, r1	; 0x01
     7dc:	12 c0       	rjmp	.+36     	; 0x802 <tetriminos_to_temp_line+0x34>
     7de:	89 81       	ldd	r24, Y+1	; 0x01
     7e0:	9a 81       	ldd	r25, Y+2	; 0x02
     7e2:	88 0f       	add	r24, r24
     7e4:	99 1f       	adc	r25, r25
     7e6:	88 0f       	add	r24, r24
     7e8:	99 1f       	adc	r25, r25
     7ea:	82 57       	subi	r24, 0x72	; 114
     7ec:	9a 4f       	sbci	r25, 0xFA	; 250
     7ee:	fc 01       	movw	r30, r24
     7f0:	10 82       	st	Z, r1
     7f2:	11 82       	std	Z+1, r1	; 0x01
     7f4:	12 82       	std	Z+2, r1	; 0x02
     7f6:	13 82       	std	Z+3, r1	; 0x03
     7f8:	89 81       	ldd	r24, Y+1	; 0x01
     7fa:	9a 81       	ldd	r25, Y+2	; 0x02
     7fc:	01 96       	adiw	r24, 0x01	; 1
     7fe:	9a 83       	std	Y+2, r25	; 0x02
     800:	89 83       	std	Y+1, r24	; 0x01
     802:	89 81       	ldd	r24, Y+1	; 0x01
     804:	9a 81       	ldd	r25, Y+2	; 0x02
     806:	04 97       	sbiw	r24, 0x04	; 4
     808:	54 f3       	brlt	.-44     	; 0x7de <tetriminos_to_temp_line+0x10>
     80a:	80 91 8c 05 	lds	r24, 0x058C	; 0x80058c <cur_col>
     80e:	82 30       	cpi	r24, 0x02	; 2
     810:	09 f0       	breq	.+2      	; 0x814 <tetriminos_to_temp_line+0x46>
     812:	e1 c0       	rjmp	.+450    	; 0x9d6 <tetriminos_to_temp_line+0x208>
     814:	80 91 9e 05 	lds	r24, 0x059E	; 0x80059e <shape>
     818:	48 2f       	mov	r20, r24
     81a:	50 e0       	ldi	r21, 0x00	; 0
     81c:	80 91 8d 05 	lds	r24, 0x058D	; 0x80058d <pattern>
     820:	88 2f       	mov	r24, r24
     822:	90 e0       	ldi	r25, 0x00	; 0
     824:	2c e8       	ldi	r18, 0x8C	; 140
     826:	30 e0       	ldi	r19, 0x00	; 0
     828:	44 0f       	add	r20, r20
     82a:	55 1f       	adc	r21, r21
     82c:	44 0f       	add	r20, r20
     82e:	55 1f       	adc	r21, r21
     830:	84 0f       	add	r24, r20
     832:	95 1f       	adc	r25, r21
     834:	88 0f       	add	r24, r24
     836:	99 1f       	adc	r25, r25
     838:	82 0f       	add	r24, r18
     83a:	93 1f       	adc	r25, r19
     83c:	fc 01       	movw	r30, r24
     83e:	85 91       	lpm	r24, Z+
     840:	95 91       	lpm	r25, Z+
     842:	32 97       	sbiw	r30, 0x02	; 2
     844:	cc 01       	movw	r24, r24
     846:	a0 e0       	ldi	r26, 0x00	; 0
     848:	b0 e0       	ldi	r27, 0x00	; 0
     84a:	88 27       	eor	r24, r24
     84c:	90 7f       	andi	r25, 0xF0	; 240
     84e:	aa 27       	eor	r26, r26
     850:	bb 27       	eor	r27, r27
     852:	20 91 8c 05 	lds	r18, 0x058C	; 0x80058c <cur_col>
     856:	22 2f       	mov	r18, r18
     858:	30 e0       	ldi	r19, 0x00	; 0
     85a:	4f e0       	ldi	r20, 0x0F	; 15
     85c:	50 e0       	ldi	r21, 0x00	; 0
     85e:	ba 01       	movw	r22, r20
     860:	62 1b       	sub	r22, r18
     862:	73 0b       	sbc	r23, r19
     864:	9b 01       	movw	r18, r22
     866:	04 c0       	rjmp	.+8      	; 0x870 <tetriminos_to_temp_line+0xa2>
     868:	b6 95       	lsr	r27
     86a:	a7 95       	ror	r26
     86c:	97 95       	ror	r25
     86e:	87 95       	ror	r24
     870:	2a 95       	dec	r18
     872:	d2 f7       	brpl	.-12     	; 0x868 <tetriminos_to_temp_line+0x9a>
     874:	80 93 8e 05 	sts	0x058E, r24	; 0x80058e <temp_line>
     878:	90 93 8f 05 	sts	0x058F, r25	; 0x80058f <temp_line+0x1>
     87c:	a0 93 90 05 	sts	0x0590, r26	; 0x800590 <temp_line+0x2>
     880:	b0 93 91 05 	sts	0x0591, r27	; 0x800591 <temp_line+0x3>
     884:	80 91 9e 05 	lds	r24, 0x059E	; 0x80059e <shape>
     888:	48 2f       	mov	r20, r24
     88a:	50 e0       	ldi	r21, 0x00	; 0
     88c:	80 91 8d 05 	lds	r24, 0x058D	; 0x80058d <pattern>
     890:	88 2f       	mov	r24, r24
     892:	90 e0       	ldi	r25, 0x00	; 0
     894:	2c e8       	ldi	r18, 0x8C	; 140
     896:	30 e0       	ldi	r19, 0x00	; 0
     898:	44 0f       	add	r20, r20
     89a:	55 1f       	adc	r21, r21
     89c:	44 0f       	add	r20, r20
     89e:	55 1f       	adc	r21, r21
     8a0:	84 0f       	add	r24, r20
     8a2:	95 1f       	adc	r25, r21
     8a4:	88 0f       	add	r24, r24
     8a6:	99 1f       	adc	r25, r25
     8a8:	82 0f       	add	r24, r18
     8aa:	93 1f       	adc	r25, r19
     8ac:	fc 01       	movw	r30, r24
     8ae:	85 91       	lpm	r24, Z+
     8b0:	95 91       	lpm	r25, Z+
     8b2:	32 97       	sbiw	r30, 0x02	; 2
     8b4:	cc 01       	movw	r24, r24
     8b6:	a0 e0       	ldi	r26, 0x00	; 0
     8b8:	b0 e0       	ldi	r27, 0x00	; 0
     8ba:	88 27       	eor	r24, r24
     8bc:	9f 70       	andi	r25, 0x0F	; 15
     8be:	aa 27       	eor	r26, r26
     8c0:	bb 27       	eor	r27, r27
     8c2:	20 91 8c 05 	lds	r18, 0x058C	; 0x80058c <cur_col>
     8c6:	22 2f       	mov	r18, r18
     8c8:	30 e0       	ldi	r19, 0x00	; 0
     8ca:	4b e0       	ldi	r20, 0x0B	; 11
     8cc:	50 e0       	ldi	r21, 0x00	; 0
     8ce:	ba 01       	movw	r22, r20
     8d0:	62 1b       	sub	r22, r18
     8d2:	73 0b       	sbc	r23, r19
     8d4:	9b 01       	movw	r18, r22
     8d6:	04 c0       	rjmp	.+8      	; 0x8e0 <tetriminos_to_temp_line+0x112>
     8d8:	b6 95       	lsr	r27
     8da:	a7 95       	ror	r26
     8dc:	97 95       	ror	r25
     8de:	87 95       	ror	r24
     8e0:	2a 95       	dec	r18
     8e2:	d2 f7       	brpl	.-12     	; 0x8d8 <tetriminos_to_temp_line+0x10a>
     8e4:	80 93 92 05 	sts	0x0592, r24	; 0x800592 <temp_line+0x4>
     8e8:	90 93 93 05 	sts	0x0593, r25	; 0x800593 <temp_line+0x5>
     8ec:	a0 93 94 05 	sts	0x0594, r26	; 0x800594 <temp_line+0x6>
     8f0:	b0 93 95 05 	sts	0x0595, r27	; 0x800595 <temp_line+0x7>
     8f4:	80 91 9e 05 	lds	r24, 0x059E	; 0x80059e <shape>
     8f8:	48 2f       	mov	r20, r24
     8fa:	50 e0       	ldi	r21, 0x00	; 0
     8fc:	80 91 8d 05 	lds	r24, 0x058D	; 0x80058d <pattern>
     900:	88 2f       	mov	r24, r24
     902:	90 e0       	ldi	r25, 0x00	; 0
     904:	2c e8       	ldi	r18, 0x8C	; 140
     906:	30 e0       	ldi	r19, 0x00	; 0
     908:	44 0f       	add	r20, r20
     90a:	55 1f       	adc	r21, r21
     90c:	44 0f       	add	r20, r20
     90e:	55 1f       	adc	r21, r21
     910:	84 0f       	add	r24, r20
     912:	95 1f       	adc	r25, r21
     914:	88 0f       	add	r24, r24
     916:	99 1f       	adc	r25, r25
     918:	82 0f       	add	r24, r18
     91a:	93 1f       	adc	r25, r19
     91c:	fc 01       	movw	r30, r24
     91e:	85 91       	lpm	r24, Z+
     920:	95 91       	lpm	r25, Z+
     922:	32 97       	sbiw	r30, 0x02	; 2
     924:	cc 01       	movw	r24, r24
     926:	a0 e0       	ldi	r26, 0x00	; 0
     928:	b0 e0       	ldi	r27, 0x00	; 0
     92a:	80 7f       	andi	r24, 0xF0	; 240
     92c:	99 27       	eor	r25, r25
     92e:	aa 27       	eor	r26, r26
     930:	bb 27       	eor	r27, r27
     932:	20 91 8c 05 	lds	r18, 0x058C	; 0x80058c <cur_col>
     936:	22 2f       	mov	r18, r18
     938:	30 e0       	ldi	r19, 0x00	; 0
     93a:	47 e0       	ldi	r20, 0x07	; 7
     93c:	50 e0       	ldi	r21, 0x00	; 0
     93e:	ba 01       	movw	r22, r20
     940:	62 1b       	sub	r22, r18
     942:	73 0b       	sbc	r23, r19
     944:	9b 01       	movw	r18, r22
     946:	04 c0       	rjmp	.+8      	; 0x950 <tetriminos_to_temp_line+0x182>
     948:	b6 95       	lsr	r27
     94a:	a7 95       	ror	r26
     94c:	97 95       	ror	r25
     94e:	87 95       	ror	r24
     950:	2a 95       	dec	r18
     952:	d2 f7       	brpl	.-12     	; 0x948 <tetriminos_to_temp_line+0x17a>
     954:	80 93 96 05 	sts	0x0596, r24	; 0x800596 <temp_line+0x8>
     958:	90 93 97 05 	sts	0x0597, r25	; 0x800597 <temp_line+0x9>
     95c:	a0 93 98 05 	sts	0x0598, r26	; 0x800598 <temp_line+0xa>
     960:	b0 93 99 05 	sts	0x0599, r27	; 0x800599 <temp_line+0xb>
     964:	80 91 9e 05 	lds	r24, 0x059E	; 0x80059e <shape>
     968:	48 2f       	mov	r20, r24
     96a:	50 e0       	ldi	r21, 0x00	; 0
     96c:	80 91 8d 05 	lds	r24, 0x058D	; 0x80058d <pattern>
     970:	88 2f       	mov	r24, r24
     972:	90 e0       	ldi	r25, 0x00	; 0
     974:	2c e8       	ldi	r18, 0x8C	; 140
     976:	30 e0       	ldi	r19, 0x00	; 0
     978:	44 0f       	add	r20, r20
     97a:	55 1f       	adc	r21, r21
     97c:	44 0f       	add	r20, r20
     97e:	55 1f       	adc	r21, r21
     980:	84 0f       	add	r24, r20
     982:	95 1f       	adc	r25, r21
     984:	88 0f       	add	r24, r24
     986:	99 1f       	adc	r25, r25
     988:	82 0f       	add	r24, r18
     98a:	93 1f       	adc	r25, r19
     98c:	fc 01       	movw	r30, r24
     98e:	85 91       	lpm	r24, Z+
     990:	95 91       	lpm	r25, Z+
     992:	32 97       	sbiw	r30, 0x02	; 2
     994:	cc 01       	movw	r24, r24
     996:	a0 e0       	ldi	r26, 0x00	; 0
     998:	b0 e0       	ldi	r27, 0x00	; 0
     99a:	8f 70       	andi	r24, 0x0F	; 15
     99c:	99 27       	eor	r25, r25
     99e:	aa 27       	eor	r26, r26
     9a0:	bb 27       	eor	r27, r27
     9a2:	20 91 8c 05 	lds	r18, 0x058C	; 0x80058c <cur_col>
     9a6:	22 2f       	mov	r18, r18
     9a8:	30 e0       	ldi	r19, 0x00	; 0
     9aa:	43 e0       	ldi	r20, 0x03	; 3
     9ac:	50 e0       	ldi	r21, 0x00	; 0
     9ae:	ba 01       	movw	r22, r20
     9b0:	62 1b       	sub	r22, r18
     9b2:	73 0b       	sbc	r23, r19
     9b4:	9b 01       	movw	r18, r22
     9b6:	04 c0       	rjmp	.+8      	; 0x9c0 <tetriminos_to_temp_line+0x1f2>
     9b8:	b6 95       	lsr	r27
     9ba:	a7 95       	ror	r26
     9bc:	97 95       	ror	r25
     9be:	87 95       	ror	r24
     9c0:	2a 95       	dec	r18
     9c2:	d2 f7       	brpl	.-12     	; 0x9b8 <tetriminos_to_temp_line+0x1ea>
     9c4:	80 93 9a 05 	sts	0x059A, r24	; 0x80059a <temp_line+0xc>
     9c8:	90 93 9b 05 	sts	0x059B, r25	; 0x80059b <temp_line+0xd>
     9cc:	a0 93 9c 05 	sts	0x059C, r26	; 0x80059c <temp_line+0xe>
     9d0:	b0 93 9d 05 	sts	0x059D, r27	; 0x80059d <temp_line+0xf>
     9d4:	e1 c0       	rjmp	.+450    	; 0xb98 <tetriminos_to_temp_line+0x3ca>
     9d6:	80 91 8c 05 	lds	r24, 0x058C	; 0x80058c <cur_col>
     9da:	83 30       	cpi	r24, 0x03	; 3
     9dc:	08 f4       	brcc	.+2      	; 0x9e0 <tetriminos_to_temp_line+0x212>
     9de:	dc c0       	rjmp	.+440    	; 0xb98 <tetriminos_to_temp_line+0x3ca>
     9e0:	80 91 9e 05 	lds	r24, 0x059E	; 0x80059e <shape>
     9e4:	48 2f       	mov	r20, r24
     9e6:	50 e0       	ldi	r21, 0x00	; 0
     9e8:	80 91 8d 05 	lds	r24, 0x058D	; 0x80058d <pattern>
     9ec:	88 2f       	mov	r24, r24
     9ee:	90 e0       	ldi	r25, 0x00	; 0
     9f0:	2c e8       	ldi	r18, 0x8C	; 140
     9f2:	30 e0       	ldi	r19, 0x00	; 0
     9f4:	44 0f       	add	r20, r20
     9f6:	55 1f       	adc	r21, r21
     9f8:	44 0f       	add	r20, r20
     9fa:	55 1f       	adc	r21, r21
     9fc:	84 0f       	add	r24, r20
     9fe:	95 1f       	adc	r25, r21
     a00:	88 0f       	add	r24, r24
     a02:	99 1f       	adc	r25, r25
     a04:	82 0f       	add	r24, r18
     a06:	93 1f       	adc	r25, r19
     a08:	fc 01       	movw	r30, r24
     a0a:	85 91       	lpm	r24, Z+
     a0c:	95 91       	lpm	r25, Z+
     a0e:	32 97       	sbiw	r30, 0x02	; 2
     a10:	89 2f       	mov	r24, r25
     a12:	99 27       	eor	r25, r25
     a14:	82 95       	swap	r24
     a16:	8f 70       	andi	r24, 0x0F	; 15
     a18:	cc 01       	movw	r24, r24
     a1a:	a0 e0       	ldi	r26, 0x00	; 0
     a1c:	b0 e0       	ldi	r27, 0x00	; 0
     a1e:	20 91 8c 05 	lds	r18, 0x058C	; 0x80058c <cur_col>
     a22:	22 2f       	mov	r18, r18
     a24:	30 e0       	ldi	r19, 0x00	; 0
     a26:	23 50       	subi	r18, 0x03	; 3
     a28:	31 09       	sbc	r19, r1
     a2a:	04 c0       	rjmp	.+8      	; 0xa34 <tetriminos_to_temp_line+0x266>
     a2c:	88 0f       	add	r24, r24
     a2e:	99 1f       	adc	r25, r25
     a30:	aa 1f       	adc	r26, r26
     a32:	bb 1f       	adc	r27, r27
     a34:	2a 95       	dec	r18
     a36:	d2 f7       	brpl	.-12     	; 0xa2c <tetriminos_to_temp_line+0x25e>
     a38:	80 93 8e 05 	sts	0x058E, r24	; 0x80058e <temp_line>
     a3c:	90 93 8f 05 	sts	0x058F, r25	; 0x80058f <temp_line+0x1>
     a40:	a0 93 90 05 	sts	0x0590, r26	; 0x800590 <temp_line+0x2>
     a44:	b0 93 91 05 	sts	0x0591, r27	; 0x800591 <temp_line+0x3>
     a48:	80 91 9e 05 	lds	r24, 0x059E	; 0x80059e <shape>
     a4c:	48 2f       	mov	r20, r24
     a4e:	50 e0       	ldi	r21, 0x00	; 0
     a50:	80 91 8d 05 	lds	r24, 0x058D	; 0x80058d <pattern>
     a54:	88 2f       	mov	r24, r24
     a56:	90 e0       	ldi	r25, 0x00	; 0
     a58:	2c e8       	ldi	r18, 0x8C	; 140
     a5a:	30 e0       	ldi	r19, 0x00	; 0
     a5c:	44 0f       	add	r20, r20
     a5e:	55 1f       	adc	r21, r21
     a60:	44 0f       	add	r20, r20
     a62:	55 1f       	adc	r21, r21
     a64:	84 0f       	add	r24, r20
     a66:	95 1f       	adc	r25, r21
     a68:	88 0f       	add	r24, r24
     a6a:	99 1f       	adc	r25, r25
     a6c:	82 0f       	add	r24, r18
     a6e:	93 1f       	adc	r25, r19
     a70:	fc 01       	movw	r30, r24
     a72:	85 91       	lpm	r24, Z+
     a74:	95 91       	lpm	r25, Z+
     a76:	32 97       	sbiw	r30, 0x02	; 2
     a78:	cc 01       	movw	r24, r24
     a7a:	a0 e0       	ldi	r26, 0x00	; 0
     a7c:	b0 e0       	ldi	r27, 0x00	; 0
     a7e:	88 27       	eor	r24, r24
     a80:	9f 70       	andi	r25, 0x0F	; 15
     a82:	aa 27       	eor	r26, r26
     a84:	bb 27       	eor	r27, r27
     a86:	89 2f       	mov	r24, r25
     a88:	9a 2f       	mov	r25, r26
     a8a:	ab 2f       	mov	r26, r27
     a8c:	bb 27       	eor	r27, r27
     a8e:	20 91 8c 05 	lds	r18, 0x058C	; 0x80058c <cur_col>
     a92:	22 2f       	mov	r18, r18
     a94:	30 e0       	ldi	r19, 0x00	; 0
     a96:	23 50       	subi	r18, 0x03	; 3
     a98:	31 09       	sbc	r19, r1
     a9a:	04 c0       	rjmp	.+8      	; 0xaa4 <tetriminos_to_temp_line+0x2d6>
     a9c:	88 0f       	add	r24, r24
     a9e:	99 1f       	adc	r25, r25
     aa0:	aa 1f       	adc	r26, r26
     aa2:	bb 1f       	adc	r27, r27
     aa4:	2a 95       	dec	r18
     aa6:	d2 f7       	brpl	.-12     	; 0xa9c <tetriminos_to_temp_line+0x2ce>
     aa8:	80 93 92 05 	sts	0x0592, r24	; 0x800592 <temp_line+0x4>
     aac:	90 93 93 05 	sts	0x0593, r25	; 0x800593 <temp_line+0x5>
     ab0:	a0 93 94 05 	sts	0x0594, r26	; 0x800594 <temp_line+0x6>
     ab4:	b0 93 95 05 	sts	0x0595, r27	; 0x800595 <temp_line+0x7>
     ab8:	80 91 9e 05 	lds	r24, 0x059E	; 0x80059e <shape>
     abc:	48 2f       	mov	r20, r24
     abe:	50 e0       	ldi	r21, 0x00	; 0
     ac0:	80 91 8d 05 	lds	r24, 0x058D	; 0x80058d <pattern>
     ac4:	88 2f       	mov	r24, r24
     ac6:	90 e0       	ldi	r25, 0x00	; 0
     ac8:	2c e8       	ldi	r18, 0x8C	; 140
     aca:	30 e0       	ldi	r19, 0x00	; 0
     acc:	44 0f       	add	r20, r20
     ace:	55 1f       	adc	r21, r21
     ad0:	44 0f       	add	r20, r20
     ad2:	55 1f       	adc	r21, r21
     ad4:	84 0f       	add	r24, r20
     ad6:	95 1f       	adc	r25, r21
     ad8:	88 0f       	add	r24, r24
     ada:	99 1f       	adc	r25, r25
     adc:	82 0f       	add	r24, r18
     ade:	93 1f       	adc	r25, r19
     ae0:	fc 01       	movw	r30, r24
     ae2:	85 91       	lpm	r24, Z+
     ae4:	95 91       	lpm	r25, Z+
     ae6:	32 97       	sbiw	r30, 0x02	; 2
     ae8:	cc 01       	movw	r24, r24
     aea:	a0 e0       	ldi	r26, 0x00	; 0
     aec:	b0 e0       	ldi	r27, 0x00	; 0
     aee:	80 7f       	andi	r24, 0xF0	; 240
     af0:	99 27       	eor	r25, r25
     af2:	aa 27       	eor	r26, r26
     af4:	bb 27       	eor	r27, r27
     af6:	68 94       	set
     af8:	13 f8       	bld	r1, 3
     afa:	b6 95       	lsr	r27
     afc:	a7 95       	ror	r26
     afe:	97 95       	ror	r25
     b00:	87 95       	ror	r24
     b02:	16 94       	lsr	r1
     b04:	d1 f7       	brne	.-12     	; 0xafa <tetriminos_to_temp_line+0x32c>
     b06:	20 91 8c 05 	lds	r18, 0x058C	; 0x80058c <cur_col>
     b0a:	22 2f       	mov	r18, r18
     b0c:	30 e0       	ldi	r19, 0x00	; 0
     b0e:	23 50       	subi	r18, 0x03	; 3
     b10:	31 09       	sbc	r19, r1
     b12:	04 c0       	rjmp	.+8      	; 0xb1c <tetriminos_to_temp_line+0x34e>
     b14:	88 0f       	add	r24, r24
     b16:	99 1f       	adc	r25, r25
     b18:	aa 1f       	adc	r26, r26
     b1a:	bb 1f       	adc	r27, r27
     b1c:	2a 95       	dec	r18
     b1e:	d2 f7       	brpl	.-12     	; 0xb14 <tetriminos_to_temp_line+0x346>
     b20:	80 93 96 05 	sts	0x0596, r24	; 0x800596 <temp_line+0x8>
     b24:	90 93 97 05 	sts	0x0597, r25	; 0x800597 <temp_line+0x9>
     b28:	a0 93 98 05 	sts	0x0598, r26	; 0x800598 <temp_line+0xa>
     b2c:	b0 93 99 05 	sts	0x0599, r27	; 0x800599 <temp_line+0xb>
     b30:	80 91 9e 05 	lds	r24, 0x059E	; 0x80059e <shape>
     b34:	48 2f       	mov	r20, r24
     b36:	50 e0       	ldi	r21, 0x00	; 0
     b38:	80 91 8d 05 	lds	r24, 0x058D	; 0x80058d <pattern>
     b3c:	88 2f       	mov	r24, r24
     b3e:	90 e0       	ldi	r25, 0x00	; 0
     b40:	2c e8       	ldi	r18, 0x8C	; 140
     b42:	30 e0       	ldi	r19, 0x00	; 0
     b44:	44 0f       	add	r20, r20
     b46:	55 1f       	adc	r21, r21
     b48:	44 0f       	add	r20, r20
     b4a:	55 1f       	adc	r21, r21
     b4c:	84 0f       	add	r24, r20
     b4e:	95 1f       	adc	r25, r21
     b50:	88 0f       	add	r24, r24
     b52:	99 1f       	adc	r25, r25
     b54:	82 0f       	add	r24, r18
     b56:	93 1f       	adc	r25, r19
     b58:	fc 01       	movw	r30, r24
     b5a:	85 91       	lpm	r24, Z+
     b5c:	95 91       	lpm	r25, Z+
     b5e:	32 97       	sbiw	r30, 0x02	; 2
     b60:	cc 01       	movw	r24, r24
     b62:	a0 e0       	ldi	r26, 0x00	; 0
     b64:	b0 e0       	ldi	r27, 0x00	; 0
     b66:	8f 70       	andi	r24, 0x0F	; 15
     b68:	99 27       	eor	r25, r25
     b6a:	aa 27       	eor	r26, r26
     b6c:	bb 27       	eor	r27, r27
     b6e:	20 91 8c 05 	lds	r18, 0x058C	; 0x80058c <cur_col>
     b72:	22 2f       	mov	r18, r18
     b74:	30 e0       	ldi	r19, 0x00	; 0
     b76:	23 50       	subi	r18, 0x03	; 3
     b78:	31 09       	sbc	r19, r1
     b7a:	04 c0       	rjmp	.+8      	; 0xb84 <tetriminos_to_temp_line+0x3b6>
     b7c:	88 0f       	add	r24, r24
     b7e:	99 1f       	adc	r25, r25
     b80:	aa 1f       	adc	r26, r26
     b82:	bb 1f       	adc	r27, r27
     b84:	2a 95       	dec	r18
     b86:	d2 f7       	brpl	.-12     	; 0xb7c <tetriminos_to_temp_line+0x3ae>
     b88:	80 93 9a 05 	sts	0x059A, r24	; 0x80059a <temp_line+0xc>
     b8c:	90 93 9b 05 	sts	0x059B, r25	; 0x80059b <temp_line+0xd>
     b90:	a0 93 9c 05 	sts	0x059C, r26	; 0x80059c <temp_line+0xe>
     b94:	b0 93 9d 05 	sts	0x059D, r27	; 0x80059d <temp_line+0xf>
     b98:	00 00       	nop
     b9a:	0f 90       	pop	r0
     b9c:	0f 90       	pop	r0
     b9e:	df 91       	pop	r29
     ba0:	cf 91       	pop	r28
     ba2:	08 95       	ret

00000ba4 <__vector_5>:
     ba4:	1f 92       	push	r1
     ba6:	0f 92       	push	r0
     ba8:	00 90 5f 00 	lds	r0, 0x005F	; 0x80005f <__TEXT_REGION_LENGTH__+0x7e005f>
     bac:	0f 92       	push	r0
     bae:	11 24       	eor	r1, r1
     bb0:	00 90 5b 00 	lds	r0, 0x005B	; 0x80005b <__TEXT_REGION_LENGTH__+0x7e005b>
     bb4:	0f 92       	push	r0
     bb6:	2f 93       	push	r18
     bb8:	3f 93       	push	r19
     bba:	4f 93       	push	r20
     bbc:	5f 93       	push	r21
     bbe:	6f 93       	push	r22
     bc0:	7f 93       	push	r23
     bc2:	8f 93       	push	r24
     bc4:	9f 93       	push	r25
     bc6:	af 93       	push	r26
     bc8:	bf 93       	push	r27
     bca:	ef 93       	push	r30
     bcc:	ff 93       	push	r31
     bce:	cf 93       	push	r28
     bd0:	df 93       	push	r29
     bd2:	00 d0       	rcall	.+0      	; 0xbd4 <__vector_5+0x30>
     bd4:	cd b7       	in	r28, 0x3d	; 61
     bd6:	de b7       	in	r29, 0x3e	; 62
     bd8:	1a 82       	std	Y+2, r1	; 0x02
     bda:	19 82       	std	Y+1, r1	; 0x01
     bdc:	1f c0       	rjmp	.+62     	; 0xc1c <__vector_5+0x78>
     bde:	89 81       	ldd	r24, Y+1	; 0x01
     be0:	9a 81       	ldd	r25, Y+2	; 0x02
     be2:	88 0f       	add	r24, r24
     be4:	99 1f       	adc	r25, r25
     be6:	88 0f       	add	r24, r24
     be8:	99 1f       	adc	r25, r25
     bea:	80 50       	subi	r24, 0x00	; 0
     bec:	9f 4f       	sbci	r25, 0xFF	; 255
     bee:	fc 01       	movw	r30, r24
     bf0:	80 81       	ld	r24, Z
     bf2:	91 81       	ldd	r25, Z+1	; 0x01
     bf4:	a2 81       	ldd	r26, Z+2	; 0x02
     bf6:	b3 81       	ldd	r27, Z+3	; 0x03
     bf8:	29 81       	ldd	r18, Y+1	; 0x01
     bfa:	3a 81       	ldd	r19, Y+2	; 0x02
     bfc:	22 0f       	add	r18, r18
     bfe:	33 1f       	adc	r19, r19
     c00:	22 0f       	add	r18, r18
     c02:	33 1f       	adc	r19, r19
     c04:	21 56       	subi	r18, 0x61	; 97
     c06:	3a 4f       	sbci	r19, 0xFA	; 250
     c08:	f9 01       	movw	r30, r18
     c0a:	80 83       	st	Z, r24
     c0c:	91 83       	std	Z+1, r25	; 0x01
     c0e:	a2 83       	std	Z+2, r26	; 0x02
     c10:	b3 83       	std	Z+3, r27	; 0x03
     c12:	89 81       	ldd	r24, Y+1	; 0x01
     c14:	9a 81       	ldd	r25, Y+2	; 0x02
     c16:	01 96       	adiw	r24, 0x01	; 1
     c18:	9a 83       	std	Y+2, r25	; 0x02
     c1a:	89 83       	std	Y+1, r24	; 0x01
     c1c:	89 81       	ldd	r24, Y+1	; 0x01
     c1e:	9a 81       	ldd	r25, Y+2	; 0x02
     c20:	80 97       	sbiw	r24, 0x20	; 32
     c22:	ec f2       	brlt	.-70     	; 0xbde <__vector_5+0x3a>
     c24:	80 91 8c 05 	lds	r24, 0x058C	; 0x80058c <cur_col>
     c28:	83 30       	cpi	r24, 0x03	; 3
     c2a:	30 f0       	brcs	.+12     	; 0xc38 <__vector_5+0x94>
     c2c:	80 91 8c 05 	lds	r24, 0x058C	; 0x80058c <cur_col>
     c30:	81 50       	subi	r24, 0x01	; 1
     c32:	80 93 8c 05 	sts	0x058C, r24	; 0x80058c <cur_col>
     c36:	03 c0       	rjmp	.+6      	; 0xc3e <__vector_5+0x9a>
     c38:	82 e0       	ldi	r24, 0x02	; 2
     c3a:	80 93 8c 05 	sts	0x058C, r24	; 0x80058c <cur_col>
     c3e:	c7 dd       	rcall	.-1138   	; 0x7ce <tetriminos_to_temp_line>
     c40:	27 dd       	rcall	.-1458   	; 0x690 <Collision>
     c42:	81 30       	cpi	r24, 0x01	; 1
     c44:	29 f4       	brne	.+10     	; 0xc50 <__vector_5+0xac>
     c46:	80 91 8c 05 	lds	r24, 0x058C	; 0x80058c <cur_col>
     c4a:	8f 5f       	subi	r24, 0xFF	; 255
     c4c:	80 93 8c 05 	sts	0x058C, r24	; 0x80058c <cur_col>
     c50:	be dd       	rcall	.-1156   	; 0x7ce <tetriminos_to_temp_line>
     c52:	80 91 8b 05 	lds	r24, 0x058B	; 0x80058b <cur_line>
     c56:	68 2f       	mov	r22, r24
     c58:	70 e0       	ldi	r23, 0x00	; 0
     c5a:	80 91 8b 05 	lds	r24, 0x058B	; 0x80058b <cur_line>
     c5e:	88 2f       	mov	r24, r24
     c60:	90 e0       	ldi	r25, 0x00	; 0
     c62:	88 0f       	add	r24, r24
     c64:	99 1f       	adc	r25, r25
     c66:	88 0f       	add	r24, r24
     c68:	99 1f       	adc	r25, r25
     c6a:	81 56       	subi	r24, 0x61	; 97
     c6c:	9a 4f       	sbci	r25, 0xFA	; 250
     c6e:	fc 01       	movw	r30, r24
     c70:	20 81       	ld	r18, Z
     c72:	31 81       	ldd	r19, Z+1	; 0x01
     c74:	42 81       	ldd	r20, Z+2	; 0x02
     c76:	53 81       	ldd	r21, Z+3	; 0x03
     c78:	80 91 8e 05 	lds	r24, 0x058E	; 0x80058e <temp_line>
     c7c:	90 91 8f 05 	lds	r25, 0x058F	; 0x80058f <temp_line+0x1>
     c80:	a0 91 90 05 	lds	r26, 0x0590	; 0x800590 <temp_line+0x2>
     c84:	b0 91 91 05 	lds	r27, 0x0591	; 0x800591 <temp_line+0x3>
     c88:	82 2b       	or	r24, r18
     c8a:	93 2b       	or	r25, r19
     c8c:	a4 2b       	or	r26, r20
     c8e:	b5 2b       	or	r27, r21
     c90:	9b 01       	movw	r18, r22
     c92:	22 0f       	add	r18, r18
     c94:	33 1f       	adc	r19, r19
     c96:	22 0f       	add	r18, r18
     c98:	33 1f       	adc	r19, r19
     c9a:	21 56       	subi	r18, 0x61	; 97
     c9c:	3a 4f       	sbci	r19, 0xFA	; 250
     c9e:	f9 01       	movw	r30, r18
     ca0:	80 83       	st	Z, r24
     ca2:	91 83       	std	Z+1, r25	; 0x01
     ca4:	a2 83       	std	Z+2, r26	; 0x02
     ca6:	b3 83       	std	Z+3, r27	; 0x03
     ca8:	80 91 8b 05 	lds	r24, 0x058B	; 0x80058b <cur_line>
     cac:	88 2f       	mov	r24, r24
     cae:	90 e0       	ldi	r25, 0x00	; 0
     cb0:	bc 01       	movw	r22, r24
     cb2:	6f 5f       	subi	r22, 0xFF	; 255
     cb4:	7f 4f       	sbci	r23, 0xFF	; 255
     cb6:	80 91 8b 05 	lds	r24, 0x058B	; 0x80058b <cur_line>
     cba:	88 2f       	mov	r24, r24
     cbc:	90 e0       	ldi	r25, 0x00	; 0
     cbe:	01 96       	adiw	r24, 0x01	; 1
     cc0:	88 0f       	add	r24, r24
     cc2:	99 1f       	adc	r25, r25
     cc4:	88 0f       	add	r24, r24
     cc6:	99 1f       	adc	r25, r25
     cc8:	81 56       	subi	r24, 0x61	; 97
     cca:	9a 4f       	sbci	r25, 0xFA	; 250
     ccc:	fc 01       	movw	r30, r24
     cce:	20 81       	ld	r18, Z
     cd0:	31 81       	ldd	r19, Z+1	; 0x01
     cd2:	42 81       	ldd	r20, Z+2	; 0x02
     cd4:	53 81       	ldd	r21, Z+3	; 0x03
     cd6:	80 91 92 05 	lds	r24, 0x0592	; 0x800592 <temp_line+0x4>
     cda:	90 91 93 05 	lds	r25, 0x0593	; 0x800593 <temp_line+0x5>
     cde:	a0 91 94 05 	lds	r26, 0x0594	; 0x800594 <temp_line+0x6>
     ce2:	b0 91 95 05 	lds	r27, 0x0595	; 0x800595 <temp_line+0x7>
     ce6:	82 2b       	or	r24, r18
     ce8:	93 2b       	or	r25, r19
     cea:	a4 2b       	or	r26, r20
     cec:	b5 2b       	or	r27, r21
     cee:	9b 01       	movw	r18, r22
     cf0:	22 0f       	add	r18, r18
     cf2:	33 1f       	adc	r19, r19
     cf4:	22 0f       	add	r18, r18
     cf6:	33 1f       	adc	r19, r19
     cf8:	21 56       	subi	r18, 0x61	; 97
     cfa:	3a 4f       	sbci	r19, 0xFA	; 250
     cfc:	f9 01       	movw	r30, r18
     cfe:	80 83       	st	Z, r24
     d00:	91 83       	std	Z+1, r25	; 0x01
     d02:	a2 83       	std	Z+2, r26	; 0x02
     d04:	b3 83       	std	Z+3, r27	; 0x03
     d06:	80 91 8b 05 	lds	r24, 0x058B	; 0x80058b <cur_line>
     d0a:	88 2f       	mov	r24, r24
     d0c:	90 e0       	ldi	r25, 0x00	; 0
     d0e:	bc 01       	movw	r22, r24
     d10:	6e 5f       	subi	r22, 0xFE	; 254
     d12:	7f 4f       	sbci	r23, 0xFF	; 255
     d14:	80 91 8b 05 	lds	r24, 0x058B	; 0x80058b <cur_line>
     d18:	88 2f       	mov	r24, r24
     d1a:	90 e0       	ldi	r25, 0x00	; 0
     d1c:	02 96       	adiw	r24, 0x02	; 2
     d1e:	88 0f       	add	r24, r24
     d20:	99 1f       	adc	r25, r25
     d22:	88 0f       	add	r24, r24
     d24:	99 1f       	adc	r25, r25
     d26:	81 56       	subi	r24, 0x61	; 97
     d28:	9a 4f       	sbci	r25, 0xFA	; 250
     d2a:	fc 01       	movw	r30, r24
     d2c:	20 81       	ld	r18, Z
     d2e:	31 81       	ldd	r19, Z+1	; 0x01
     d30:	42 81       	ldd	r20, Z+2	; 0x02
     d32:	53 81       	ldd	r21, Z+3	; 0x03
     d34:	80 91 96 05 	lds	r24, 0x0596	; 0x800596 <temp_line+0x8>
     d38:	90 91 97 05 	lds	r25, 0x0597	; 0x800597 <temp_line+0x9>
     d3c:	a0 91 98 05 	lds	r26, 0x0598	; 0x800598 <temp_line+0xa>
     d40:	b0 91 99 05 	lds	r27, 0x0599	; 0x800599 <temp_line+0xb>
     d44:	82 2b       	or	r24, r18
     d46:	93 2b       	or	r25, r19
     d48:	a4 2b       	or	r26, r20
     d4a:	b5 2b       	or	r27, r21
     d4c:	9b 01       	movw	r18, r22
     d4e:	22 0f       	add	r18, r18
     d50:	33 1f       	adc	r19, r19
     d52:	22 0f       	add	r18, r18
     d54:	33 1f       	adc	r19, r19
     d56:	21 56       	subi	r18, 0x61	; 97
     d58:	3a 4f       	sbci	r19, 0xFA	; 250
     d5a:	f9 01       	movw	r30, r18
     d5c:	80 83       	st	Z, r24
     d5e:	91 83       	std	Z+1, r25	; 0x01
     d60:	a2 83       	std	Z+2, r26	; 0x02
     d62:	b3 83       	std	Z+3, r27	; 0x03
     d64:	80 91 8b 05 	lds	r24, 0x058B	; 0x80058b <cur_line>
     d68:	88 2f       	mov	r24, r24
     d6a:	90 e0       	ldi	r25, 0x00	; 0
     d6c:	bc 01       	movw	r22, r24
     d6e:	6d 5f       	subi	r22, 0xFD	; 253
     d70:	7f 4f       	sbci	r23, 0xFF	; 255
     d72:	80 91 8b 05 	lds	r24, 0x058B	; 0x80058b <cur_line>
     d76:	88 2f       	mov	r24, r24
     d78:	90 e0       	ldi	r25, 0x00	; 0
     d7a:	03 96       	adiw	r24, 0x03	; 3
     d7c:	88 0f       	add	r24, r24
     d7e:	99 1f       	adc	r25, r25
     d80:	88 0f       	add	r24, r24
     d82:	99 1f       	adc	r25, r25
     d84:	81 56       	subi	r24, 0x61	; 97
     d86:	9a 4f       	sbci	r25, 0xFA	; 250
     d88:	fc 01       	movw	r30, r24
     d8a:	20 81       	ld	r18, Z
     d8c:	31 81       	ldd	r19, Z+1	; 0x01
     d8e:	42 81       	ldd	r20, Z+2	; 0x02
     d90:	53 81       	ldd	r21, Z+3	; 0x03
     d92:	80 91 9a 05 	lds	r24, 0x059A	; 0x80059a <temp_line+0xc>
     d96:	90 91 9b 05 	lds	r25, 0x059B	; 0x80059b <temp_line+0xd>
     d9a:	a0 91 9c 05 	lds	r26, 0x059C	; 0x80059c <temp_line+0xe>
     d9e:	b0 91 9d 05 	lds	r27, 0x059D	; 0x80059d <temp_line+0xf>
     da2:	82 2b       	or	r24, r18
     da4:	93 2b       	or	r25, r19
     da6:	a4 2b       	or	r26, r20
     da8:	b5 2b       	or	r27, r21
     daa:	9b 01       	movw	r18, r22
     dac:	22 0f       	add	r18, r18
     dae:	33 1f       	adc	r19, r19
     db0:	22 0f       	add	r18, r18
     db2:	33 1f       	adc	r19, r19
     db4:	21 56       	subi	r18, 0x61	; 97
     db6:	3a 4f       	sbci	r19, 0xFA	; 250
     db8:	f9 01       	movw	r30, r18
     dba:	80 83       	st	Z, r24
     dbc:	91 83       	std	Z+1, r25	; 0x01
     dbe:	a2 83       	std	Z+2, r26	; 0x02
     dc0:	b3 83       	std	Z+3, r27	; 0x03
     dc2:	00 00       	nop
     dc4:	0f 90       	pop	r0
     dc6:	0f 90       	pop	r0
     dc8:	df 91       	pop	r29
     dca:	cf 91       	pop	r28
     dcc:	ff 91       	pop	r31
     dce:	ef 91       	pop	r30
     dd0:	bf 91       	pop	r27
     dd2:	af 91       	pop	r26
     dd4:	9f 91       	pop	r25
     dd6:	8f 91       	pop	r24
     dd8:	7f 91       	pop	r23
     dda:	6f 91       	pop	r22
     ddc:	5f 91       	pop	r21
     dde:	4f 91       	pop	r20
     de0:	3f 91       	pop	r19
     de2:	2f 91       	pop	r18
     de4:	0f 90       	pop	r0
     de6:	00 92 5b 00 	sts	0x005B, r0	; 0x80005b <__TEXT_REGION_LENGTH__+0x7e005b>
     dea:	0f 90       	pop	r0
     dec:	00 92 5f 00 	sts	0x005F, r0	; 0x80005f <__TEXT_REGION_LENGTH__+0x7e005f>
     df0:	0f 90       	pop	r0
     df2:	1f 90       	pop	r1
     df4:	18 95       	reti

00000df6 <__vector_6>:
     df6:	1f 92       	push	r1
     df8:	0f 92       	push	r0
     dfa:	00 90 5f 00 	lds	r0, 0x005F	; 0x80005f <__TEXT_REGION_LENGTH__+0x7e005f>
     dfe:	0f 92       	push	r0
     e00:	11 24       	eor	r1, r1
     e02:	00 90 5b 00 	lds	r0, 0x005B	; 0x80005b <__TEXT_REGION_LENGTH__+0x7e005b>
     e06:	0f 92       	push	r0
     e08:	2f 93       	push	r18
     e0a:	3f 93       	push	r19
     e0c:	4f 93       	push	r20
     e0e:	5f 93       	push	r21
     e10:	6f 93       	push	r22
     e12:	7f 93       	push	r23
     e14:	8f 93       	push	r24
     e16:	9f 93       	push	r25
     e18:	af 93       	push	r26
     e1a:	bf 93       	push	r27
     e1c:	ef 93       	push	r30
     e1e:	ff 93       	push	r31
     e20:	cf 93       	push	r28
     e22:	df 93       	push	r29
     e24:	00 d0       	rcall	.+0      	; 0xe26 <__vector_6+0x30>
     e26:	cd b7       	in	r28, 0x3d	; 61
     e28:	de b7       	in	r29, 0x3e	; 62
     e2a:	1a 82       	std	Y+2, r1	; 0x02
     e2c:	19 82       	std	Y+1, r1	; 0x01
     e2e:	1f c0       	rjmp	.+62     	; 0xe6e <__vector_6+0x78>
     e30:	89 81       	ldd	r24, Y+1	; 0x01
     e32:	9a 81       	ldd	r25, Y+2	; 0x02
     e34:	88 0f       	add	r24, r24
     e36:	99 1f       	adc	r25, r25
     e38:	88 0f       	add	r24, r24
     e3a:	99 1f       	adc	r25, r25
     e3c:	80 50       	subi	r24, 0x00	; 0
     e3e:	9f 4f       	sbci	r25, 0xFF	; 255
     e40:	fc 01       	movw	r30, r24
     e42:	80 81       	ld	r24, Z
     e44:	91 81       	ldd	r25, Z+1	; 0x01
     e46:	a2 81       	ldd	r26, Z+2	; 0x02
     e48:	b3 81       	ldd	r27, Z+3	; 0x03
     e4a:	29 81       	ldd	r18, Y+1	; 0x01
     e4c:	3a 81       	ldd	r19, Y+2	; 0x02
     e4e:	22 0f       	add	r18, r18
     e50:	33 1f       	adc	r19, r19
     e52:	22 0f       	add	r18, r18
     e54:	33 1f       	adc	r19, r19
     e56:	21 56       	subi	r18, 0x61	; 97
     e58:	3a 4f       	sbci	r19, 0xFA	; 250
     e5a:	f9 01       	movw	r30, r18
     e5c:	80 83       	st	Z, r24
     e5e:	91 83       	std	Z+1, r25	; 0x01
     e60:	a2 83       	std	Z+2, r26	; 0x02
     e62:	b3 83       	std	Z+3, r27	; 0x03
     e64:	89 81       	ldd	r24, Y+1	; 0x01
     e66:	9a 81       	ldd	r25, Y+2	; 0x02
     e68:	01 96       	adiw	r24, 0x01	; 1
     e6a:	9a 83       	std	Y+2, r25	; 0x02
     e6c:	89 83       	std	Y+1, r24	; 0x01
     e6e:	89 81       	ldd	r24, Y+1	; 0x01
     e70:	9a 81       	ldd	r25, Y+2	; 0x02
     e72:	80 97       	sbiw	r24, 0x20	; 32
     e74:	ec f2       	brlt	.-70     	; 0xe30 <__vector_6+0x3a>
     e76:	80 91 8d 05 	lds	r24, 0x058D	; 0x80058d <pattern>
     e7a:	8f 5f       	subi	r24, 0xFF	; 255
     e7c:	80 93 8d 05 	sts	0x058D, r24	; 0x80058d <pattern>
     e80:	80 91 8d 05 	lds	r24, 0x058D	; 0x80058d <pattern>
     e84:	84 30       	cpi	r24, 0x04	; 4
     e86:	11 f4       	brne	.+4      	; 0xe8c <__vector_6+0x96>
     e88:	10 92 8d 05 	sts	0x058D, r1	; 0x80058d <pattern>
     e8c:	a0 dc       	rcall	.-1728   	; 0x7ce <tetriminos_to_temp_line>
     e8e:	00 dc       	rcall	.-2048   	; 0x690 <Collision>
     e90:	81 30       	cpi	r24, 0x01	; 1
     e92:	29 f4       	brne	.+10     	; 0xe9e <__vector_6+0xa8>
     e94:	80 91 8d 05 	lds	r24, 0x058D	; 0x80058d <pattern>
     e98:	81 50       	subi	r24, 0x01	; 1
     e9a:	80 93 8d 05 	sts	0x058D, r24	; 0x80058d <pattern>
     e9e:	97 dc       	rcall	.-1746   	; 0x7ce <tetriminos_to_temp_line>
     ea0:	80 91 8b 05 	lds	r24, 0x058B	; 0x80058b <cur_line>
     ea4:	68 2f       	mov	r22, r24
     ea6:	70 e0       	ldi	r23, 0x00	; 0
     ea8:	80 91 8b 05 	lds	r24, 0x058B	; 0x80058b <cur_line>
     eac:	88 2f       	mov	r24, r24
     eae:	90 e0       	ldi	r25, 0x00	; 0
     eb0:	88 0f       	add	r24, r24
     eb2:	99 1f       	adc	r25, r25
     eb4:	88 0f       	add	r24, r24
     eb6:	99 1f       	adc	r25, r25
     eb8:	81 56       	subi	r24, 0x61	; 97
     eba:	9a 4f       	sbci	r25, 0xFA	; 250
     ebc:	fc 01       	movw	r30, r24
     ebe:	20 81       	ld	r18, Z
     ec0:	31 81       	ldd	r19, Z+1	; 0x01
     ec2:	42 81       	ldd	r20, Z+2	; 0x02
     ec4:	53 81       	ldd	r21, Z+3	; 0x03
     ec6:	80 91 8e 05 	lds	r24, 0x058E	; 0x80058e <temp_line>
     eca:	90 91 8f 05 	lds	r25, 0x058F	; 0x80058f <temp_line+0x1>
     ece:	a0 91 90 05 	lds	r26, 0x0590	; 0x800590 <temp_line+0x2>
     ed2:	b0 91 91 05 	lds	r27, 0x0591	; 0x800591 <temp_line+0x3>
     ed6:	82 2b       	or	r24, r18
     ed8:	93 2b       	or	r25, r19
     eda:	a4 2b       	or	r26, r20
     edc:	b5 2b       	or	r27, r21
     ede:	9b 01       	movw	r18, r22
     ee0:	22 0f       	add	r18, r18
     ee2:	33 1f       	adc	r19, r19
     ee4:	22 0f       	add	r18, r18
     ee6:	33 1f       	adc	r19, r19
     ee8:	21 56       	subi	r18, 0x61	; 97
     eea:	3a 4f       	sbci	r19, 0xFA	; 250
     eec:	f9 01       	movw	r30, r18
     eee:	80 83       	st	Z, r24
     ef0:	91 83       	std	Z+1, r25	; 0x01
     ef2:	a2 83       	std	Z+2, r26	; 0x02
     ef4:	b3 83       	std	Z+3, r27	; 0x03
     ef6:	80 91 8b 05 	lds	r24, 0x058B	; 0x80058b <cur_line>
     efa:	88 2f       	mov	r24, r24
     efc:	90 e0       	ldi	r25, 0x00	; 0
     efe:	bc 01       	movw	r22, r24
     f00:	6f 5f       	subi	r22, 0xFF	; 255
     f02:	7f 4f       	sbci	r23, 0xFF	; 255
     f04:	80 91 8b 05 	lds	r24, 0x058B	; 0x80058b <cur_line>
     f08:	88 2f       	mov	r24, r24
     f0a:	90 e0       	ldi	r25, 0x00	; 0
     f0c:	01 96       	adiw	r24, 0x01	; 1
     f0e:	88 0f       	add	r24, r24
     f10:	99 1f       	adc	r25, r25
     f12:	88 0f       	add	r24, r24
     f14:	99 1f       	adc	r25, r25
     f16:	81 56       	subi	r24, 0x61	; 97
     f18:	9a 4f       	sbci	r25, 0xFA	; 250
     f1a:	fc 01       	movw	r30, r24
     f1c:	20 81       	ld	r18, Z
     f1e:	31 81       	ldd	r19, Z+1	; 0x01
     f20:	42 81       	ldd	r20, Z+2	; 0x02
     f22:	53 81       	ldd	r21, Z+3	; 0x03
     f24:	80 91 92 05 	lds	r24, 0x0592	; 0x800592 <temp_line+0x4>
     f28:	90 91 93 05 	lds	r25, 0x0593	; 0x800593 <temp_line+0x5>
     f2c:	a0 91 94 05 	lds	r26, 0x0594	; 0x800594 <temp_line+0x6>
     f30:	b0 91 95 05 	lds	r27, 0x0595	; 0x800595 <temp_line+0x7>
     f34:	82 2b       	or	r24, r18
     f36:	93 2b       	or	r25, r19
     f38:	a4 2b       	or	r26, r20
     f3a:	b5 2b       	or	r27, r21
     f3c:	9b 01       	movw	r18, r22
     f3e:	22 0f       	add	r18, r18
     f40:	33 1f       	adc	r19, r19
     f42:	22 0f       	add	r18, r18
     f44:	33 1f       	adc	r19, r19
     f46:	21 56       	subi	r18, 0x61	; 97
     f48:	3a 4f       	sbci	r19, 0xFA	; 250
     f4a:	f9 01       	movw	r30, r18
     f4c:	80 83       	st	Z, r24
     f4e:	91 83       	std	Z+1, r25	; 0x01
     f50:	a2 83       	std	Z+2, r26	; 0x02
     f52:	b3 83       	std	Z+3, r27	; 0x03
     f54:	80 91 8b 05 	lds	r24, 0x058B	; 0x80058b <cur_line>
     f58:	88 2f       	mov	r24, r24
     f5a:	90 e0       	ldi	r25, 0x00	; 0
     f5c:	bc 01       	movw	r22, r24
     f5e:	6e 5f       	subi	r22, 0xFE	; 254
     f60:	7f 4f       	sbci	r23, 0xFF	; 255
     f62:	80 91 8b 05 	lds	r24, 0x058B	; 0x80058b <cur_line>
     f66:	88 2f       	mov	r24, r24
     f68:	90 e0       	ldi	r25, 0x00	; 0
     f6a:	02 96       	adiw	r24, 0x02	; 2
     f6c:	88 0f       	add	r24, r24
     f6e:	99 1f       	adc	r25, r25
     f70:	88 0f       	add	r24, r24
     f72:	99 1f       	adc	r25, r25
     f74:	81 56       	subi	r24, 0x61	; 97
     f76:	9a 4f       	sbci	r25, 0xFA	; 250
     f78:	fc 01       	movw	r30, r24
     f7a:	20 81       	ld	r18, Z
     f7c:	31 81       	ldd	r19, Z+1	; 0x01
     f7e:	42 81       	ldd	r20, Z+2	; 0x02
     f80:	53 81       	ldd	r21, Z+3	; 0x03
     f82:	80 91 96 05 	lds	r24, 0x0596	; 0x800596 <temp_line+0x8>
     f86:	90 91 97 05 	lds	r25, 0x0597	; 0x800597 <temp_line+0x9>
     f8a:	a0 91 98 05 	lds	r26, 0x0598	; 0x800598 <temp_line+0xa>
     f8e:	b0 91 99 05 	lds	r27, 0x0599	; 0x800599 <temp_line+0xb>
     f92:	82 2b       	or	r24, r18
     f94:	93 2b       	or	r25, r19
     f96:	a4 2b       	or	r26, r20
     f98:	b5 2b       	or	r27, r21
     f9a:	9b 01       	movw	r18, r22
     f9c:	22 0f       	add	r18, r18
     f9e:	33 1f       	adc	r19, r19
     fa0:	22 0f       	add	r18, r18
     fa2:	33 1f       	adc	r19, r19
     fa4:	21 56       	subi	r18, 0x61	; 97
     fa6:	3a 4f       	sbci	r19, 0xFA	; 250
     fa8:	f9 01       	movw	r30, r18
     faa:	80 83       	st	Z, r24
     fac:	91 83       	std	Z+1, r25	; 0x01
     fae:	a2 83       	std	Z+2, r26	; 0x02
     fb0:	b3 83       	std	Z+3, r27	; 0x03
     fb2:	80 91 8b 05 	lds	r24, 0x058B	; 0x80058b <cur_line>
     fb6:	88 2f       	mov	r24, r24
     fb8:	90 e0       	ldi	r25, 0x00	; 0
     fba:	bc 01       	movw	r22, r24
     fbc:	6d 5f       	subi	r22, 0xFD	; 253
     fbe:	7f 4f       	sbci	r23, 0xFF	; 255
     fc0:	80 91 8b 05 	lds	r24, 0x058B	; 0x80058b <cur_line>
     fc4:	88 2f       	mov	r24, r24
     fc6:	90 e0       	ldi	r25, 0x00	; 0
     fc8:	03 96       	adiw	r24, 0x03	; 3
     fca:	88 0f       	add	r24, r24
     fcc:	99 1f       	adc	r25, r25
     fce:	88 0f       	add	r24, r24
     fd0:	99 1f       	adc	r25, r25
     fd2:	81 56       	subi	r24, 0x61	; 97
     fd4:	9a 4f       	sbci	r25, 0xFA	; 250
     fd6:	fc 01       	movw	r30, r24
     fd8:	20 81       	ld	r18, Z
     fda:	31 81       	ldd	r19, Z+1	; 0x01
     fdc:	42 81       	ldd	r20, Z+2	; 0x02
     fde:	53 81       	ldd	r21, Z+3	; 0x03
     fe0:	80 91 9a 05 	lds	r24, 0x059A	; 0x80059a <temp_line+0xc>
     fe4:	90 91 9b 05 	lds	r25, 0x059B	; 0x80059b <temp_line+0xd>
     fe8:	a0 91 9c 05 	lds	r26, 0x059C	; 0x80059c <temp_line+0xe>
     fec:	b0 91 9d 05 	lds	r27, 0x059D	; 0x80059d <temp_line+0xf>
     ff0:	82 2b       	or	r24, r18
     ff2:	93 2b       	or	r25, r19
     ff4:	a4 2b       	or	r26, r20
     ff6:	b5 2b       	or	r27, r21
     ff8:	9b 01       	movw	r18, r22
     ffa:	22 0f       	add	r18, r18
     ffc:	33 1f       	adc	r19, r19
     ffe:	22 0f       	add	r18, r18
    1000:	33 1f       	adc	r19, r19
    1002:	21 56       	subi	r18, 0x61	; 97
    1004:	3a 4f       	sbci	r19, 0xFA	; 250
    1006:	f9 01       	movw	r30, r18
    1008:	80 83       	st	Z, r24
    100a:	91 83       	std	Z+1, r25	; 0x01
    100c:	a2 83       	std	Z+2, r26	; 0x02
    100e:	b3 83       	std	Z+3, r27	; 0x03
    1010:	00 00       	nop
    1012:	0f 90       	pop	r0
    1014:	0f 90       	pop	r0
    1016:	df 91       	pop	r29
    1018:	cf 91       	pop	r28
    101a:	ff 91       	pop	r31
    101c:	ef 91       	pop	r30
    101e:	bf 91       	pop	r27
    1020:	af 91       	pop	r26
    1022:	9f 91       	pop	r25
    1024:	8f 91       	pop	r24
    1026:	7f 91       	pop	r23
    1028:	6f 91       	pop	r22
    102a:	5f 91       	pop	r21
    102c:	4f 91       	pop	r20
    102e:	3f 91       	pop	r19
    1030:	2f 91       	pop	r18
    1032:	0f 90       	pop	r0
    1034:	00 92 5b 00 	sts	0x005B, r0	; 0x80005b <__TEXT_REGION_LENGTH__+0x7e005b>
    1038:	0f 90       	pop	r0
    103a:	00 92 5f 00 	sts	0x005F, r0	; 0x80005f <__TEXT_REGION_LENGTH__+0x7e005f>
    103e:	0f 90       	pop	r0
    1040:	1f 90       	pop	r1
    1042:	18 95       	reti

00001044 <__vector_7>:
    1044:	1f 92       	push	r1
    1046:	0f 92       	push	r0
    1048:	00 90 5f 00 	lds	r0, 0x005F	; 0x80005f <__TEXT_REGION_LENGTH__+0x7e005f>
    104c:	0f 92       	push	r0
    104e:	11 24       	eor	r1, r1
    1050:	00 90 5b 00 	lds	r0, 0x005B	; 0x80005b <__TEXT_REGION_LENGTH__+0x7e005b>
    1054:	0f 92       	push	r0
    1056:	2f 93       	push	r18
    1058:	3f 93       	push	r19
    105a:	4f 93       	push	r20
    105c:	5f 93       	push	r21
    105e:	6f 93       	push	r22
    1060:	7f 93       	push	r23
    1062:	8f 93       	push	r24
    1064:	9f 93       	push	r25
    1066:	af 93       	push	r26
    1068:	bf 93       	push	r27
    106a:	ef 93       	push	r30
    106c:	ff 93       	push	r31
    106e:	cf 93       	push	r28
    1070:	df 93       	push	r29
    1072:	00 d0       	rcall	.+0      	; 0x1074 <__vector_7+0x30>
    1074:	cd b7       	in	r28, 0x3d	; 61
    1076:	de b7       	in	r29, 0x3e	; 62
    1078:	1a 82       	std	Y+2, r1	; 0x02
    107a:	19 82       	std	Y+1, r1	; 0x01
    107c:	1f c0       	rjmp	.+62     	; 0x10bc <__vector_7+0x78>
    107e:	89 81       	ldd	r24, Y+1	; 0x01
    1080:	9a 81       	ldd	r25, Y+2	; 0x02
    1082:	88 0f       	add	r24, r24
    1084:	99 1f       	adc	r25, r25
    1086:	88 0f       	add	r24, r24
    1088:	99 1f       	adc	r25, r25
    108a:	80 50       	subi	r24, 0x00	; 0
    108c:	9f 4f       	sbci	r25, 0xFF	; 255
    108e:	fc 01       	movw	r30, r24
    1090:	80 81       	ld	r24, Z
    1092:	91 81       	ldd	r25, Z+1	; 0x01
    1094:	a2 81       	ldd	r26, Z+2	; 0x02
    1096:	b3 81       	ldd	r27, Z+3	; 0x03
    1098:	29 81       	ldd	r18, Y+1	; 0x01
    109a:	3a 81       	ldd	r19, Y+2	; 0x02
    109c:	22 0f       	add	r18, r18
    109e:	33 1f       	adc	r19, r19
    10a0:	22 0f       	add	r18, r18
    10a2:	33 1f       	adc	r19, r19
    10a4:	21 56       	subi	r18, 0x61	; 97
    10a6:	3a 4f       	sbci	r19, 0xFA	; 250
    10a8:	f9 01       	movw	r30, r18
    10aa:	80 83       	st	Z, r24
    10ac:	91 83       	std	Z+1, r25	; 0x01
    10ae:	a2 83       	std	Z+2, r26	; 0x02
    10b0:	b3 83       	std	Z+3, r27	; 0x03
    10b2:	89 81       	ldd	r24, Y+1	; 0x01
    10b4:	9a 81       	ldd	r25, Y+2	; 0x02
    10b6:	01 96       	adiw	r24, 0x01	; 1
    10b8:	9a 83       	std	Y+2, r25	; 0x02
    10ba:	89 83       	std	Y+1, r24	; 0x01
    10bc:	89 81       	ldd	r24, Y+1	; 0x01
    10be:	9a 81       	ldd	r25, Y+2	; 0x02
    10c0:	80 97       	sbiw	r24, 0x20	; 32
    10c2:	ec f2       	brlt	.-70     	; 0x107e <__vector_7+0x3a>
    10c4:	84 db       	rcall	.-2296   	; 0x7ce <tetriminos_to_temp_line>
    10c6:	05 c0       	rjmp	.+10     	; 0x10d2 <__vector_7+0x8e>
    10c8:	80 91 8b 05 	lds	r24, 0x058B	; 0x80058b <cur_line>
    10cc:	8f 5f       	subi	r24, 0xFF	; 255
    10ce:	80 93 8b 05 	sts	0x058B, r24	; 0x80058b <cur_line>
    10d2:	de da       	rcall	.-2628   	; 0x690 <Collision>
    10d4:	88 23       	and	r24, r24
    10d6:	c1 f3       	breq	.-16     	; 0x10c8 <__vector_7+0x84>
    10d8:	80 91 8b 05 	lds	r24, 0x058B	; 0x80058b <cur_line>
    10dc:	81 50       	subi	r24, 0x01	; 1
    10de:	80 93 8b 05 	sts	0x058B, r24	; 0x80058b <cur_line>
    10e2:	75 db       	rcall	.-2326   	; 0x7ce <tetriminos_to_temp_line>
    10e4:	80 91 8b 05 	lds	r24, 0x058B	; 0x80058b <cur_line>
    10e8:	68 2f       	mov	r22, r24
    10ea:	70 e0       	ldi	r23, 0x00	; 0
    10ec:	80 91 8b 05 	lds	r24, 0x058B	; 0x80058b <cur_line>
    10f0:	88 2f       	mov	r24, r24
    10f2:	90 e0       	ldi	r25, 0x00	; 0
    10f4:	88 0f       	add	r24, r24
    10f6:	99 1f       	adc	r25, r25
    10f8:	88 0f       	add	r24, r24
    10fa:	99 1f       	adc	r25, r25
    10fc:	81 56       	subi	r24, 0x61	; 97
    10fe:	9a 4f       	sbci	r25, 0xFA	; 250
    1100:	fc 01       	movw	r30, r24
    1102:	20 81       	ld	r18, Z
    1104:	31 81       	ldd	r19, Z+1	; 0x01
    1106:	42 81       	ldd	r20, Z+2	; 0x02
    1108:	53 81       	ldd	r21, Z+3	; 0x03
    110a:	80 91 8e 05 	lds	r24, 0x058E	; 0x80058e <temp_line>
    110e:	90 91 8f 05 	lds	r25, 0x058F	; 0x80058f <temp_line+0x1>
    1112:	a0 91 90 05 	lds	r26, 0x0590	; 0x800590 <temp_line+0x2>
    1116:	b0 91 91 05 	lds	r27, 0x0591	; 0x800591 <temp_line+0x3>
    111a:	82 2b       	or	r24, r18
    111c:	93 2b       	or	r25, r19
    111e:	a4 2b       	or	r26, r20
    1120:	b5 2b       	or	r27, r21
    1122:	9b 01       	movw	r18, r22
    1124:	22 0f       	add	r18, r18
    1126:	33 1f       	adc	r19, r19
    1128:	22 0f       	add	r18, r18
    112a:	33 1f       	adc	r19, r19
    112c:	21 56       	subi	r18, 0x61	; 97
    112e:	3a 4f       	sbci	r19, 0xFA	; 250
    1130:	f9 01       	movw	r30, r18
    1132:	80 83       	st	Z, r24
    1134:	91 83       	std	Z+1, r25	; 0x01
    1136:	a2 83       	std	Z+2, r26	; 0x02
    1138:	b3 83       	std	Z+3, r27	; 0x03
    113a:	80 91 8b 05 	lds	r24, 0x058B	; 0x80058b <cur_line>
    113e:	88 2f       	mov	r24, r24
    1140:	90 e0       	ldi	r25, 0x00	; 0
    1142:	bc 01       	movw	r22, r24
    1144:	6f 5f       	subi	r22, 0xFF	; 255
    1146:	7f 4f       	sbci	r23, 0xFF	; 255
    1148:	80 91 8b 05 	lds	r24, 0x058B	; 0x80058b <cur_line>
    114c:	88 2f       	mov	r24, r24
    114e:	90 e0       	ldi	r25, 0x00	; 0
    1150:	01 96       	adiw	r24, 0x01	; 1
    1152:	88 0f       	add	r24, r24
    1154:	99 1f       	adc	r25, r25
    1156:	88 0f       	add	r24, r24
    1158:	99 1f       	adc	r25, r25
    115a:	81 56       	subi	r24, 0x61	; 97
    115c:	9a 4f       	sbci	r25, 0xFA	; 250
    115e:	fc 01       	movw	r30, r24
    1160:	20 81       	ld	r18, Z
    1162:	31 81       	ldd	r19, Z+1	; 0x01
    1164:	42 81       	ldd	r20, Z+2	; 0x02
    1166:	53 81       	ldd	r21, Z+3	; 0x03
    1168:	80 91 92 05 	lds	r24, 0x0592	; 0x800592 <temp_line+0x4>
    116c:	90 91 93 05 	lds	r25, 0x0593	; 0x800593 <temp_line+0x5>
    1170:	a0 91 94 05 	lds	r26, 0x0594	; 0x800594 <temp_line+0x6>
    1174:	b0 91 95 05 	lds	r27, 0x0595	; 0x800595 <temp_line+0x7>
    1178:	82 2b       	or	r24, r18
    117a:	93 2b       	or	r25, r19
    117c:	a4 2b       	or	r26, r20
    117e:	b5 2b       	or	r27, r21
    1180:	9b 01       	movw	r18, r22
    1182:	22 0f       	add	r18, r18
    1184:	33 1f       	adc	r19, r19
    1186:	22 0f       	add	r18, r18
    1188:	33 1f       	adc	r19, r19
    118a:	21 56       	subi	r18, 0x61	; 97
    118c:	3a 4f       	sbci	r19, 0xFA	; 250
    118e:	f9 01       	movw	r30, r18
    1190:	80 83       	st	Z, r24
    1192:	91 83       	std	Z+1, r25	; 0x01
    1194:	a2 83       	std	Z+2, r26	; 0x02
    1196:	b3 83       	std	Z+3, r27	; 0x03
    1198:	80 91 8b 05 	lds	r24, 0x058B	; 0x80058b <cur_line>
    119c:	88 2f       	mov	r24, r24
    119e:	90 e0       	ldi	r25, 0x00	; 0
    11a0:	bc 01       	movw	r22, r24
    11a2:	6e 5f       	subi	r22, 0xFE	; 254
    11a4:	7f 4f       	sbci	r23, 0xFF	; 255
    11a6:	80 91 8b 05 	lds	r24, 0x058B	; 0x80058b <cur_line>
    11aa:	88 2f       	mov	r24, r24
    11ac:	90 e0       	ldi	r25, 0x00	; 0
    11ae:	02 96       	adiw	r24, 0x02	; 2
    11b0:	88 0f       	add	r24, r24
    11b2:	99 1f       	adc	r25, r25
    11b4:	88 0f       	add	r24, r24
    11b6:	99 1f       	adc	r25, r25
    11b8:	81 56       	subi	r24, 0x61	; 97
    11ba:	9a 4f       	sbci	r25, 0xFA	; 250
    11bc:	fc 01       	movw	r30, r24
    11be:	20 81       	ld	r18, Z
    11c0:	31 81       	ldd	r19, Z+1	; 0x01
    11c2:	42 81       	ldd	r20, Z+2	; 0x02
    11c4:	53 81       	ldd	r21, Z+3	; 0x03
    11c6:	80 91 96 05 	lds	r24, 0x0596	; 0x800596 <temp_line+0x8>
    11ca:	90 91 97 05 	lds	r25, 0x0597	; 0x800597 <temp_line+0x9>
    11ce:	a0 91 98 05 	lds	r26, 0x0598	; 0x800598 <temp_line+0xa>
    11d2:	b0 91 99 05 	lds	r27, 0x0599	; 0x800599 <temp_line+0xb>
    11d6:	82 2b       	or	r24, r18
    11d8:	93 2b       	or	r25, r19
    11da:	a4 2b       	or	r26, r20
    11dc:	b5 2b       	or	r27, r21
    11de:	9b 01       	movw	r18, r22
    11e0:	22 0f       	add	r18, r18
    11e2:	33 1f       	adc	r19, r19
    11e4:	22 0f       	add	r18, r18
    11e6:	33 1f       	adc	r19, r19
    11e8:	21 56       	subi	r18, 0x61	; 97
    11ea:	3a 4f       	sbci	r19, 0xFA	; 250
    11ec:	f9 01       	movw	r30, r18
    11ee:	80 83       	st	Z, r24
    11f0:	91 83       	std	Z+1, r25	; 0x01
    11f2:	a2 83       	std	Z+2, r26	; 0x02
    11f4:	b3 83       	std	Z+3, r27	; 0x03
    11f6:	80 91 8b 05 	lds	r24, 0x058B	; 0x80058b <cur_line>
    11fa:	88 2f       	mov	r24, r24
    11fc:	90 e0       	ldi	r25, 0x00	; 0
    11fe:	bc 01       	movw	r22, r24
    1200:	6d 5f       	subi	r22, 0xFD	; 253
    1202:	7f 4f       	sbci	r23, 0xFF	; 255
    1204:	80 91 8b 05 	lds	r24, 0x058B	; 0x80058b <cur_line>
    1208:	88 2f       	mov	r24, r24
    120a:	90 e0       	ldi	r25, 0x00	; 0
    120c:	03 96       	adiw	r24, 0x03	; 3
    120e:	88 0f       	add	r24, r24
    1210:	99 1f       	adc	r25, r25
    1212:	88 0f       	add	r24, r24
    1214:	99 1f       	adc	r25, r25
    1216:	81 56       	subi	r24, 0x61	; 97
    1218:	9a 4f       	sbci	r25, 0xFA	; 250
    121a:	fc 01       	movw	r30, r24
    121c:	20 81       	ld	r18, Z
    121e:	31 81       	ldd	r19, Z+1	; 0x01
    1220:	42 81       	ldd	r20, Z+2	; 0x02
    1222:	53 81       	ldd	r21, Z+3	; 0x03
    1224:	80 91 9a 05 	lds	r24, 0x059A	; 0x80059a <temp_line+0xc>
    1228:	90 91 9b 05 	lds	r25, 0x059B	; 0x80059b <temp_line+0xd>
    122c:	a0 91 9c 05 	lds	r26, 0x059C	; 0x80059c <temp_line+0xe>
    1230:	b0 91 9d 05 	lds	r27, 0x059D	; 0x80059d <temp_line+0xf>
    1234:	82 2b       	or	r24, r18
    1236:	93 2b       	or	r25, r19
    1238:	a4 2b       	or	r26, r20
    123a:	b5 2b       	or	r27, r21
    123c:	9b 01       	movw	r18, r22
    123e:	22 0f       	add	r18, r18
    1240:	33 1f       	adc	r19, r19
    1242:	22 0f       	add	r18, r18
    1244:	33 1f       	adc	r19, r19
    1246:	21 56       	subi	r18, 0x61	; 97
    1248:	3a 4f       	sbci	r19, 0xFA	; 250
    124a:	f9 01       	movw	r30, r18
    124c:	80 83       	st	Z, r24
    124e:	91 83       	std	Z+1, r25	; 0x01
    1250:	a2 83       	std	Z+2, r26	; 0x02
    1252:	b3 83       	std	Z+3, r27	; 0x03
    1254:	00 00       	nop
    1256:	0f 90       	pop	r0
    1258:	0f 90       	pop	r0
    125a:	df 91       	pop	r29
    125c:	cf 91       	pop	r28
    125e:	ff 91       	pop	r31
    1260:	ef 91       	pop	r30
    1262:	bf 91       	pop	r27
    1264:	af 91       	pop	r26
    1266:	9f 91       	pop	r25
    1268:	8f 91       	pop	r24
    126a:	7f 91       	pop	r23
    126c:	6f 91       	pop	r22
    126e:	5f 91       	pop	r21
    1270:	4f 91       	pop	r20
    1272:	3f 91       	pop	r19
    1274:	2f 91       	pop	r18
    1276:	0f 90       	pop	r0
    1278:	00 92 5b 00 	sts	0x005B, r0	; 0x80005b <__TEXT_REGION_LENGTH__+0x7e005b>
    127c:	0f 90       	pop	r0
    127e:	00 92 5f 00 	sts	0x005F, r0	; 0x80005f <__TEXT_REGION_LENGTH__+0x7e005f>
    1282:	0f 90       	pop	r0
    1284:	1f 90       	pop	r1
    1286:	18 95       	reti

00001288 <__vector_8>:
    1288:	1f 92       	push	r1
    128a:	0f 92       	push	r0
    128c:	00 90 5f 00 	lds	r0, 0x005F	; 0x80005f <__TEXT_REGION_LENGTH__+0x7e005f>
    1290:	0f 92       	push	r0
    1292:	11 24       	eor	r1, r1
    1294:	00 90 5b 00 	lds	r0, 0x005B	; 0x80005b <__TEXT_REGION_LENGTH__+0x7e005b>
    1298:	0f 92       	push	r0
    129a:	2f 93       	push	r18
    129c:	3f 93       	push	r19
    129e:	4f 93       	push	r20
    12a0:	5f 93       	push	r21
    12a2:	6f 93       	push	r22
    12a4:	7f 93       	push	r23
    12a6:	8f 93       	push	r24
    12a8:	9f 93       	push	r25
    12aa:	af 93       	push	r26
    12ac:	bf 93       	push	r27
    12ae:	ef 93       	push	r30
    12b0:	ff 93       	push	r31
    12b2:	cf 93       	push	r28
    12b4:	df 93       	push	r29
    12b6:	00 d0       	rcall	.+0      	; 0x12b8 <__vector_8+0x30>
    12b8:	cd b7       	in	r28, 0x3d	; 61
    12ba:	de b7       	in	r29, 0x3e	; 62
    12bc:	1a 82       	std	Y+2, r1	; 0x02
    12be:	19 82       	std	Y+1, r1	; 0x01
    12c0:	1f c0       	rjmp	.+62     	; 0x1300 <__vector_8+0x78>
    12c2:	89 81       	ldd	r24, Y+1	; 0x01
    12c4:	9a 81       	ldd	r25, Y+2	; 0x02
    12c6:	88 0f       	add	r24, r24
    12c8:	99 1f       	adc	r25, r25
    12ca:	88 0f       	add	r24, r24
    12cc:	99 1f       	adc	r25, r25
    12ce:	80 50       	subi	r24, 0x00	; 0
    12d0:	9f 4f       	sbci	r25, 0xFF	; 255
    12d2:	fc 01       	movw	r30, r24
    12d4:	80 81       	ld	r24, Z
    12d6:	91 81       	ldd	r25, Z+1	; 0x01
    12d8:	a2 81       	ldd	r26, Z+2	; 0x02
    12da:	b3 81       	ldd	r27, Z+3	; 0x03
    12dc:	29 81       	ldd	r18, Y+1	; 0x01
    12de:	3a 81       	ldd	r19, Y+2	; 0x02
    12e0:	22 0f       	add	r18, r18
    12e2:	33 1f       	adc	r19, r19
    12e4:	22 0f       	add	r18, r18
    12e6:	33 1f       	adc	r19, r19
    12e8:	21 56       	subi	r18, 0x61	; 97
    12ea:	3a 4f       	sbci	r19, 0xFA	; 250
    12ec:	f9 01       	movw	r30, r18
    12ee:	80 83       	st	Z, r24
    12f0:	91 83       	std	Z+1, r25	; 0x01
    12f2:	a2 83       	std	Z+2, r26	; 0x02
    12f4:	b3 83       	std	Z+3, r27	; 0x03
    12f6:	89 81       	ldd	r24, Y+1	; 0x01
    12f8:	9a 81       	ldd	r25, Y+2	; 0x02
    12fa:	01 96       	adiw	r24, 0x01	; 1
    12fc:	9a 83       	std	Y+2, r25	; 0x02
    12fe:	89 83       	std	Y+1, r24	; 0x01
    1300:	89 81       	ldd	r24, Y+1	; 0x01
    1302:	9a 81       	ldd	r25, Y+2	; 0x02
    1304:	80 97       	sbiw	r24, 0x20	; 32
    1306:	ec f2       	brlt	.-70     	; 0x12c2 <__vector_8+0x3a>
    1308:	80 91 8c 05 	lds	r24, 0x058C	; 0x80058c <cur_col>
    130c:	8f 5f       	subi	r24, 0xFF	; 255
    130e:	80 93 8c 05 	sts	0x058C, r24	; 0x80058c <cur_col>
    1312:	5d da       	rcall	.-2886   	; 0x7ce <tetriminos_to_temp_line>
    1314:	bd d9       	rcall	.-3206   	; 0x690 <Collision>
    1316:	81 30       	cpi	r24, 0x01	; 1
    1318:	29 f4       	brne	.+10     	; 0x1324 <__vector_8+0x9c>
    131a:	80 91 8c 05 	lds	r24, 0x058C	; 0x80058c <cur_col>
    131e:	81 50       	subi	r24, 0x01	; 1
    1320:	80 93 8c 05 	sts	0x058C, r24	; 0x80058c <cur_col>
    1324:	54 da       	rcall	.-2904   	; 0x7ce <tetriminos_to_temp_line>
    1326:	80 91 8b 05 	lds	r24, 0x058B	; 0x80058b <cur_line>
    132a:	68 2f       	mov	r22, r24
    132c:	70 e0       	ldi	r23, 0x00	; 0
    132e:	80 91 8b 05 	lds	r24, 0x058B	; 0x80058b <cur_line>
    1332:	88 2f       	mov	r24, r24
    1334:	90 e0       	ldi	r25, 0x00	; 0
    1336:	88 0f       	add	r24, r24
    1338:	99 1f       	adc	r25, r25
    133a:	88 0f       	add	r24, r24
    133c:	99 1f       	adc	r25, r25
    133e:	81 56       	subi	r24, 0x61	; 97
    1340:	9a 4f       	sbci	r25, 0xFA	; 250
    1342:	fc 01       	movw	r30, r24
    1344:	20 81       	ld	r18, Z
    1346:	31 81       	ldd	r19, Z+1	; 0x01
    1348:	42 81       	ldd	r20, Z+2	; 0x02
    134a:	53 81       	ldd	r21, Z+3	; 0x03
    134c:	80 91 8e 05 	lds	r24, 0x058E	; 0x80058e <temp_line>
    1350:	90 91 8f 05 	lds	r25, 0x058F	; 0x80058f <temp_line+0x1>
    1354:	a0 91 90 05 	lds	r26, 0x0590	; 0x800590 <temp_line+0x2>
    1358:	b0 91 91 05 	lds	r27, 0x0591	; 0x800591 <temp_line+0x3>
    135c:	82 2b       	or	r24, r18
    135e:	93 2b       	or	r25, r19
    1360:	a4 2b       	or	r26, r20
    1362:	b5 2b       	or	r27, r21
    1364:	9b 01       	movw	r18, r22
    1366:	22 0f       	add	r18, r18
    1368:	33 1f       	adc	r19, r19
    136a:	22 0f       	add	r18, r18
    136c:	33 1f       	adc	r19, r19
    136e:	21 56       	subi	r18, 0x61	; 97
    1370:	3a 4f       	sbci	r19, 0xFA	; 250
    1372:	f9 01       	movw	r30, r18
    1374:	80 83       	st	Z, r24
    1376:	91 83       	std	Z+1, r25	; 0x01
    1378:	a2 83       	std	Z+2, r26	; 0x02
    137a:	b3 83       	std	Z+3, r27	; 0x03
    137c:	80 91 8b 05 	lds	r24, 0x058B	; 0x80058b <cur_line>
    1380:	88 2f       	mov	r24, r24
    1382:	90 e0       	ldi	r25, 0x00	; 0
    1384:	bc 01       	movw	r22, r24
    1386:	6f 5f       	subi	r22, 0xFF	; 255
    1388:	7f 4f       	sbci	r23, 0xFF	; 255
    138a:	80 91 8b 05 	lds	r24, 0x058B	; 0x80058b <cur_line>
    138e:	88 2f       	mov	r24, r24
    1390:	90 e0       	ldi	r25, 0x00	; 0
    1392:	01 96       	adiw	r24, 0x01	; 1
    1394:	88 0f       	add	r24, r24
    1396:	99 1f       	adc	r25, r25
    1398:	88 0f       	add	r24, r24
    139a:	99 1f       	adc	r25, r25
    139c:	81 56       	subi	r24, 0x61	; 97
    139e:	9a 4f       	sbci	r25, 0xFA	; 250
    13a0:	fc 01       	movw	r30, r24
    13a2:	20 81       	ld	r18, Z
    13a4:	31 81       	ldd	r19, Z+1	; 0x01
    13a6:	42 81       	ldd	r20, Z+2	; 0x02
    13a8:	53 81       	ldd	r21, Z+3	; 0x03
    13aa:	80 91 92 05 	lds	r24, 0x0592	; 0x800592 <temp_line+0x4>
    13ae:	90 91 93 05 	lds	r25, 0x0593	; 0x800593 <temp_line+0x5>
    13b2:	a0 91 94 05 	lds	r26, 0x0594	; 0x800594 <temp_line+0x6>
    13b6:	b0 91 95 05 	lds	r27, 0x0595	; 0x800595 <temp_line+0x7>
    13ba:	82 2b       	or	r24, r18
    13bc:	93 2b       	or	r25, r19
    13be:	a4 2b       	or	r26, r20
    13c0:	b5 2b       	or	r27, r21
    13c2:	9b 01       	movw	r18, r22
    13c4:	22 0f       	add	r18, r18
    13c6:	33 1f       	adc	r19, r19
    13c8:	22 0f       	add	r18, r18
    13ca:	33 1f       	adc	r19, r19
    13cc:	21 56       	subi	r18, 0x61	; 97
    13ce:	3a 4f       	sbci	r19, 0xFA	; 250
    13d0:	f9 01       	movw	r30, r18
    13d2:	80 83       	st	Z, r24
    13d4:	91 83       	std	Z+1, r25	; 0x01
    13d6:	a2 83       	std	Z+2, r26	; 0x02
    13d8:	b3 83       	std	Z+3, r27	; 0x03
    13da:	80 91 8b 05 	lds	r24, 0x058B	; 0x80058b <cur_line>
    13de:	88 2f       	mov	r24, r24
    13e0:	90 e0       	ldi	r25, 0x00	; 0
    13e2:	bc 01       	movw	r22, r24
    13e4:	6e 5f       	subi	r22, 0xFE	; 254
    13e6:	7f 4f       	sbci	r23, 0xFF	; 255
    13e8:	80 91 8b 05 	lds	r24, 0x058B	; 0x80058b <cur_line>
    13ec:	88 2f       	mov	r24, r24
    13ee:	90 e0       	ldi	r25, 0x00	; 0
    13f0:	02 96       	adiw	r24, 0x02	; 2
    13f2:	88 0f       	add	r24, r24
    13f4:	99 1f       	adc	r25, r25
    13f6:	88 0f       	add	r24, r24
    13f8:	99 1f       	adc	r25, r25
    13fa:	81 56       	subi	r24, 0x61	; 97
    13fc:	9a 4f       	sbci	r25, 0xFA	; 250
    13fe:	fc 01       	movw	r30, r24
    1400:	20 81       	ld	r18, Z
    1402:	31 81       	ldd	r19, Z+1	; 0x01
    1404:	42 81       	ldd	r20, Z+2	; 0x02
    1406:	53 81       	ldd	r21, Z+3	; 0x03
    1408:	80 91 96 05 	lds	r24, 0x0596	; 0x800596 <temp_line+0x8>
    140c:	90 91 97 05 	lds	r25, 0x0597	; 0x800597 <temp_line+0x9>
    1410:	a0 91 98 05 	lds	r26, 0x0598	; 0x800598 <temp_line+0xa>
    1414:	b0 91 99 05 	lds	r27, 0x0599	; 0x800599 <temp_line+0xb>
    1418:	82 2b       	or	r24, r18
    141a:	93 2b       	or	r25, r19
    141c:	a4 2b       	or	r26, r20
    141e:	b5 2b       	or	r27, r21
    1420:	9b 01       	movw	r18, r22
    1422:	22 0f       	add	r18, r18
    1424:	33 1f       	adc	r19, r19
    1426:	22 0f       	add	r18, r18
    1428:	33 1f       	adc	r19, r19
    142a:	21 56       	subi	r18, 0x61	; 97
    142c:	3a 4f       	sbci	r19, 0xFA	; 250
    142e:	f9 01       	movw	r30, r18
    1430:	80 83       	st	Z, r24
    1432:	91 83       	std	Z+1, r25	; 0x01
    1434:	a2 83       	std	Z+2, r26	; 0x02
    1436:	b3 83       	std	Z+3, r27	; 0x03
    1438:	80 91 8b 05 	lds	r24, 0x058B	; 0x80058b <cur_line>
    143c:	88 2f       	mov	r24, r24
    143e:	90 e0       	ldi	r25, 0x00	; 0
    1440:	bc 01       	movw	r22, r24
    1442:	6d 5f       	subi	r22, 0xFD	; 253
    1444:	7f 4f       	sbci	r23, 0xFF	; 255
    1446:	80 91 8b 05 	lds	r24, 0x058B	; 0x80058b <cur_line>
    144a:	88 2f       	mov	r24, r24
    144c:	90 e0       	ldi	r25, 0x00	; 0
    144e:	03 96       	adiw	r24, 0x03	; 3
    1450:	88 0f       	add	r24, r24
    1452:	99 1f       	adc	r25, r25
    1454:	88 0f       	add	r24, r24
    1456:	99 1f       	adc	r25, r25
    1458:	81 56       	subi	r24, 0x61	; 97
    145a:	9a 4f       	sbci	r25, 0xFA	; 250
    145c:	fc 01       	movw	r30, r24
    145e:	20 81       	ld	r18, Z
    1460:	31 81       	ldd	r19, Z+1	; 0x01
    1462:	42 81       	ldd	r20, Z+2	; 0x02
    1464:	53 81       	ldd	r21, Z+3	; 0x03
    1466:	80 91 9a 05 	lds	r24, 0x059A	; 0x80059a <temp_line+0xc>
    146a:	90 91 9b 05 	lds	r25, 0x059B	; 0x80059b <temp_line+0xd>
    146e:	a0 91 9c 05 	lds	r26, 0x059C	; 0x80059c <temp_line+0xe>
    1472:	b0 91 9d 05 	lds	r27, 0x059D	; 0x80059d <temp_line+0xf>
    1476:	82 2b       	or	r24, r18
    1478:	93 2b       	or	r25, r19
    147a:	a4 2b       	or	r26, r20
    147c:	b5 2b       	or	r27, r21
    147e:	9b 01       	movw	r18, r22
    1480:	22 0f       	add	r18, r18
    1482:	33 1f       	adc	r19, r19
    1484:	22 0f       	add	r18, r18
    1486:	33 1f       	adc	r19, r19
    1488:	21 56       	subi	r18, 0x61	; 97
    148a:	3a 4f       	sbci	r19, 0xFA	; 250
    148c:	f9 01       	movw	r30, r18
    148e:	80 83       	st	Z, r24
    1490:	91 83       	std	Z+1, r25	; 0x01
    1492:	a2 83       	std	Z+2, r26	; 0x02
    1494:	b3 83       	std	Z+3, r27	; 0x03
    1496:	00 00       	nop
    1498:	0f 90       	pop	r0
    149a:	0f 90       	pop	r0
    149c:	df 91       	pop	r29
    149e:	cf 91       	pop	r28
    14a0:	ff 91       	pop	r31
    14a2:	ef 91       	pop	r30
    14a4:	bf 91       	pop	r27
    14a6:	af 91       	pop	r26
    14a8:	9f 91       	pop	r25
    14aa:	8f 91       	pop	r24
    14ac:	7f 91       	pop	r23
    14ae:	6f 91       	pop	r22
    14b0:	5f 91       	pop	r21
    14b2:	4f 91       	pop	r20
    14b4:	3f 91       	pop	r19
    14b6:	2f 91       	pop	r18
    14b8:	0f 90       	pop	r0
    14ba:	00 92 5b 00 	sts	0x005B, r0	; 0x80005b <__TEXT_REGION_LENGTH__+0x7e005b>
    14be:	0f 90       	pop	r0
    14c0:	00 92 5f 00 	sts	0x005F, r0	; 0x80005f <__TEXT_REGION_LENGTH__+0x7e005f>
    14c4:	0f 90       	pop	r0
    14c6:	1f 90       	pop	r1
    14c8:	18 95       	reti

000014ca <__vector_12>:
    14ca:	1f 92       	push	r1
    14cc:	0f 92       	push	r0
    14ce:	00 90 5f 00 	lds	r0, 0x005F	; 0x80005f <__TEXT_REGION_LENGTH__+0x7e005f>
    14d2:	0f 92       	push	r0
    14d4:	11 24       	eor	r1, r1
    14d6:	00 90 5b 00 	lds	r0, 0x005B	; 0x80005b <__TEXT_REGION_LENGTH__+0x7e005b>
    14da:	0f 92       	push	r0
    14dc:	2f 93       	push	r18
    14de:	3f 93       	push	r19
    14e0:	4f 93       	push	r20
    14e2:	5f 93       	push	r21
    14e4:	6f 93       	push	r22
    14e6:	7f 93       	push	r23
    14e8:	8f 93       	push	r24
    14ea:	9f 93       	push	r25
    14ec:	af 93       	push	r26
    14ee:	bf 93       	push	r27
    14f0:	ef 93       	push	r30
    14f2:	ff 93       	push	r31
    14f4:	cf 93       	push	r28
    14f6:	df 93       	push	r29
    14f8:	00 d0       	rcall	.+0      	; 0x14fa <__vector_12+0x30>
    14fa:	00 d0       	rcall	.+0      	; 0x14fc <__vector_12+0x32>
    14fc:	cd b7       	in	r28, 0x3d	; 61
    14fe:	de b7       	in	r29, 0x3e	; 62
    1500:	80 91 80 01 	lds	r24, 0x0180	; 0x800180 <new_block>
    1504:	88 23       	and	r24, r24
    1506:	09 f0       	breq	.+2      	; 0x150a <__vector_12+0x40>
    1508:	cd c1       	rjmp	.+922    	; 0x18a4 <__vector_12+0x3da>
    150a:	1a 82       	std	Y+2, r1	; 0x02
    150c:	19 82       	std	Y+1, r1	; 0x01
    150e:	1f c0       	rjmp	.+62     	; 0x154e <__vector_12+0x84>
    1510:	89 81       	ldd	r24, Y+1	; 0x01
    1512:	9a 81       	ldd	r25, Y+2	; 0x02
    1514:	88 0f       	add	r24, r24
    1516:	99 1f       	adc	r25, r25
    1518:	88 0f       	add	r24, r24
    151a:	99 1f       	adc	r25, r25
    151c:	80 50       	subi	r24, 0x00	; 0
    151e:	9f 4f       	sbci	r25, 0xFF	; 255
    1520:	fc 01       	movw	r30, r24
    1522:	80 81       	ld	r24, Z
    1524:	91 81       	ldd	r25, Z+1	; 0x01
    1526:	a2 81       	ldd	r26, Z+2	; 0x02
    1528:	b3 81       	ldd	r27, Z+3	; 0x03
    152a:	29 81       	ldd	r18, Y+1	; 0x01
    152c:	3a 81       	ldd	r19, Y+2	; 0x02
    152e:	22 0f       	add	r18, r18
    1530:	33 1f       	adc	r19, r19
    1532:	22 0f       	add	r18, r18
    1534:	33 1f       	adc	r19, r19
    1536:	21 56       	subi	r18, 0x61	; 97
    1538:	3a 4f       	sbci	r19, 0xFA	; 250
    153a:	f9 01       	movw	r30, r18
    153c:	80 83       	st	Z, r24
    153e:	91 83       	std	Z+1, r25	; 0x01
    1540:	a2 83       	std	Z+2, r26	; 0x02
    1542:	b3 83       	std	Z+3, r27	; 0x03
    1544:	89 81       	ldd	r24, Y+1	; 0x01
    1546:	9a 81       	ldd	r25, Y+2	; 0x02
    1548:	01 96       	adiw	r24, 0x01	; 1
    154a:	9a 83       	std	Y+2, r25	; 0x02
    154c:	89 83       	std	Y+1, r24	; 0x01
    154e:	89 81       	ldd	r24, Y+1	; 0x01
    1550:	9a 81       	ldd	r25, Y+2	; 0x02
    1552:	80 97       	sbiw	r24, 0x20	; 32
    1554:	ec f2       	brlt	.-70     	; 0x1510 <__vector_12+0x46>
    1556:	80 91 8b 05 	lds	r24, 0x058B	; 0x80058b <cur_line>
    155a:	8f 5f       	subi	r24, 0xFF	; 255
    155c:	80 93 8b 05 	sts	0x058B, r24	; 0x80058b <cur_line>
    1560:	97 d8       	rcall	.-3794   	; 0x690 <Collision>
    1562:	81 30       	cpi	r24, 0x01	; 1
    1564:	09 f0       	breq	.+2      	; 0x1568 <__vector_12+0x9e>
    1566:	c0 c0       	rjmp	.+384    	; 0x16e8 <__vector_12+0x21e>
    1568:	80 91 8b 05 	lds	r24, 0x058B	; 0x80058b <cur_line>
    156c:	81 50       	subi	r24, 0x01	; 1
    156e:	80 93 8b 05 	sts	0x058B, r24	; 0x80058b <cur_line>
    1572:	80 91 8b 05 	lds	r24, 0x058B	; 0x80058b <cur_line>
    1576:	68 2f       	mov	r22, r24
    1578:	70 e0       	ldi	r23, 0x00	; 0
    157a:	80 91 8b 05 	lds	r24, 0x058B	; 0x80058b <cur_line>
    157e:	88 2f       	mov	r24, r24
    1580:	90 e0       	ldi	r25, 0x00	; 0
    1582:	88 0f       	add	r24, r24
    1584:	99 1f       	adc	r25, r25
    1586:	88 0f       	add	r24, r24
    1588:	99 1f       	adc	r25, r25
    158a:	80 50       	subi	r24, 0x00	; 0
    158c:	9f 4f       	sbci	r25, 0xFF	; 255
    158e:	fc 01       	movw	r30, r24
    1590:	20 81       	ld	r18, Z
    1592:	31 81       	ldd	r19, Z+1	; 0x01
    1594:	42 81       	ldd	r20, Z+2	; 0x02
    1596:	53 81       	ldd	r21, Z+3	; 0x03
    1598:	80 91 8e 05 	lds	r24, 0x058E	; 0x80058e <temp_line>
    159c:	90 91 8f 05 	lds	r25, 0x058F	; 0x80058f <temp_line+0x1>
    15a0:	a0 91 90 05 	lds	r26, 0x0590	; 0x800590 <temp_line+0x2>
    15a4:	b0 91 91 05 	lds	r27, 0x0591	; 0x800591 <temp_line+0x3>
    15a8:	82 2b       	or	r24, r18
    15aa:	93 2b       	or	r25, r19
    15ac:	a4 2b       	or	r26, r20
    15ae:	b5 2b       	or	r27, r21
    15b0:	9b 01       	movw	r18, r22
    15b2:	22 0f       	add	r18, r18
    15b4:	33 1f       	adc	r19, r19
    15b6:	22 0f       	add	r18, r18
    15b8:	33 1f       	adc	r19, r19
    15ba:	20 50       	subi	r18, 0x00	; 0
    15bc:	3f 4f       	sbci	r19, 0xFF	; 255
    15be:	f9 01       	movw	r30, r18
    15c0:	80 83       	st	Z, r24
    15c2:	91 83       	std	Z+1, r25	; 0x01
    15c4:	a2 83       	std	Z+2, r26	; 0x02
    15c6:	b3 83       	std	Z+3, r27	; 0x03
    15c8:	80 91 8b 05 	lds	r24, 0x058B	; 0x80058b <cur_line>
    15cc:	88 2f       	mov	r24, r24
    15ce:	90 e0       	ldi	r25, 0x00	; 0
    15d0:	bc 01       	movw	r22, r24
    15d2:	6f 5f       	subi	r22, 0xFF	; 255
    15d4:	7f 4f       	sbci	r23, 0xFF	; 255
    15d6:	80 91 8b 05 	lds	r24, 0x058B	; 0x80058b <cur_line>
    15da:	88 2f       	mov	r24, r24
    15dc:	90 e0       	ldi	r25, 0x00	; 0
    15de:	01 96       	adiw	r24, 0x01	; 1
    15e0:	88 0f       	add	r24, r24
    15e2:	99 1f       	adc	r25, r25
    15e4:	88 0f       	add	r24, r24
    15e6:	99 1f       	adc	r25, r25
    15e8:	80 50       	subi	r24, 0x00	; 0
    15ea:	9f 4f       	sbci	r25, 0xFF	; 255
    15ec:	fc 01       	movw	r30, r24
    15ee:	20 81       	ld	r18, Z
    15f0:	31 81       	ldd	r19, Z+1	; 0x01
    15f2:	42 81       	ldd	r20, Z+2	; 0x02
    15f4:	53 81       	ldd	r21, Z+3	; 0x03
    15f6:	80 91 92 05 	lds	r24, 0x0592	; 0x800592 <temp_line+0x4>
    15fa:	90 91 93 05 	lds	r25, 0x0593	; 0x800593 <temp_line+0x5>
    15fe:	a0 91 94 05 	lds	r26, 0x0594	; 0x800594 <temp_line+0x6>
    1602:	b0 91 95 05 	lds	r27, 0x0595	; 0x800595 <temp_line+0x7>
    1606:	82 2b       	or	r24, r18
    1608:	93 2b       	or	r25, r19
    160a:	a4 2b       	or	r26, r20
    160c:	b5 2b       	or	r27, r21
    160e:	9b 01       	movw	r18, r22
    1610:	22 0f       	add	r18, r18
    1612:	33 1f       	adc	r19, r19
    1614:	22 0f       	add	r18, r18
    1616:	33 1f       	adc	r19, r19
    1618:	20 50       	subi	r18, 0x00	; 0
    161a:	3f 4f       	sbci	r19, 0xFF	; 255
    161c:	f9 01       	movw	r30, r18
    161e:	80 83       	st	Z, r24
    1620:	91 83       	std	Z+1, r25	; 0x01
    1622:	a2 83       	std	Z+2, r26	; 0x02
    1624:	b3 83       	std	Z+3, r27	; 0x03
    1626:	80 91 8b 05 	lds	r24, 0x058B	; 0x80058b <cur_line>
    162a:	88 2f       	mov	r24, r24
    162c:	90 e0       	ldi	r25, 0x00	; 0
    162e:	bc 01       	movw	r22, r24
    1630:	6e 5f       	subi	r22, 0xFE	; 254
    1632:	7f 4f       	sbci	r23, 0xFF	; 255
    1634:	80 91 8b 05 	lds	r24, 0x058B	; 0x80058b <cur_line>
    1638:	88 2f       	mov	r24, r24
    163a:	90 e0       	ldi	r25, 0x00	; 0
    163c:	02 96       	adiw	r24, 0x02	; 2
    163e:	88 0f       	add	r24, r24
    1640:	99 1f       	adc	r25, r25
    1642:	88 0f       	add	r24, r24
    1644:	99 1f       	adc	r25, r25
    1646:	80 50       	subi	r24, 0x00	; 0
    1648:	9f 4f       	sbci	r25, 0xFF	; 255
    164a:	fc 01       	movw	r30, r24
    164c:	20 81       	ld	r18, Z
    164e:	31 81       	ldd	r19, Z+1	; 0x01
    1650:	42 81       	ldd	r20, Z+2	; 0x02
    1652:	53 81       	ldd	r21, Z+3	; 0x03
    1654:	80 91 96 05 	lds	r24, 0x0596	; 0x800596 <temp_line+0x8>
    1658:	90 91 97 05 	lds	r25, 0x0597	; 0x800597 <temp_line+0x9>
    165c:	a0 91 98 05 	lds	r26, 0x0598	; 0x800598 <temp_line+0xa>
    1660:	b0 91 99 05 	lds	r27, 0x0599	; 0x800599 <temp_line+0xb>
    1664:	82 2b       	or	r24, r18
    1666:	93 2b       	or	r25, r19
    1668:	a4 2b       	or	r26, r20
    166a:	b5 2b       	or	r27, r21
    166c:	9b 01       	movw	r18, r22
    166e:	22 0f       	add	r18, r18
    1670:	33 1f       	adc	r19, r19
    1672:	22 0f       	add	r18, r18
    1674:	33 1f       	adc	r19, r19
    1676:	20 50       	subi	r18, 0x00	; 0
    1678:	3f 4f       	sbci	r19, 0xFF	; 255
    167a:	f9 01       	movw	r30, r18
    167c:	80 83       	st	Z, r24
    167e:	91 83       	std	Z+1, r25	; 0x01
    1680:	a2 83       	std	Z+2, r26	; 0x02
    1682:	b3 83       	std	Z+3, r27	; 0x03
    1684:	80 91 8b 05 	lds	r24, 0x058B	; 0x80058b <cur_line>
    1688:	88 2f       	mov	r24, r24
    168a:	90 e0       	ldi	r25, 0x00	; 0
    168c:	bc 01       	movw	r22, r24
    168e:	6d 5f       	subi	r22, 0xFD	; 253
    1690:	7f 4f       	sbci	r23, 0xFF	; 255
    1692:	80 91 8b 05 	lds	r24, 0x058B	; 0x80058b <cur_line>
    1696:	88 2f       	mov	r24, r24
    1698:	90 e0       	ldi	r25, 0x00	; 0
    169a:	03 96       	adiw	r24, 0x03	; 3
    169c:	88 0f       	add	r24, r24
    169e:	99 1f       	adc	r25, r25
    16a0:	88 0f       	add	r24, r24
    16a2:	99 1f       	adc	r25, r25
    16a4:	80 50       	subi	r24, 0x00	; 0
    16a6:	9f 4f       	sbci	r25, 0xFF	; 255
    16a8:	fc 01       	movw	r30, r24
    16aa:	20 81       	ld	r18, Z
    16ac:	31 81       	ldd	r19, Z+1	; 0x01
    16ae:	42 81       	ldd	r20, Z+2	; 0x02
    16b0:	53 81       	ldd	r21, Z+3	; 0x03
    16b2:	80 91 9a 05 	lds	r24, 0x059A	; 0x80059a <temp_line+0xc>
    16b6:	90 91 9b 05 	lds	r25, 0x059B	; 0x80059b <temp_line+0xd>
    16ba:	a0 91 9c 05 	lds	r26, 0x059C	; 0x80059c <temp_line+0xe>
    16be:	b0 91 9d 05 	lds	r27, 0x059D	; 0x80059d <temp_line+0xf>
    16c2:	82 2b       	or	r24, r18
    16c4:	93 2b       	or	r25, r19
    16c6:	a4 2b       	or	r26, r20
    16c8:	b5 2b       	or	r27, r21
    16ca:	9b 01       	movw	r18, r22
    16cc:	22 0f       	add	r18, r18
    16ce:	33 1f       	adc	r19, r19
    16d0:	22 0f       	add	r18, r18
    16d2:	33 1f       	adc	r19, r19
    16d4:	20 50       	subi	r18, 0x00	; 0
    16d6:	3f 4f       	sbci	r19, 0xFF	; 255
    16d8:	f9 01       	movw	r30, r18
    16da:	80 83       	st	Z, r24
    16dc:	91 83       	std	Z+1, r25	; 0x01
    16de:	a2 83       	std	Z+2, r26	; 0x02
    16e0:	b3 83       	std	Z+3, r27	; 0x03
    16e2:	81 e0       	ldi	r24, 0x01	; 1
    16e4:	80 93 80 01 	sts	0x0180, r24	; 0x800180 <new_block>
    16e8:	1c 82       	std	Y+4, r1	; 0x04
    16ea:	1b 82       	std	Y+3, r1	; 0x03
    16ec:	1f c0       	rjmp	.+62     	; 0x172c <__vector_12+0x262>
    16ee:	8b 81       	ldd	r24, Y+3	; 0x03
    16f0:	9c 81       	ldd	r25, Y+4	; 0x04
    16f2:	88 0f       	add	r24, r24
    16f4:	99 1f       	adc	r25, r25
    16f6:	88 0f       	add	r24, r24
    16f8:	99 1f       	adc	r25, r25
    16fa:	80 50       	subi	r24, 0x00	; 0
    16fc:	9f 4f       	sbci	r25, 0xFF	; 255
    16fe:	fc 01       	movw	r30, r24
    1700:	80 81       	ld	r24, Z
    1702:	91 81       	ldd	r25, Z+1	; 0x01
    1704:	a2 81       	ldd	r26, Z+2	; 0x02
    1706:	b3 81       	ldd	r27, Z+3	; 0x03
    1708:	2b 81       	ldd	r18, Y+3	; 0x03
    170a:	3c 81       	ldd	r19, Y+4	; 0x04
    170c:	22 0f       	add	r18, r18
    170e:	33 1f       	adc	r19, r19
    1710:	22 0f       	add	r18, r18
    1712:	33 1f       	adc	r19, r19
    1714:	21 56       	subi	r18, 0x61	; 97
    1716:	3a 4f       	sbci	r19, 0xFA	; 250
    1718:	f9 01       	movw	r30, r18
    171a:	80 83       	st	Z, r24
    171c:	91 83       	std	Z+1, r25	; 0x01
    171e:	a2 83       	std	Z+2, r26	; 0x02
    1720:	b3 83       	std	Z+3, r27	; 0x03
    1722:	8b 81       	ldd	r24, Y+3	; 0x03
    1724:	9c 81       	ldd	r25, Y+4	; 0x04
    1726:	01 96       	adiw	r24, 0x01	; 1
    1728:	9c 83       	std	Y+4, r25	; 0x04
    172a:	8b 83       	std	Y+3, r24	; 0x03
    172c:	8b 81       	ldd	r24, Y+3	; 0x03
    172e:	9c 81       	ldd	r25, Y+4	; 0x04
    1730:	80 97       	sbiw	r24, 0x20	; 32
    1732:	ec f2       	brlt	.-70     	; 0x16ee <__vector_12+0x224>
    1734:	80 91 8b 05 	lds	r24, 0x058B	; 0x80058b <cur_line>
    1738:	68 2f       	mov	r22, r24
    173a:	70 e0       	ldi	r23, 0x00	; 0
    173c:	80 91 8b 05 	lds	r24, 0x058B	; 0x80058b <cur_line>
    1740:	88 2f       	mov	r24, r24
    1742:	90 e0       	ldi	r25, 0x00	; 0
    1744:	88 0f       	add	r24, r24
    1746:	99 1f       	adc	r25, r25
    1748:	88 0f       	add	r24, r24
    174a:	99 1f       	adc	r25, r25
    174c:	81 56       	subi	r24, 0x61	; 97
    174e:	9a 4f       	sbci	r25, 0xFA	; 250
    1750:	fc 01       	movw	r30, r24
    1752:	20 81       	ld	r18, Z
    1754:	31 81       	ldd	r19, Z+1	; 0x01
    1756:	42 81       	ldd	r20, Z+2	; 0x02
    1758:	53 81       	ldd	r21, Z+3	; 0x03
    175a:	80 91 8e 05 	lds	r24, 0x058E	; 0x80058e <temp_line>
    175e:	90 91 8f 05 	lds	r25, 0x058F	; 0x80058f <temp_line+0x1>
    1762:	a0 91 90 05 	lds	r26, 0x0590	; 0x800590 <temp_line+0x2>
    1766:	b0 91 91 05 	lds	r27, 0x0591	; 0x800591 <temp_line+0x3>
    176a:	82 2b       	or	r24, r18
    176c:	93 2b       	or	r25, r19
    176e:	a4 2b       	or	r26, r20
    1770:	b5 2b       	or	r27, r21
    1772:	9b 01       	movw	r18, r22
    1774:	22 0f       	add	r18, r18
    1776:	33 1f       	adc	r19, r19
    1778:	22 0f       	add	r18, r18
    177a:	33 1f       	adc	r19, r19
    177c:	21 56       	subi	r18, 0x61	; 97
    177e:	3a 4f       	sbci	r19, 0xFA	; 250
    1780:	f9 01       	movw	r30, r18
    1782:	80 83       	st	Z, r24
    1784:	91 83       	std	Z+1, r25	; 0x01
    1786:	a2 83       	std	Z+2, r26	; 0x02
    1788:	b3 83       	std	Z+3, r27	; 0x03
    178a:	80 91 8b 05 	lds	r24, 0x058B	; 0x80058b <cur_line>
    178e:	88 2f       	mov	r24, r24
    1790:	90 e0       	ldi	r25, 0x00	; 0
    1792:	bc 01       	movw	r22, r24
    1794:	6f 5f       	subi	r22, 0xFF	; 255
    1796:	7f 4f       	sbci	r23, 0xFF	; 255
    1798:	80 91 8b 05 	lds	r24, 0x058B	; 0x80058b <cur_line>
    179c:	88 2f       	mov	r24, r24
    179e:	90 e0       	ldi	r25, 0x00	; 0
    17a0:	01 96       	adiw	r24, 0x01	; 1
    17a2:	88 0f       	add	r24, r24
    17a4:	99 1f       	adc	r25, r25
    17a6:	88 0f       	add	r24, r24
    17a8:	99 1f       	adc	r25, r25
    17aa:	81 56       	subi	r24, 0x61	; 97
    17ac:	9a 4f       	sbci	r25, 0xFA	; 250
    17ae:	fc 01       	movw	r30, r24
    17b0:	20 81       	ld	r18, Z
    17b2:	31 81       	ldd	r19, Z+1	; 0x01
    17b4:	42 81       	ldd	r20, Z+2	; 0x02
    17b6:	53 81       	ldd	r21, Z+3	; 0x03
    17b8:	80 91 92 05 	lds	r24, 0x0592	; 0x800592 <temp_line+0x4>
    17bc:	90 91 93 05 	lds	r25, 0x0593	; 0x800593 <temp_line+0x5>
    17c0:	a0 91 94 05 	lds	r26, 0x0594	; 0x800594 <temp_line+0x6>
    17c4:	b0 91 95 05 	lds	r27, 0x0595	; 0x800595 <temp_line+0x7>
    17c8:	82 2b       	or	r24, r18
    17ca:	93 2b       	or	r25, r19
    17cc:	a4 2b       	or	r26, r20
    17ce:	b5 2b       	or	r27, r21
    17d0:	9b 01       	movw	r18, r22
    17d2:	22 0f       	add	r18, r18
    17d4:	33 1f       	adc	r19, r19
    17d6:	22 0f       	add	r18, r18
    17d8:	33 1f       	adc	r19, r19
    17da:	21 56       	subi	r18, 0x61	; 97
    17dc:	3a 4f       	sbci	r19, 0xFA	; 250
    17de:	f9 01       	movw	r30, r18
    17e0:	80 83       	st	Z, r24
    17e2:	91 83       	std	Z+1, r25	; 0x01
    17e4:	a2 83       	std	Z+2, r26	; 0x02
    17e6:	b3 83       	std	Z+3, r27	; 0x03
    17e8:	80 91 8b 05 	lds	r24, 0x058B	; 0x80058b <cur_line>
    17ec:	88 2f       	mov	r24, r24
    17ee:	90 e0       	ldi	r25, 0x00	; 0
    17f0:	bc 01       	movw	r22, r24
    17f2:	6e 5f       	subi	r22, 0xFE	; 254
    17f4:	7f 4f       	sbci	r23, 0xFF	; 255
    17f6:	80 91 8b 05 	lds	r24, 0x058B	; 0x80058b <cur_line>
    17fa:	88 2f       	mov	r24, r24
    17fc:	90 e0       	ldi	r25, 0x00	; 0
    17fe:	02 96       	adiw	r24, 0x02	; 2
    1800:	88 0f       	add	r24, r24
    1802:	99 1f       	adc	r25, r25
    1804:	88 0f       	add	r24, r24
    1806:	99 1f       	adc	r25, r25
    1808:	81 56       	subi	r24, 0x61	; 97
    180a:	9a 4f       	sbci	r25, 0xFA	; 250
    180c:	fc 01       	movw	r30, r24
    180e:	20 81       	ld	r18, Z
    1810:	31 81       	ldd	r19, Z+1	; 0x01
    1812:	42 81       	ldd	r20, Z+2	; 0x02
    1814:	53 81       	ldd	r21, Z+3	; 0x03
    1816:	80 91 96 05 	lds	r24, 0x0596	; 0x800596 <temp_line+0x8>
    181a:	90 91 97 05 	lds	r25, 0x0597	; 0x800597 <temp_line+0x9>
    181e:	a0 91 98 05 	lds	r26, 0x0598	; 0x800598 <temp_line+0xa>
    1822:	b0 91 99 05 	lds	r27, 0x0599	; 0x800599 <temp_line+0xb>
    1826:	82 2b       	or	r24, r18
    1828:	93 2b       	or	r25, r19
    182a:	a4 2b       	or	r26, r20
    182c:	b5 2b       	or	r27, r21
    182e:	9b 01       	movw	r18, r22
    1830:	22 0f       	add	r18, r18
    1832:	33 1f       	adc	r19, r19
    1834:	22 0f       	add	r18, r18
    1836:	33 1f       	adc	r19, r19
    1838:	21 56       	subi	r18, 0x61	; 97
    183a:	3a 4f       	sbci	r19, 0xFA	; 250
    183c:	f9 01       	movw	r30, r18
    183e:	80 83       	st	Z, r24
    1840:	91 83       	std	Z+1, r25	; 0x01
    1842:	a2 83       	std	Z+2, r26	; 0x02
    1844:	b3 83       	std	Z+3, r27	; 0x03
    1846:	80 91 8b 05 	lds	r24, 0x058B	; 0x80058b <cur_line>
    184a:	88 2f       	mov	r24, r24
    184c:	90 e0       	ldi	r25, 0x00	; 0
    184e:	bc 01       	movw	r22, r24
    1850:	6d 5f       	subi	r22, 0xFD	; 253
    1852:	7f 4f       	sbci	r23, 0xFF	; 255
    1854:	80 91 8b 05 	lds	r24, 0x058B	; 0x80058b <cur_line>
    1858:	88 2f       	mov	r24, r24
    185a:	90 e0       	ldi	r25, 0x00	; 0
    185c:	03 96       	adiw	r24, 0x03	; 3
    185e:	88 0f       	add	r24, r24
    1860:	99 1f       	adc	r25, r25
    1862:	88 0f       	add	r24, r24
    1864:	99 1f       	adc	r25, r25
    1866:	81 56       	subi	r24, 0x61	; 97
    1868:	9a 4f       	sbci	r25, 0xFA	; 250
    186a:	fc 01       	movw	r30, r24
    186c:	20 81       	ld	r18, Z
    186e:	31 81       	ldd	r19, Z+1	; 0x01
    1870:	42 81       	ldd	r20, Z+2	; 0x02
    1872:	53 81       	ldd	r21, Z+3	; 0x03
    1874:	80 91 9a 05 	lds	r24, 0x059A	; 0x80059a <temp_line+0xc>
    1878:	90 91 9b 05 	lds	r25, 0x059B	; 0x80059b <temp_line+0xd>
    187c:	a0 91 9c 05 	lds	r26, 0x059C	; 0x80059c <temp_line+0xe>
    1880:	b0 91 9d 05 	lds	r27, 0x059D	; 0x80059d <temp_line+0xf>
    1884:	82 2b       	or	r24, r18
    1886:	93 2b       	or	r25, r19
    1888:	a4 2b       	or	r26, r20
    188a:	b5 2b       	or	r27, r21
    188c:	9b 01       	movw	r18, r22
    188e:	22 0f       	add	r18, r18
    1890:	33 1f       	adc	r19, r19
    1892:	22 0f       	add	r18, r18
    1894:	33 1f       	adc	r19, r19
    1896:	21 56       	subi	r18, 0x61	; 97
    1898:	3a 4f       	sbci	r19, 0xFA	; 250
    189a:	f9 01       	movw	r30, r18
    189c:	80 83       	st	Z, r24
    189e:	91 83       	std	Z+1, r25	; 0x01
    18a0:	a2 83       	std	Z+2, r26	; 0x02
    18a2:	b3 83       	std	Z+3, r27	; 0x03
    18a4:	00 00       	nop
    18a6:	0f 90       	pop	r0
    18a8:	0f 90       	pop	r0
    18aa:	0f 90       	pop	r0
    18ac:	0f 90       	pop	r0
    18ae:	df 91       	pop	r29
    18b0:	cf 91       	pop	r28
    18b2:	ff 91       	pop	r31
    18b4:	ef 91       	pop	r30
    18b6:	bf 91       	pop	r27
    18b8:	af 91       	pop	r26
    18ba:	9f 91       	pop	r25
    18bc:	8f 91       	pop	r24
    18be:	7f 91       	pop	r23
    18c0:	6f 91       	pop	r22
    18c2:	5f 91       	pop	r21
    18c4:	4f 91       	pop	r20
    18c6:	3f 91       	pop	r19
    18c8:	2f 91       	pop	r18
    18ca:	0f 90       	pop	r0
    18cc:	00 92 5b 00 	sts	0x005B, r0	; 0x80005b <__TEXT_REGION_LENGTH__+0x7e005b>
    18d0:	0f 90       	pop	r0
    18d2:	00 92 5f 00 	sts	0x005F, r0	; 0x80005f <__TEXT_REGION_LENGTH__+0x7e005f>
    18d6:	0f 90       	pop	r0
    18d8:	1f 90       	pop	r1
    18da:	18 95       	reti

000018dc <clear_screen>:
    18dc:	cf 93       	push	r28
    18de:	df 93       	push	r29
    18e0:	00 d0       	rcall	.+0      	; 0x18e2 <clear_screen+0x6>
    18e2:	1f 92       	push	r1
    18e4:	cd b7       	in	r28, 0x3d	; 61
    18e6:	de b7       	in	r29, 0x3e	; 62
    18e8:	1b 82       	std	Y+3, r1	; 0x03
    18ea:	1a 82       	std	Y+2, r1	; 0x02
    18ec:	0b c0       	rjmp	.+22     	; 0x1904 <clear_screen+0x28>
    18ee:	8a 81       	ldd	r24, Y+2	; 0x02
    18f0:	9b 81       	ldd	r25, Y+3	; 0x03
    18f2:	85 57       	subi	r24, 0x75	; 117
    18f4:	9e 4f       	sbci	r25, 0xFE	; 254
    18f6:	fc 01       	movw	r30, r24
    18f8:	10 82       	st	Z, r1
    18fa:	8a 81       	ldd	r24, Y+2	; 0x02
    18fc:	9b 81       	ldd	r25, Y+3	; 0x03
    18fe:	01 96       	adiw	r24, 0x01	; 1
    1900:	9b 83       	std	Y+3, r25	; 0x03
    1902:	8a 83       	std	Y+2, r24	; 0x02
    1904:	8a 81       	ldd	r24, Y+2	; 0x02
    1906:	9b 81       	ldd	r25, Y+3	; 0x03
    1908:	81 15       	cp	r24, r1
    190a:	94 40       	sbci	r25, 0x04	; 4
    190c:	84 f3       	brlt	.-32     	; 0x18ee <clear_screen+0x12>
    190e:	19 82       	std	Y+1, r1	; 0x01
    1910:	14 c0       	rjmp	.+40     	; 0x193a <clear_screen+0x5e>
    1912:	89 81       	ldd	r24, Y+1	; 0x01
    1914:	0e 94 30 02 	call	0x460	; 0x460 <ssd1306_set_page_start>
    1918:	89 81       	ldd	r24, Y+1	; 0x01
    191a:	88 2f       	mov	r24, r24
    191c:	90 e0       	ldi	r25, 0x00	; 0
    191e:	96 95       	lsr	r25
    1920:	98 2f       	mov	r25, r24
    1922:	88 27       	eor	r24, r24
    1924:	97 95       	ror	r25
    1926:	87 95       	ror	r24
    1928:	85 57       	subi	r24, 0x75	; 117
    192a:	9e 4f       	sbci	r25, 0xFE	; 254
    192c:	60 e8       	ldi	r22, 0x80	; 128
    192e:	70 e0       	ldi	r23, 0x00	; 0
    1930:	0e 94 ae 01 	call	0x35c	; 0x35c <ssd1306_data>
    1934:	89 81       	ldd	r24, Y+1	; 0x01
    1936:	8f 5f       	subi	r24, 0xFF	; 255
    1938:	89 83       	std	Y+1, r24	; 0x01
    193a:	89 81       	ldd	r24, Y+1	; 0x01
    193c:	88 30       	cpi	r24, 0x08	; 8
    193e:	48 f3       	brcs	.-46     	; 0x1912 <clear_screen+0x36>
    1940:	80 e0       	ldi	r24, 0x00	; 0
    1942:	0e 94 43 02 	call	0x486	; 0x486 <ssd1306_set_column_addr>
    1946:	00 00       	nop
    1948:	0f 90       	pop	r0
    194a:	0f 90       	pop	r0
    194c:	0f 90       	pop	r0
    194e:	df 91       	pop	r29
    1950:	cf 91       	pop	r28
    1952:	08 95       	ret

00001954 <draw_map>:


	

void draw_map()
{
    1954:	cf 93       	push	r28
    1956:	df 93       	push	r29
    1958:	cd b7       	in	r28, 0x3d	; 61
    195a:	de b7       	in	r29, 0x3e	; 62
    195c:	c5 50       	subi	r28, 0x05	; 5
    195e:	d3 40       	sbci	r29, 0x03	; 3
    1960:	0f b6       	in	r0, 0x3f	; 63
    1962:	f8 94       	cli
    1964:	de bf       	out	0x3e, r29	; 62
    1966:	0f be       	out	0x3f, r0	; 63
    1968:	cd bf       	out	0x3d, r28	; 61
	unsigned char MAP [6][128] = {0};
    196a:	20 e0       	ldi	r18, 0x00	; 0
    196c:	33 e0       	ldi	r19, 0x03	; 3
    196e:	ce 01       	movw	r24, r28
    1970:	06 96       	adiw	r24, 0x06	; 6
    1972:	fc 01       	movw	r30, r24
    1974:	a9 01       	movw	r20, r18
    1976:	11 92       	st	Z+, r1
    1978:	41 50       	subi	r20, 0x01	; 1
    197a:	50 40       	sbci	r21, 0x00	; 0
    197c:	e1 f7       	brne	.-8      	; 0x1976 <draw_map+0x22>
	for(int i=0;i<12;i++)
    197e:	1a 82       	std	Y+2, r1	; 0x02
    1980:	19 82       	std	Y+1, r1	; 0x01
    1982:	f0 c1       	rjmp	.+992    	; 0x1d64 <draw_map+0x410>
	{
		for(int j = 0; j < 32; j++)
    1984:	1c 82       	std	Y+4, r1	; 0x04
    1986:	1b 82       	std	Y+3, r1	; 0x03
    1988:	e3 c1       	rjmp	.+966    	; 0x1d50 <draw_map+0x3fc>
		{
			if((game_board[j] & (unsigned long int)1 << i) != 0)
    198a:	8b 81       	ldd	r24, Y+3	; 0x03
    198c:	9c 81       	ldd	r25, Y+4	; 0x04
    198e:	88 0f       	add	r24, r24
    1990:	99 1f       	adc	r25, r25
    1992:	88 0f       	add	r24, r24
    1994:	99 1f       	adc	r25, r25
    1996:	81 56       	subi	r24, 0x61	; 97
    1998:	9a 4f       	sbci	r25, 0xFA	; 250
    199a:	fc 01       	movw	r30, r24
    199c:	80 81       	ld	r24, Z
    199e:	91 81       	ldd	r25, Z+1	; 0x01
    19a0:	a2 81       	ldd	r26, Z+2	; 0x02
    19a2:	b3 81       	ldd	r27, Z+3	; 0x03
    19a4:	09 80       	ldd	r0, Y+1	; 0x01
    19a6:	04 c0       	rjmp	.+8      	; 0x19b0 <draw_map+0x5c>
    19a8:	b6 95       	lsr	r27
    19aa:	a7 95       	ror	r26
    19ac:	97 95       	ror	r25
    19ae:	87 95       	ror	r24
    19b0:	0a 94       	dec	r0
    19b2:	d2 f7       	brpl	.-12     	; 0x19a8 <draw_map+0x54>
    19b4:	81 70       	andi	r24, 0x01	; 1
    19b6:	99 27       	eor	r25, r25
    19b8:	aa 27       	eor	r26, r26
    19ba:	bb 27       	eor	r27, r27
    19bc:	89 2b       	or	r24, r25
    19be:	8a 2b       	or	r24, r26
    19c0:	8b 2b       	or	r24, r27
    19c2:	09 f4       	brne	.+2      	; 0x19c6 <draw_map+0x72>
    19c4:	c0 c1       	rjmp	.+896    	; 0x1d46 <draw_map+0x3f2>
			{
				if(i % 2 == 0)
    19c6:	89 81       	ldd	r24, Y+1	; 0x01
    19c8:	9a 81       	ldd	r25, Y+2	; 0x02
    19ca:	81 70       	andi	r24, 0x01	; 1
    19cc:	99 27       	eor	r25, r25
    19ce:	89 2b       	or	r24, r25
    19d0:	09 f0       	breq	.+2      	; 0x19d4 <draw_map+0x80>
    19d2:	dd c0       	rjmp	.+442    	; 0x1b8e <draw_map+0x23a>
				{
					MAP[i/2][4*j] |= 0x0F;
    19d4:	89 81       	ldd	r24, Y+1	; 0x01
    19d6:	9a 81       	ldd	r25, Y+2	; 0x02
    19d8:	99 23       	and	r25, r25
    19da:	0c f4       	brge	.+2      	; 0x19de <draw_map+0x8a>
    19dc:	01 96       	adiw	r24, 0x01	; 1
    19de:	95 95       	asr	r25
    19e0:	87 95       	ror	r24
    19e2:	2b 81       	ldd	r18, Y+3	; 0x03
    19e4:	3c 81       	ldd	r19, Y+4	; 0x04
    19e6:	22 0f       	add	r18, r18
    19e8:	33 1f       	adc	r19, r19
    19ea:	22 0f       	add	r18, r18
    19ec:	33 1f       	adc	r19, r19
    19ee:	4b 81       	ldd	r20, Y+3	; 0x03
    19f0:	5c 81       	ldd	r21, Y+4	; 0x04
    19f2:	44 0f       	add	r20, r20
    19f4:	55 1f       	adc	r21, r21
    19f6:	44 0f       	add	r20, r20
    19f8:	55 1f       	adc	r21, r21
    19fa:	bc 01       	movw	r22, r24
    19fc:	76 95       	lsr	r23
    19fe:	76 2f       	mov	r23, r22
    1a00:	66 27       	eor	r22, r22
    1a02:	77 95       	ror	r23
    1a04:	67 95       	ror	r22
    1a06:	fe 01       	movw	r30, r28
    1a08:	31 96       	adiw	r30, 0x01	; 1
    1a0a:	6e 0f       	add	r22, r30
    1a0c:	7f 1f       	adc	r23, r31
    1a0e:	46 0f       	add	r20, r22
    1a10:	57 1f       	adc	r21, r23
    1a12:	4b 5f       	subi	r20, 0xFB	; 251
    1a14:	5f 4f       	sbci	r21, 0xFF	; 255
    1a16:	fa 01       	movw	r30, r20
    1a18:	40 81       	ld	r20, Z
    1a1a:	64 2f       	mov	r22, r20
    1a1c:	6f 60       	ori	r22, 0x0F	; 15
    1a1e:	96 95       	lsr	r25
    1a20:	98 2f       	mov	r25, r24
    1a22:	88 27       	eor	r24, r24
    1a24:	97 95       	ror	r25
    1a26:	87 95       	ror	r24
    1a28:	ae 01       	movw	r20, r28
    1a2a:	4f 5f       	subi	r20, 0xFF	; 255
    1a2c:	5f 4f       	sbci	r21, 0xFF	; 255
    1a2e:	84 0f       	add	r24, r20
    1a30:	95 1f       	adc	r25, r21
    1a32:	82 0f       	add	r24, r18
    1a34:	93 1f       	adc	r25, r19
    1a36:	05 96       	adiw	r24, 0x05	; 5
    1a38:	fc 01       	movw	r30, r24
    1a3a:	60 83       	st	Z, r22
					MAP[i/2][4*j + 1] |= 0x0F;
    1a3c:	89 81       	ldd	r24, Y+1	; 0x01
    1a3e:	9a 81       	ldd	r25, Y+2	; 0x02
    1a40:	99 23       	and	r25, r25
    1a42:	0c f4       	brge	.+2      	; 0x1a46 <draw_map+0xf2>
    1a44:	01 96       	adiw	r24, 0x01	; 1
    1a46:	95 95       	asr	r25
    1a48:	87 95       	ror	r24
    1a4a:	2b 81       	ldd	r18, Y+3	; 0x03
    1a4c:	3c 81       	ldd	r19, Y+4	; 0x04
    1a4e:	22 0f       	add	r18, r18
    1a50:	33 1f       	adc	r19, r19
    1a52:	22 0f       	add	r18, r18
    1a54:	33 1f       	adc	r19, r19
    1a56:	2f 5f       	subi	r18, 0xFF	; 255
    1a58:	3f 4f       	sbci	r19, 0xFF	; 255
    1a5a:	4b 81       	ldd	r20, Y+3	; 0x03
    1a5c:	5c 81       	ldd	r21, Y+4	; 0x04
    1a5e:	44 0f       	add	r20, r20
    1a60:	55 1f       	adc	r21, r21
    1a62:	44 0f       	add	r20, r20
    1a64:	55 1f       	adc	r21, r21
    1a66:	4f 5f       	subi	r20, 0xFF	; 255
    1a68:	5f 4f       	sbci	r21, 0xFF	; 255
    1a6a:	bc 01       	movw	r22, r24
    1a6c:	76 95       	lsr	r23
    1a6e:	76 2f       	mov	r23, r22
    1a70:	66 27       	eor	r22, r22
    1a72:	77 95       	ror	r23
    1a74:	67 95       	ror	r22
    1a76:	fe 01       	movw	r30, r28
    1a78:	31 96       	adiw	r30, 0x01	; 1
    1a7a:	6e 0f       	add	r22, r30
    1a7c:	7f 1f       	adc	r23, r31
    1a7e:	46 0f       	add	r20, r22
    1a80:	57 1f       	adc	r21, r23
    1a82:	4b 5f       	subi	r20, 0xFB	; 251
    1a84:	5f 4f       	sbci	r21, 0xFF	; 255
    1a86:	fa 01       	movw	r30, r20
    1a88:	40 81       	ld	r20, Z
    1a8a:	64 2f       	mov	r22, r20
    1a8c:	6f 60       	ori	r22, 0x0F	; 15
    1a8e:	96 95       	lsr	r25
    1a90:	98 2f       	mov	r25, r24
    1a92:	88 27       	eor	r24, r24
    1a94:	97 95       	ror	r25
    1a96:	87 95       	ror	r24
    1a98:	ae 01       	movw	r20, r28
    1a9a:	4f 5f       	subi	r20, 0xFF	; 255
    1a9c:	5f 4f       	sbci	r21, 0xFF	; 255
    1a9e:	84 0f       	add	r24, r20
    1aa0:	95 1f       	adc	r25, r21
    1aa2:	82 0f       	add	r24, r18
    1aa4:	93 1f       	adc	r25, r19
    1aa6:	05 96       	adiw	r24, 0x05	; 5
    1aa8:	fc 01       	movw	r30, r24
    1aaa:	60 83       	st	Z, r22
					MAP[i/2][4*j + 2] |= 0x0F;
    1aac:	89 81       	ldd	r24, Y+1	; 0x01
    1aae:	9a 81       	ldd	r25, Y+2	; 0x02
    1ab0:	99 23       	and	r25, r25
    1ab2:	0c f4       	brge	.+2      	; 0x1ab6 <draw_map+0x162>
    1ab4:	01 96       	adiw	r24, 0x01	; 1
    1ab6:	95 95       	asr	r25
    1ab8:	87 95       	ror	r24
    1aba:	2b 81       	ldd	r18, Y+3	; 0x03
    1abc:	3c 81       	ldd	r19, Y+4	; 0x04
    1abe:	22 0f       	add	r18, r18
    1ac0:	33 1f       	adc	r19, r19
    1ac2:	22 0f       	add	r18, r18
    1ac4:	33 1f       	adc	r19, r19
    1ac6:	2e 5f       	subi	r18, 0xFE	; 254
    1ac8:	3f 4f       	sbci	r19, 0xFF	; 255
    1aca:	4b 81       	ldd	r20, Y+3	; 0x03
    1acc:	5c 81       	ldd	r21, Y+4	; 0x04
    1ace:	44 0f       	add	r20, r20
    1ad0:	55 1f       	adc	r21, r21
    1ad2:	44 0f       	add	r20, r20
    1ad4:	55 1f       	adc	r21, r21
    1ad6:	4e 5f       	subi	r20, 0xFE	; 254
    1ad8:	5f 4f       	sbci	r21, 0xFF	; 255
    1ada:	bc 01       	movw	r22, r24
    1adc:	76 95       	lsr	r23
    1ade:	76 2f       	mov	r23, r22
    1ae0:	66 27       	eor	r22, r22
    1ae2:	77 95       	ror	r23
    1ae4:	67 95       	ror	r22
    1ae6:	fe 01       	movw	r30, r28
    1ae8:	31 96       	adiw	r30, 0x01	; 1
    1aea:	6e 0f       	add	r22, r30
    1aec:	7f 1f       	adc	r23, r31
    1aee:	46 0f       	add	r20, r22
    1af0:	57 1f       	adc	r21, r23
    1af2:	4b 5f       	subi	r20, 0xFB	; 251
    1af4:	5f 4f       	sbci	r21, 0xFF	; 255
    1af6:	fa 01       	movw	r30, r20
    1af8:	40 81       	ld	r20, Z
    1afa:	64 2f       	mov	r22, r20
    1afc:	6f 60       	ori	r22, 0x0F	; 15
    1afe:	96 95       	lsr	r25
    1b00:	98 2f       	mov	r25, r24
    1b02:	88 27       	eor	r24, r24
    1b04:	97 95       	ror	r25
    1b06:	87 95       	ror	r24
    1b08:	ae 01       	movw	r20, r28
    1b0a:	4f 5f       	subi	r20, 0xFF	; 255
    1b0c:	5f 4f       	sbci	r21, 0xFF	; 255
    1b0e:	84 0f       	add	r24, r20
    1b10:	95 1f       	adc	r25, r21
    1b12:	82 0f       	add	r24, r18
    1b14:	93 1f       	adc	r25, r19
    1b16:	05 96       	adiw	r24, 0x05	; 5
    1b18:	fc 01       	movw	r30, r24
    1b1a:	60 83       	st	Z, r22
					MAP[i/2][4*j + 3] |= 0x0F;
    1b1c:	89 81       	ldd	r24, Y+1	; 0x01
    1b1e:	9a 81       	ldd	r25, Y+2	; 0x02
    1b20:	99 23       	and	r25, r25
    1b22:	0c f4       	brge	.+2      	; 0x1b26 <draw_map+0x1d2>
    1b24:	01 96       	adiw	r24, 0x01	; 1
    1b26:	95 95       	asr	r25
    1b28:	87 95       	ror	r24
    1b2a:	2b 81       	ldd	r18, Y+3	; 0x03
    1b2c:	3c 81       	ldd	r19, Y+4	; 0x04
    1b2e:	22 0f       	add	r18, r18
    1b30:	33 1f       	adc	r19, r19
    1b32:	22 0f       	add	r18, r18
    1b34:	33 1f       	adc	r19, r19
    1b36:	2d 5f       	subi	r18, 0xFD	; 253
    1b38:	3f 4f       	sbci	r19, 0xFF	; 255
    1b3a:	4b 81       	ldd	r20, Y+3	; 0x03
    1b3c:	5c 81       	ldd	r21, Y+4	; 0x04
    1b3e:	44 0f       	add	r20, r20
    1b40:	55 1f       	adc	r21, r21
    1b42:	44 0f       	add	r20, r20
    1b44:	55 1f       	adc	r21, r21
    1b46:	4d 5f       	subi	r20, 0xFD	; 253
    1b48:	5f 4f       	sbci	r21, 0xFF	; 255
    1b4a:	bc 01       	movw	r22, r24
    1b4c:	76 95       	lsr	r23
    1b4e:	76 2f       	mov	r23, r22
    1b50:	66 27       	eor	r22, r22
    1b52:	77 95       	ror	r23
    1b54:	67 95       	ror	r22
    1b56:	fe 01       	movw	r30, r28
    1b58:	31 96       	adiw	r30, 0x01	; 1
    1b5a:	6e 0f       	add	r22, r30
    1b5c:	7f 1f       	adc	r23, r31
    1b5e:	46 0f       	add	r20, r22
    1b60:	57 1f       	adc	r21, r23
    1b62:	4b 5f       	subi	r20, 0xFB	; 251
    1b64:	5f 4f       	sbci	r21, 0xFF	; 255
    1b66:	fa 01       	movw	r30, r20
    1b68:	40 81       	ld	r20, Z
    1b6a:	64 2f       	mov	r22, r20
    1b6c:	6f 60       	ori	r22, 0x0F	; 15
    1b6e:	96 95       	lsr	r25
    1b70:	98 2f       	mov	r25, r24
    1b72:	88 27       	eor	r24, r24
    1b74:	97 95       	ror	r25
    1b76:	87 95       	ror	r24
    1b78:	ae 01       	movw	r20, r28
    1b7a:	4f 5f       	subi	r20, 0xFF	; 255
    1b7c:	5f 4f       	sbci	r21, 0xFF	; 255
    1b7e:	84 0f       	add	r24, r20
    1b80:	95 1f       	adc	r25, r21
    1b82:	82 0f       	add	r24, r18
    1b84:	93 1f       	adc	r25, r19
    1b86:	05 96       	adiw	r24, 0x05	; 5
    1b88:	fc 01       	movw	r30, r24
    1b8a:	60 83       	st	Z, r22
    1b8c:	dc c0       	rjmp	.+440    	; 0x1d46 <draw_map+0x3f2>
				}
				else
				{
					MAP[i/2][4*j] |= 0xF0;
    1b8e:	89 81       	ldd	r24, Y+1	; 0x01
    1b90:	9a 81       	ldd	r25, Y+2	; 0x02
    1b92:	99 23       	and	r25, r25
    1b94:	0c f4       	brge	.+2      	; 0x1b98 <draw_map+0x244>
    1b96:	01 96       	adiw	r24, 0x01	; 1
    1b98:	95 95       	asr	r25
    1b9a:	87 95       	ror	r24
    1b9c:	2b 81       	ldd	r18, Y+3	; 0x03
    1b9e:	3c 81       	ldd	r19, Y+4	; 0x04
    1ba0:	22 0f       	add	r18, r18
    1ba2:	33 1f       	adc	r19, r19
    1ba4:	22 0f       	add	r18, r18
    1ba6:	33 1f       	adc	r19, r19
    1ba8:	4b 81       	ldd	r20, Y+3	; 0x03
    1baa:	5c 81       	ldd	r21, Y+4	; 0x04
    1bac:	44 0f       	add	r20, r20
    1bae:	55 1f       	adc	r21, r21
    1bb0:	44 0f       	add	r20, r20
    1bb2:	55 1f       	adc	r21, r21
    1bb4:	bc 01       	movw	r22, r24
    1bb6:	76 95       	lsr	r23
    1bb8:	76 2f       	mov	r23, r22
    1bba:	66 27       	eor	r22, r22
    1bbc:	77 95       	ror	r23
    1bbe:	67 95       	ror	r22
    1bc0:	fe 01       	movw	r30, r28
    1bc2:	31 96       	adiw	r30, 0x01	; 1
    1bc4:	6e 0f       	add	r22, r30
    1bc6:	7f 1f       	adc	r23, r31
    1bc8:	46 0f       	add	r20, r22
    1bca:	57 1f       	adc	r21, r23
    1bcc:	4b 5f       	subi	r20, 0xFB	; 251
    1bce:	5f 4f       	sbci	r21, 0xFF	; 255
    1bd0:	fa 01       	movw	r30, r20
    1bd2:	40 81       	ld	r20, Z
    1bd4:	64 2f       	mov	r22, r20
    1bd6:	60 6f       	ori	r22, 0xF0	; 240
    1bd8:	96 95       	lsr	r25
    1bda:	98 2f       	mov	r25, r24
    1bdc:	88 27       	eor	r24, r24
    1bde:	97 95       	ror	r25
    1be0:	87 95       	ror	r24
    1be2:	ae 01       	movw	r20, r28
    1be4:	4f 5f       	subi	r20, 0xFF	; 255
    1be6:	5f 4f       	sbci	r21, 0xFF	; 255
    1be8:	84 0f       	add	r24, r20
    1bea:	95 1f       	adc	r25, r21
    1bec:	82 0f       	add	r24, r18
    1bee:	93 1f       	adc	r25, r19
    1bf0:	05 96       	adiw	r24, 0x05	; 5
    1bf2:	fc 01       	movw	r30, r24
    1bf4:	60 83       	st	Z, r22
					MAP[i/2][4*j + 1] |= 0xF0;
    1bf6:	89 81       	ldd	r24, Y+1	; 0x01
    1bf8:	9a 81       	ldd	r25, Y+2	; 0x02
    1bfa:	99 23       	and	r25, r25
    1bfc:	0c f4       	brge	.+2      	; 0x1c00 <draw_map+0x2ac>
    1bfe:	01 96       	adiw	r24, 0x01	; 1
    1c00:	95 95       	asr	r25
    1c02:	87 95       	ror	r24
    1c04:	2b 81       	ldd	r18, Y+3	; 0x03
    1c06:	3c 81       	ldd	r19, Y+4	; 0x04
    1c08:	22 0f       	add	r18, r18
    1c0a:	33 1f       	adc	r19, r19
    1c0c:	22 0f       	add	r18, r18
    1c0e:	33 1f       	adc	r19, r19
    1c10:	2f 5f       	subi	r18, 0xFF	; 255
    1c12:	3f 4f       	sbci	r19, 0xFF	; 255
    1c14:	4b 81       	ldd	r20, Y+3	; 0x03
    1c16:	5c 81       	ldd	r21, Y+4	; 0x04
    1c18:	44 0f       	add	r20, r20
    1c1a:	55 1f       	adc	r21, r21
    1c1c:	44 0f       	add	r20, r20
    1c1e:	55 1f       	adc	r21, r21
    1c20:	4f 5f       	subi	r20, 0xFF	; 255
    1c22:	5f 4f       	sbci	r21, 0xFF	; 255
    1c24:	bc 01       	movw	r22, r24
    1c26:	76 95       	lsr	r23
    1c28:	76 2f       	mov	r23, r22
    1c2a:	66 27       	eor	r22, r22
    1c2c:	77 95       	ror	r23
    1c2e:	67 95       	ror	r22
    1c30:	fe 01       	movw	r30, r28
    1c32:	31 96       	adiw	r30, 0x01	; 1
    1c34:	6e 0f       	add	r22, r30
    1c36:	7f 1f       	adc	r23, r31
    1c38:	46 0f       	add	r20, r22
    1c3a:	57 1f       	adc	r21, r23
    1c3c:	4b 5f       	subi	r20, 0xFB	; 251
    1c3e:	5f 4f       	sbci	r21, 0xFF	; 255
    1c40:	fa 01       	movw	r30, r20
    1c42:	40 81       	ld	r20, Z
    1c44:	64 2f       	mov	r22, r20
    1c46:	60 6f       	ori	r22, 0xF0	; 240
    1c48:	96 95       	lsr	r25
    1c4a:	98 2f       	mov	r25, r24
    1c4c:	88 27       	eor	r24, r24
    1c4e:	97 95       	ror	r25
    1c50:	87 95       	ror	r24
    1c52:	ae 01       	movw	r20, r28
    1c54:	4f 5f       	subi	r20, 0xFF	; 255
    1c56:	5f 4f       	sbci	r21, 0xFF	; 255
    1c58:	84 0f       	add	r24, r20
    1c5a:	95 1f       	adc	r25, r21
    1c5c:	82 0f       	add	r24, r18
    1c5e:	93 1f       	adc	r25, r19
    1c60:	05 96       	adiw	r24, 0x05	; 5
    1c62:	fc 01       	movw	r30, r24
    1c64:	60 83       	st	Z, r22
					MAP[i/2][4*j + 2] |= 0xF0;
    1c66:	89 81       	ldd	r24, Y+1	; 0x01
    1c68:	9a 81       	ldd	r25, Y+2	; 0x02
    1c6a:	99 23       	and	r25, r25
    1c6c:	0c f4       	brge	.+2      	; 0x1c70 <draw_map+0x31c>
    1c6e:	01 96       	adiw	r24, 0x01	; 1
    1c70:	95 95       	asr	r25
    1c72:	87 95       	ror	r24
    1c74:	2b 81       	ldd	r18, Y+3	; 0x03
    1c76:	3c 81       	ldd	r19, Y+4	; 0x04
    1c78:	22 0f       	add	r18, r18
    1c7a:	33 1f       	adc	r19, r19
    1c7c:	22 0f       	add	r18, r18
    1c7e:	33 1f       	adc	r19, r19
    1c80:	2e 5f       	subi	r18, 0xFE	; 254
    1c82:	3f 4f       	sbci	r19, 0xFF	; 255
    1c84:	4b 81       	ldd	r20, Y+3	; 0x03
    1c86:	5c 81       	ldd	r21, Y+4	; 0x04
    1c88:	44 0f       	add	r20, r20
    1c8a:	55 1f       	adc	r21, r21
    1c8c:	44 0f       	add	r20, r20
    1c8e:	55 1f       	adc	r21, r21
    1c90:	4e 5f       	subi	r20, 0xFE	; 254
    1c92:	5f 4f       	sbci	r21, 0xFF	; 255
    1c94:	bc 01       	movw	r22, r24
    1c96:	76 95       	lsr	r23
    1c98:	76 2f       	mov	r23, r22
    1c9a:	66 27       	eor	r22, r22
    1c9c:	77 95       	ror	r23
    1c9e:	67 95       	ror	r22
    1ca0:	fe 01       	movw	r30, r28
    1ca2:	31 96       	adiw	r30, 0x01	; 1
    1ca4:	6e 0f       	add	r22, r30
    1ca6:	7f 1f       	adc	r23, r31
    1ca8:	46 0f       	add	r20, r22
    1caa:	57 1f       	adc	r21, r23
    1cac:	4b 5f       	subi	r20, 0xFB	; 251
    1cae:	5f 4f       	sbci	r21, 0xFF	; 255
    1cb0:	fa 01       	movw	r30, r20
    1cb2:	40 81       	ld	r20, Z
    1cb4:	64 2f       	mov	r22, r20
    1cb6:	60 6f       	ori	r22, 0xF0	; 240
    1cb8:	96 95       	lsr	r25
    1cba:	98 2f       	mov	r25, r24
    1cbc:	88 27       	eor	r24, r24
    1cbe:	97 95       	ror	r25
    1cc0:	87 95       	ror	r24
    1cc2:	ae 01       	movw	r20, r28
    1cc4:	4f 5f       	subi	r20, 0xFF	; 255
    1cc6:	5f 4f       	sbci	r21, 0xFF	; 255
    1cc8:	84 0f       	add	r24, r20
    1cca:	95 1f       	adc	r25, r21
    1ccc:	82 0f       	add	r24, r18
    1cce:	93 1f       	adc	r25, r19
    1cd0:	05 96       	adiw	r24, 0x05	; 5
    1cd2:	fc 01       	movw	r30, r24
    1cd4:	60 83       	st	Z, r22
					MAP[i/2][4*j + 3] |= 0xF0;
    1cd6:	89 81       	ldd	r24, Y+1	; 0x01
    1cd8:	9a 81       	ldd	r25, Y+2	; 0x02
    1cda:	99 23       	and	r25, r25
    1cdc:	0c f4       	brge	.+2      	; 0x1ce0 <draw_map+0x38c>
    1cde:	01 96       	adiw	r24, 0x01	; 1
    1ce0:	95 95       	asr	r25
    1ce2:	87 95       	ror	r24
    1ce4:	2b 81       	ldd	r18, Y+3	; 0x03
    1ce6:	3c 81       	ldd	r19, Y+4	; 0x04
    1ce8:	22 0f       	add	r18, r18
    1cea:	33 1f       	adc	r19, r19
    1cec:	22 0f       	add	r18, r18
    1cee:	33 1f       	adc	r19, r19
    1cf0:	2d 5f       	subi	r18, 0xFD	; 253
    1cf2:	3f 4f       	sbci	r19, 0xFF	; 255
    1cf4:	4b 81       	ldd	r20, Y+3	; 0x03
    1cf6:	5c 81       	ldd	r21, Y+4	; 0x04
    1cf8:	44 0f       	add	r20, r20
    1cfa:	55 1f       	adc	r21, r21
    1cfc:	44 0f       	add	r20, r20
    1cfe:	55 1f       	adc	r21, r21
    1d00:	4d 5f       	subi	r20, 0xFD	; 253
    1d02:	5f 4f       	sbci	r21, 0xFF	; 255
    1d04:	bc 01       	movw	r22, r24
    1d06:	76 95       	lsr	r23
    1d08:	76 2f       	mov	r23, r22
    1d0a:	66 27       	eor	r22, r22
    1d0c:	77 95       	ror	r23
    1d0e:	67 95       	ror	r22
    1d10:	fe 01       	movw	r30, r28
    1d12:	31 96       	adiw	r30, 0x01	; 1
    1d14:	6e 0f       	add	r22, r30
    1d16:	7f 1f       	adc	r23, r31
    1d18:	46 0f       	add	r20, r22
    1d1a:	57 1f       	adc	r21, r23
    1d1c:	4b 5f       	subi	r20, 0xFB	; 251
    1d1e:	5f 4f       	sbci	r21, 0xFF	; 255
    1d20:	fa 01       	movw	r30, r20
    1d22:	40 81       	ld	r20, Z
    1d24:	64 2f       	mov	r22, r20
    1d26:	60 6f       	ori	r22, 0xF0	; 240
    1d28:	96 95       	lsr	r25
    1d2a:	98 2f       	mov	r25, r24
    1d2c:	88 27       	eor	r24, r24
    1d2e:	97 95       	ror	r25
    1d30:	87 95       	ror	r24
    1d32:	ae 01       	movw	r20, r28
    1d34:	4f 5f       	subi	r20, 0xFF	; 255
    1d36:	5f 4f       	sbci	r21, 0xFF	; 255
    1d38:	84 0f       	add	r24, r20
    1d3a:	95 1f       	adc	r25, r21
    1d3c:	82 0f       	add	r24, r18
    1d3e:	93 1f       	adc	r25, r19
    1d40:	05 96       	adiw	r24, 0x05	; 5
    1d42:	fc 01       	movw	r30, r24
    1d44:	60 83       	st	Z, r22
void draw_map()
{
	unsigned char MAP [6][128] = {0};
	for(int i=0;i<12;i++)
	{
		for(int j = 0; j < 32; j++)
    1d46:	8b 81       	ldd	r24, Y+3	; 0x03
    1d48:	9c 81       	ldd	r25, Y+4	; 0x04
    1d4a:	01 96       	adiw	r24, 0x01	; 1
    1d4c:	9c 83       	std	Y+4, r25	; 0x04
    1d4e:	8b 83       	std	Y+3, r24	; 0x03
    1d50:	8b 81       	ldd	r24, Y+3	; 0x03
    1d52:	9c 81       	ldd	r25, Y+4	; 0x04
    1d54:	80 97       	sbiw	r24, 0x20	; 32
    1d56:	0c f4       	brge	.+2      	; 0x1d5a <draw_map+0x406>
    1d58:	18 ce       	rjmp	.-976    	; 0x198a <draw_map+0x36>
	

void draw_map()
{
	unsigned char MAP [6][128] = {0};
	for(int i=0;i<12;i++)
    1d5a:	89 81       	ldd	r24, Y+1	; 0x01
    1d5c:	9a 81       	ldd	r25, Y+2	; 0x02
    1d5e:	01 96       	adiw	r24, 0x01	; 1
    1d60:	9a 83       	std	Y+2, r25	; 0x02
    1d62:	89 83       	std	Y+1, r24	; 0x01
    1d64:	89 81       	ldd	r24, Y+1	; 0x01
    1d66:	9a 81       	ldd	r25, Y+2	; 0x02
    1d68:	0c 97       	sbiw	r24, 0x0c	; 12
    1d6a:	0c f4       	brge	.+2      	; 0x1d6e <draw_map+0x41a>
    1d6c:	0b ce       	rjmp	.-1002   	; 0x1984 <draw_map+0x30>
			}
		}
	}


	for(unsigned char y=2;y<8;y++)
    1d6e:	82 e0       	ldi	r24, 0x02	; 2
    1d70:	8d 83       	std	Y+5, r24	; 0x05
    1d72:	18 c0       	rjmp	.+48     	; 0x1da4 <draw_map+0x450>
	{
		ssd1306_set_page_start(y);
    1d74:	8d 81       	ldd	r24, Y+5	; 0x05
    1d76:	0e 94 30 02 	call	0x460	; 0x460 <ssd1306_set_page_start>
		ssd1306_data(MAP[y - 2], COL_NUM);
    1d7a:	8d 81       	ldd	r24, Y+5	; 0x05
    1d7c:	88 2f       	mov	r24, r24
    1d7e:	90 e0       	ldi	r25, 0x00	; 0
    1d80:	02 97       	sbiw	r24, 0x02	; 2
    1d82:	9e 01       	movw	r18, r28
    1d84:	2a 5f       	subi	r18, 0xFA	; 250
    1d86:	3f 4f       	sbci	r19, 0xFF	; 255
    1d88:	96 95       	lsr	r25
    1d8a:	98 2f       	mov	r25, r24
    1d8c:	88 27       	eor	r24, r24
    1d8e:	97 95       	ror	r25
    1d90:	87 95       	ror	r24
    1d92:	82 0f       	add	r24, r18
    1d94:	93 1f       	adc	r25, r19
    1d96:	60 e8       	ldi	r22, 0x80	; 128
    1d98:	70 e0       	ldi	r23, 0x00	; 0
    1d9a:	0e 94 ae 01 	call	0x35c	; 0x35c <ssd1306_data>
			}
		}
	}


	for(unsigned char y=2;y<8;y++)
    1d9e:	8d 81       	ldd	r24, Y+5	; 0x05
    1da0:	8f 5f       	subi	r24, 0xFF	; 255
    1da2:	8d 83       	std	Y+5, r24	; 0x05
    1da4:	8d 81       	ldd	r24, Y+5	; 0x05
    1da6:	88 30       	cpi	r24, 0x08	; 8
    1da8:	28 f3       	brcs	.-54     	; 0x1d74 <draw_map+0x420>
	{
		ssd1306_set_page_start(y);
		ssd1306_data(MAP[y - 2], COL_NUM);
	}
}
    1daa:	00 00       	nop
    1dac:	cb 5f       	subi	r28, 0xFB	; 251
    1dae:	dc 4f       	sbci	r29, 0xFC	; 252
    1db0:	0f b6       	in	r0, 0x3f	; 63
    1db2:	f8 94       	cli
    1db4:	de bf       	out	0x3e, r29	; 62
    1db6:	0f be       	out	0x3f, r0	; 63
    1db8:	cd bf       	out	0x3d, r28	; 61
    1dba:	df 91       	pop	r29
    1dbc:	cf 91       	pop	r28
    1dbe:	08 95       	ret

00001dc0 <NewTetriminos>:


	void NewTetriminos()
	{
    1dc0:	cf 93       	push	r28
    1dc2:	df 93       	push	r29
    1dc4:	cd b7       	in	r28, 0x3d	; 61
    1dc6:	de b7       	in	r29, 0x3e	; 62
		new_block = 0;	//   
    1dc8:	10 92 80 01 	sts	0x0180, r1	; 0x800180 <new_block>
		shape = next_block;
    1dcc:	80 91 82 01 	lds	r24, 0x0182	; 0x800182 <next_block>
    1dd0:	80 93 9e 05 	sts	0x059E, r24	; 0x80059e <shape>
		next_block = TCNT0 % 7;					//    
    1dd4:	82 e5       	ldi	r24, 0x52	; 82
    1dd6:	90 e0       	ldi	r25, 0x00	; 0
    1dd8:	fc 01       	movw	r30, r24
    1dda:	20 81       	ld	r18, Z
    1ddc:	85 e2       	ldi	r24, 0x25	; 37
    1dde:	28 9f       	mul	r18, r24
    1de0:	81 2d       	mov	r24, r1
    1de2:	11 24       	eor	r1, r1
    1de4:	92 2f       	mov	r25, r18
    1de6:	98 1b       	sub	r25, r24
    1de8:	96 95       	lsr	r25
    1dea:	89 0f       	add	r24, r25
    1dec:	98 2f       	mov	r25, r24
    1dee:	96 95       	lsr	r25
    1df0:	96 95       	lsr	r25
    1df2:	89 2f       	mov	r24, r25
    1df4:	88 0f       	add	r24, r24
    1df6:	88 0f       	add	r24, r24
    1df8:	88 0f       	add	r24, r24
    1dfa:	89 1b       	sub	r24, r25
    1dfc:	92 2f       	mov	r25, r18
    1dfe:	98 1b       	sub	r25, r24
    1e00:	90 93 82 01 	sts	0x0182, r25	; 0x800182 <next_block>
		pattern = 0;	//  
    1e04:	10 92 8d 05 	sts	0x058D, r1	; 0x80058d <pattern>
		cur_line = 0;                 //    ( )
    1e08:	10 92 8b 05 	sts	0x058B, r1	; 0x80058b <cur_line>
		cur_col = 6;                //   
    1e0c:	86 e0       	ldi	r24, 0x06	; 6
    1e0e:	80 93 8c 05 	sts	0x058C, r24	; 0x80058c <cur_col>

		tetriminos_to_temp_line();
    1e12:	0e 94 e7 03 	call	0x7ce	; 0x7ce <tetriminos_to_temp_line>

		
		game_over |= game_board[cur_line] & temp_line[0];	//           
    1e16:	80 91 8b 05 	lds	r24, 0x058B	; 0x80058b <cur_line>
    1e1a:	88 2f       	mov	r24, r24
    1e1c:	90 e0       	ldi	r25, 0x00	; 0
    1e1e:	88 0f       	add	r24, r24
    1e20:	99 1f       	adc	r25, r25
    1e22:	88 0f       	add	r24, r24
    1e24:	99 1f       	adc	r25, r25
    1e26:	81 56       	subi	r24, 0x61	; 97
    1e28:	9a 4f       	sbci	r25, 0xFA	; 250
    1e2a:	fc 01       	movw	r30, r24
    1e2c:	80 81       	ld	r24, Z
    1e2e:	91 81       	ldd	r25, Z+1	; 0x01
    1e30:	a2 81       	ldd	r26, Z+2	; 0x02
    1e32:	b3 81       	ldd	r27, Z+3	; 0x03
    1e34:	28 2f       	mov	r18, r24
    1e36:	80 91 8e 05 	lds	r24, 0x058E	; 0x80058e <temp_line>
    1e3a:	90 91 8f 05 	lds	r25, 0x058F	; 0x80058f <temp_line+0x1>
    1e3e:	a0 91 90 05 	lds	r26, 0x0590	; 0x800590 <temp_line+0x2>
    1e42:	b0 91 91 05 	lds	r27, 0x0591	; 0x800591 <temp_line+0x3>
    1e46:	92 2f       	mov	r25, r18
    1e48:	98 23       	and	r25, r24
    1e4a:	80 91 81 01 	lds	r24, 0x0181	; 0x800181 <game_over>
    1e4e:	89 2b       	or	r24, r25
    1e50:	80 93 81 01 	sts	0x0181, r24	; 0x800181 <game_over>
		game_over |= game_board[cur_line + 1] & temp_line[1];	//or     
    1e54:	80 91 8b 05 	lds	r24, 0x058B	; 0x80058b <cur_line>
    1e58:	88 2f       	mov	r24, r24
    1e5a:	90 e0       	ldi	r25, 0x00	; 0
    1e5c:	01 96       	adiw	r24, 0x01	; 1
    1e5e:	88 0f       	add	r24, r24
    1e60:	99 1f       	adc	r25, r25
    1e62:	88 0f       	add	r24, r24
    1e64:	99 1f       	adc	r25, r25
    1e66:	81 56       	subi	r24, 0x61	; 97
    1e68:	9a 4f       	sbci	r25, 0xFA	; 250
    1e6a:	fc 01       	movw	r30, r24
    1e6c:	80 81       	ld	r24, Z
    1e6e:	91 81       	ldd	r25, Z+1	; 0x01
    1e70:	a2 81       	ldd	r26, Z+2	; 0x02
    1e72:	b3 81       	ldd	r27, Z+3	; 0x03
    1e74:	28 2f       	mov	r18, r24
    1e76:	80 91 92 05 	lds	r24, 0x0592	; 0x800592 <temp_line+0x4>
    1e7a:	90 91 93 05 	lds	r25, 0x0593	; 0x800593 <temp_line+0x5>
    1e7e:	a0 91 94 05 	lds	r26, 0x0594	; 0x800594 <temp_line+0x6>
    1e82:	b0 91 95 05 	lds	r27, 0x0595	; 0x800595 <temp_line+0x7>
    1e86:	92 2f       	mov	r25, r18
    1e88:	98 23       	and	r25, r24
    1e8a:	80 91 81 01 	lds	r24, 0x0181	; 0x800181 <game_over>
    1e8e:	89 2b       	or	r24, r25
    1e90:	80 93 81 01 	sts	0x0181, r24	; 0x800181 <game_over>
		game_over |= game_board[cur_line + 2] & temp_line[2];
    1e94:	80 91 8b 05 	lds	r24, 0x058B	; 0x80058b <cur_line>
    1e98:	88 2f       	mov	r24, r24
    1e9a:	90 e0       	ldi	r25, 0x00	; 0
    1e9c:	02 96       	adiw	r24, 0x02	; 2
    1e9e:	88 0f       	add	r24, r24
    1ea0:	99 1f       	adc	r25, r25
    1ea2:	88 0f       	add	r24, r24
    1ea4:	99 1f       	adc	r25, r25
    1ea6:	81 56       	subi	r24, 0x61	; 97
    1ea8:	9a 4f       	sbci	r25, 0xFA	; 250
    1eaa:	fc 01       	movw	r30, r24
    1eac:	80 81       	ld	r24, Z
    1eae:	91 81       	ldd	r25, Z+1	; 0x01
    1eb0:	a2 81       	ldd	r26, Z+2	; 0x02
    1eb2:	b3 81       	ldd	r27, Z+3	; 0x03
    1eb4:	28 2f       	mov	r18, r24
    1eb6:	80 91 96 05 	lds	r24, 0x0596	; 0x800596 <temp_line+0x8>
    1eba:	90 91 97 05 	lds	r25, 0x0597	; 0x800597 <temp_line+0x9>
    1ebe:	a0 91 98 05 	lds	r26, 0x0598	; 0x800598 <temp_line+0xa>
    1ec2:	b0 91 99 05 	lds	r27, 0x0599	; 0x800599 <temp_line+0xb>
    1ec6:	92 2f       	mov	r25, r18
    1ec8:	98 23       	and	r25, r24
    1eca:	80 91 81 01 	lds	r24, 0x0181	; 0x800181 <game_over>
    1ece:	89 2b       	or	r24, r25
    1ed0:	80 93 81 01 	sts	0x0181, r24	; 0x800181 <game_over>
		game_over |= game_board[cur_line + 3] & temp_line[3];
    1ed4:	80 91 8b 05 	lds	r24, 0x058B	; 0x80058b <cur_line>
    1ed8:	88 2f       	mov	r24, r24
    1eda:	90 e0       	ldi	r25, 0x00	; 0
    1edc:	03 96       	adiw	r24, 0x03	; 3
    1ede:	88 0f       	add	r24, r24
    1ee0:	99 1f       	adc	r25, r25
    1ee2:	88 0f       	add	r24, r24
    1ee4:	99 1f       	adc	r25, r25
    1ee6:	81 56       	subi	r24, 0x61	; 97
    1ee8:	9a 4f       	sbci	r25, 0xFA	; 250
    1eea:	fc 01       	movw	r30, r24
    1eec:	80 81       	ld	r24, Z
    1eee:	91 81       	ldd	r25, Z+1	; 0x01
    1ef0:	a2 81       	ldd	r26, Z+2	; 0x02
    1ef2:	b3 81       	ldd	r27, Z+3	; 0x03
    1ef4:	28 2f       	mov	r18, r24
    1ef6:	80 91 9a 05 	lds	r24, 0x059A	; 0x80059a <temp_line+0xc>
    1efa:	90 91 9b 05 	lds	r25, 0x059B	; 0x80059b <temp_line+0xd>
    1efe:	a0 91 9c 05 	lds	r26, 0x059C	; 0x80059c <temp_line+0xe>
    1f02:	b0 91 9d 05 	lds	r27, 0x059D	; 0x80059d <temp_line+0xf>
    1f06:	92 2f       	mov	r25, r18
    1f08:	98 23       	and	r25, r24
    1f0a:	80 91 81 01 	lds	r24, 0x0181	; 0x800181 <game_over>
    1f0e:	89 2b       	or	r24, r25
    1f10:	80 93 81 01 	sts	0x0181, r24	; 0x800181 <game_over>
		

		game_board[cur_line] |= temp_line[0];	//      
    1f14:	80 91 8b 05 	lds	r24, 0x058B	; 0x80058b <cur_line>
    1f18:	68 2f       	mov	r22, r24
    1f1a:	70 e0       	ldi	r23, 0x00	; 0
    1f1c:	80 91 8b 05 	lds	r24, 0x058B	; 0x80058b <cur_line>
    1f20:	88 2f       	mov	r24, r24
    1f22:	90 e0       	ldi	r25, 0x00	; 0
    1f24:	88 0f       	add	r24, r24
    1f26:	99 1f       	adc	r25, r25
    1f28:	88 0f       	add	r24, r24
    1f2a:	99 1f       	adc	r25, r25
    1f2c:	81 56       	subi	r24, 0x61	; 97
    1f2e:	9a 4f       	sbci	r25, 0xFA	; 250
    1f30:	fc 01       	movw	r30, r24
    1f32:	20 81       	ld	r18, Z
    1f34:	31 81       	ldd	r19, Z+1	; 0x01
    1f36:	42 81       	ldd	r20, Z+2	; 0x02
    1f38:	53 81       	ldd	r21, Z+3	; 0x03
    1f3a:	80 91 8e 05 	lds	r24, 0x058E	; 0x80058e <temp_line>
    1f3e:	90 91 8f 05 	lds	r25, 0x058F	; 0x80058f <temp_line+0x1>
    1f42:	a0 91 90 05 	lds	r26, 0x0590	; 0x800590 <temp_line+0x2>
    1f46:	b0 91 91 05 	lds	r27, 0x0591	; 0x800591 <temp_line+0x3>
    1f4a:	82 2b       	or	r24, r18
    1f4c:	93 2b       	or	r25, r19
    1f4e:	a4 2b       	or	r26, r20
    1f50:	b5 2b       	or	r27, r21
    1f52:	9b 01       	movw	r18, r22
    1f54:	22 0f       	add	r18, r18
    1f56:	33 1f       	adc	r19, r19
    1f58:	22 0f       	add	r18, r18
    1f5a:	33 1f       	adc	r19, r19
    1f5c:	21 56       	subi	r18, 0x61	; 97
    1f5e:	3a 4f       	sbci	r19, 0xFA	; 250
    1f60:	f9 01       	movw	r30, r18
    1f62:	80 83       	st	Z, r24
    1f64:	91 83       	std	Z+1, r25	; 0x01
    1f66:	a2 83       	std	Z+2, r26	; 0x02
    1f68:	b3 83       	std	Z+3, r27	; 0x03
		game_board[cur_line + 1] |= temp_line[1];
    1f6a:	80 91 8b 05 	lds	r24, 0x058B	; 0x80058b <cur_line>
    1f6e:	88 2f       	mov	r24, r24
    1f70:	90 e0       	ldi	r25, 0x00	; 0
    1f72:	bc 01       	movw	r22, r24
    1f74:	6f 5f       	subi	r22, 0xFF	; 255
    1f76:	7f 4f       	sbci	r23, 0xFF	; 255
    1f78:	80 91 8b 05 	lds	r24, 0x058B	; 0x80058b <cur_line>
    1f7c:	88 2f       	mov	r24, r24
    1f7e:	90 e0       	ldi	r25, 0x00	; 0
    1f80:	01 96       	adiw	r24, 0x01	; 1
    1f82:	88 0f       	add	r24, r24
    1f84:	99 1f       	adc	r25, r25
    1f86:	88 0f       	add	r24, r24
    1f88:	99 1f       	adc	r25, r25
    1f8a:	81 56       	subi	r24, 0x61	; 97
    1f8c:	9a 4f       	sbci	r25, 0xFA	; 250
    1f8e:	fc 01       	movw	r30, r24
    1f90:	20 81       	ld	r18, Z
    1f92:	31 81       	ldd	r19, Z+1	; 0x01
    1f94:	42 81       	ldd	r20, Z+2	; 0x02
    1f96:	53 81       	ldd	r21, Z+3	; 0x03
    1f98:	80 91 92 05 	lds	r24, 0x0592	; 0x800592 <temp_line+0x4>
    1f9c:	90 91 93 05 	lds	r25, 0x0593	; 0x800593 <temp_line+0x5>
    1fa0:	a0 91 94 05 	lds	r26, 0x0594	; 0x800594 <temp_line+0x6>
    1fa4:	b0 91 95 05 	lds	r27, 0x0595	; 0x800595 <temp_line+0x7>
    1fa8:	82 2b       	or	r24, r18
    1faa:	93 2b       	or	r25, r19
    1fac:	a4 2b       	or	r26, r20
    1fae:	b5 2b       	or	r27, r21
    1fb0:	9b 01       	movw	r18, r22
    1fb2:	22 0f       	add	r18, r18
    1fb4:	33 1f       	adc	r19, r19
    1fb6:	22 0f       	add	r18, r18
    1fb8:	33 1f       	adc	r19, r19
    1fba:	21 56       	subi	r18, 0x61	; 97
    1fbc:	3a 4f       	sbci	r19, 0xFA	; 250
    1fbe:	f9 01       	movw	r30, r18
    1fc0:	80 83       	st	Z, r24
    1fc2:	91 83       	std	Z+1, r25	; 0x01
    1fc4:	a2 83       	std	Z+2, r26	; 0x02
    1fc6:	b3 83       	std	Z+3, r27	; 0x03
		game_board[cur_line + 2] |= temp_line[2];
    1fc8:	80 91 8b 05 	lds	r24, 0x058B	; 0x80058b <cur_line>
    1fcc:	88 2f       	mov	r24, r24
    1fce:	90 e0       	ldi	r25, 0x00	; 0
    1fd0:	bc 01       	movw	r22, r24
    1fd2:	6e 5f       	subi	r22, 0xFE	; 254
    1fd4:	7f 4f       	sbci	r23, 0xFF	; 255
    1fd6:	80 91 8b 05 	lds	r24, 0x058B	; 0x80058b <cur_line>
    1fda:	88 2f       	mov	r24, r24
    1fdc:	90 e0       	ldi	r25, 0x00	; 0
    1fde:	02 96       	adiw	r24, 0x02	; 2
    1fe0:	88 0f       	add	r24, r24
    1fe2:	99 1f       	adc	r25, r25
    1fe4:	88 0f       	add	r24, r24
    1fe6:	99 1f       	adc	r25, r25
    1fe8:	81 56       	subi	r24, 0x61	; 97
    1fea:	9a 4f       	sbci	r25, 0xFA	; 250
    1fec:	fc 01       	movw	r30, r24
    1fee:	20 81       	ld	r18, Z
    1ff0:	31 81       	ldd	r19, Z+1	; 0x01
    1ff2:	42 81       	ldd	r20, Z+2	; 0x02
    1ff4:	53 81       	ldd	r21, Z+3	; 0x03
    1ff6:	80 91 96 05 	lds	r24, 0x0596	; 0x800596 <temp_line+0x8>
    1ffa:	90 91 97 05 	lds	r25, 0x0597	; 0x800597 <temp_line+0x9>
    1ffe:	a0 91 98 05 	lds	r26, 0x0598	; 0x800598 <temp_line+0xa>
    2002:	b0 91 99 05 	lds	r27, 0x0599	; 0x800599 <temp_line+0xb>
    2006:	82 2b       	or	r24, r18
    2008:	93 2b       	or	r25, r19
    200a:	a4 2b       	or	r26, r20
    200c:	b5 2b       	or	r27, r21
    200e:	9b 01       	movw	r18, r22
    2010:	22 0f       	add	r18, r18
    2012:	33 1f       	adc	r19, r19
    2014:	22 0f       	add	r18, r18
    2016:	33 1f       	adc	r19, r19
    2018:	21 56       	subi	r18, 0x61	; 97
    201a:	3a 4f       	sbci	r19, 0xFA	; 250
    201c:	f9 01       	movw	r30, r18
    201e:	80 83       	st	Z, r24
    2020:	91 83       	std	Z+1, r25	; 0x01
    2022:	a2 83       	std	Z+2, r26	; 0x02
    2024:	b3 83       	std	Z+3, r27	; 0x03
		game_board[cur_line + 3] |= temp_line[3];
    2026:	80 91 8b 05 	lds	r24, 0x058B	; 0x80058b <cur_line>
    202a:	88 2f       	mov	r24, r24
    202c:	90 e0       	ldi	r25, 0x00	; 0
    202e:	bc 01       	movw	r22, r24
    2030:	6d 5f       	subi	r22, 0xFD	; 253
    2032:	7f 4f       	sbci	r23, 0xFF	; 255
    2034:	80 91 8b 05 	lds	r24, 0x058B	; 0x80058b <cur_line>
    2038:	88 2f       	mov	r24, r24
    203a:	90 e0       	ldi	r25, 0x00	; 0
    203c:	03 96       	adiw	r24, 0x03	; 3
    203e:	88 0f       	add	r24, r24
    2040:	99 1f       	adc	r25, r25
    2042:	88 0f       	add	r24, r24
    2044:	99 1f       	adc	r25, r25
    2046:	81 56       	subi	r24, 0x61	; 97
    2048:	9a 4f       	sbci	r25, 0xFA	; 250
    204a:	fc 01       	movw	r30, r24
    204c:	20 81       	ld	r18, Z
    204e:	31 81       	ldd	r19, Z+1	; 0x01
    2050:	42 81       	ldd	r20, Z+2	; 0x02
    2052:	53 81       	ldd	r21, Z+3	; 0x03
    2054:	80 91 9a 05 	lds	r24, 0x059A	; 0x80059a <temp_line+0xc>
    2058:	90 91 9b 05 	lds	r25, 0x059B	; 0x80059b <temp_line+0xd>
    205c:	a0 91 9c 05 	lds	r26, 0x059C	; 0x80059c <temp_line+0xe>
    2060:	b0 91 9d 05 	lds	r27, 0x059D	; 0x80059d <temp_line+0xf>
    2064:	82 2b       	or	r24, r18
    2066:	93 2b       	or	r25, r19
    2068:	a4 2b       	or	r26, r20
    206a:	b5 2b       	or	r27, r21
    206c:	9b 01       	movw	r18, r22
    206e:	22 0f       	add	r18, r18
    2070:	33 1f       	adc	r19, r19
    2072:	22 0f       	add	r18, r18
    2074:	33 1f       	adc	r19, r19
    2076:	21 56       	subi	r18, 0x61	; 97
    2078:	3a 4f       	sbci	r19, 0xFA	; 250
    207a:	f9 01       	movw	r30, r18
    207c:	80 83       	st	Z, r24
    207e:	91 83       	std	Z+1, r25	; 0x01
    2080:	a2 83       	std	Z+2, r26	; 0x02
    2082:	b3 83       	std	Z+3, r27	; 0x03

	}
    2084:	00 00       	nop
    2086:	df 91       	pop	r29
    2088:	cf 91       	pop	r28
    208a:	08 95       	ret

0000208c <NextTetriminos>:


	void NextTetriminos()
	{
    208c:	cf 93       	push	r28
    208e:	df 93       	push	r29
    2090:	cd b7       	in	r28, 0x3d	; 61
    2092:	de b7       	in	r29, 0x3e	; 62
    2094:	c9 50       	subi	r28, 0x09	; 9
    2096:	d1 40       	sbci	r29, 0x01	; 1
    2098:	0f b6       	in	r0, 0x3f	; 63
    209a:	f8 94       	cli
    209c:	de bf       	out	0x3e, r29	; 62
    209e:	0f be       	out	0x3f, r0	; 63
    20a0:	cd bf       	out	0x3d, r28	; 61
		for(int i = 0; i < 8; i++)	//  
    20a2:	1a 82       	std	Y+2, r1	; 0x02
    20a4:	19 82       	std	Y+1, r1	; 0x01
    20a6:	0b c0       	rjmp	.+22     	; 0x20be <NextTetriminos+0x32>
		{
			next_board[i] = 0;
    20a8:	89 81       	ldd	r24, Y+1	; 0x01
    20aa:	9a 81       	ldd	r25, Y+2	; 0x02
    20ac:	8d 57       	subi	r24, 0x7D	; 125
    20ae:	9e 4f       	sbci	r25, 0xFE	; 254
    20b0:	fc 01       	movw	r30, r24
    20b2:	10 82       	st	Z, r1
	}


	void NextTetriminos()
	{
		for(int i = 0; i < 8; i++)	//  
    20b4:	89 81       	ldd	r24, Y+1	; 0x01
    20b6:	9a 81       	ldd	r25, Y+2	; 0x02
    20b8:	01 96       	adiw	r24, 0x01	; 1
    20ba:	9a 83       	std	Y+2, r25	; 0x02
    20bc:	89 83       	std	Y+1, r24	; 0x01
    20be:	89 81       	ldd	r24, Y+1	; 0x01
    20c0:	9a 81       	ldd	r25, Y+2	; 0x02
    20c2:	08 97       	sbiw	r24, 0x08	; 8
    20c4:	8c f3       	brlt	.-30     	; 0x20a8 <NextTetriminos+0x1c>
		{
			next_board[i] = 0;
		}

		
		next_board[2] |= (unsigned char)((tetriminos[next_block][0] & 0xF000) >> 10);
    20c6:	80 91 85 01 	lds	r24, 0x0185	; 0x800185 <next_board+0x2>
    20ca:	48 2f       	mov	r20, r24
    20cc:	80 91 82 01 	lds	r24, 0x0182	; 0x800182 <next_block>
    20d0:	88 2f       	mov	r24, r24
    20d2:	90 e0       	ldi	r25, 0x00	; 0
    20d4:	2c e8       	ldi	r18, 0x8C	; 140
    20d6:	30 e0       	ldi	r19, 0x00	; 0
    20d8:	88 0f       	add	r24, r24
    20da:	99 1f       	adc	r25, r25
    20dc:	88 0f       	add	r24, r24
    20de:	99 1f       	adc	r25, r25
    20e0:	88 0f       	add	r24, r24
    20e2:	99 1f       	adc	r25, r25
    20e4:	82 0f       	add	r24, r18
    20e6:	93 1f       	adc	r25, r19
    20e8:	fc 01       	movw	r30, r24
    20ea:	85 91       	lpm	r24, Z+
    20ec:	95 91       	lpm	r25, Z+
    20ee:	32 97       	sbiw	r30, 0x02	; 2
    20f0:	88 27       	eor	r24, r24
    20f2:	90 7f       	andi	r25, 0xF0	; 240
    20f4:	89 2f       	mov	r24, r25
    20f6:	99 27       	eor	r25, r25
    20f8:	86 95       	lsr	r24
    20fa:	86 95       	lsr	r24
    20fc:	84 2b       	or	r24, r20
    20fe:	80 93 85 01 	sts	0x0185, r24	; 0x800185 <next_board+0x2>
		next_board[3] |= (unsigned char)((tetriminos[next_block][0] & 0x0F00) >> 6);
    2102:	80 91 86 01 	lds	r24, 0x0186	; 0x800186 <next_board+0x3>
    2106:	48 2f       	mov	r20, r24
    2108:	80 91 82 01 	lds	r24, 0x0182	; 0x800182 <next_block>
    210c:	88 2f       	mov	r24, r24
    210e:	90 e0       	ldi	r25, 0x00	; 0
    2110:	2c e8       	ldi	r18, 0x8C	; 140
    2112:	30 e0       	ldi	r19, 0x00	; 0
    2114:	88 0f       	add	r24, r24
    2116:	99 1f       	adc	r25, r25
    2118:	88 0f       	add	r24, r24
    211a:	99 1f       	adc	r25, r25
    211c:	88 0f       	add	r24, r24
    211e:	99 1f       	adc	r25, r25
    2120:	82 0f       	add	r24, r18
    2122:	93 1f       	adc	r25, r19
    2124:	fc 01       	movw	r30, r24
    2126:	85 91       	lpm	r24, Z+
    2128:	95 91       	lpm	r25, Z+
    212a:	32 97       	sbiw	r30, 0x02	; 2
    212c:	88 27       	eor	r24, r24
    212e:	9f 70       	andi	r25, 0x0F	; 15
    2130:	00 24       	eor	r0, r0
    2132:	88 0f       	add	r24, r24
    2134:	99 1f       	adc	r25, r25
    2136:	00 1c       	adc	r0, r0
    2138:	88 0f       	add	r24, r24
    213a:	99 1f       	adc	r25, r25
    213c:	00 1c       	adc	r0, r0
    213e:	89 2f       	mov	r24, r25
    2140:	90 2d       	mov	r25, r0
    2142:	84 2b       	or	r24, r20
    2144:	80 93 86 01 	sts	0x0186, r24	; 0x800186 <next_board+0x3>
		next_board[4] |= (unsigned char)((tetriminos[next_block][0] & 0x00F0) >> 2);
    2148:	80 91 87 01 	lds	r24, 0x0187	; 0x800187 <next_board+0x4>
    214c:	48 2f       	mov	r20, r24
    214e:	80 91 82 01 	lds	r24, 0x0182	; 0x800182 <next_block>
    2152:	88 2f       	mov	r24, r24
    2154:	90 e0       	ldi	r25, 0x00	; 0
    2156:	2c e8       	ldi	r18, 0x8C	; 140
    2158:	30 e0       	ldi	r19, 0x00	; 0
    215a:	88 0f       	add	r24, r24
    215c:	99 1f       	adc	r25, r25
    215e:	88 0f       	add	r24, r24
    2160:	99 1f       	adc	r25, r25
    2162:	88 0f       	add	r24, r24
    2164:	99 1f       	adc	r25, r25
    2166:	82 0f       	add	r24, r18
    2168:	93 1f       	adc	r25, r19
    216a:	fc 01       	movw	r30, r24
    216c:	85 91       	lpm	r24, Z+
    216e:	95 91       	lpm	r25, Z+
    2170:	32 97       	sbiw	r30, 0x02	; 2
    2172:	80 7f       	andi	r24, 0xF0	; 240
    2174:	99 27       	eor	r25, r25
    2176:	96 95       	lsr	r25
    2178:	87 95       	ror	r24
    217a:	96 95       	lsr	r25
    217c:	87 95       	ror	r24
    217e:	84 2b       	or	r24, r20
    2180:	80 93 87 01 	sts	0x0187, r24	; 0x800187 <next_board+0x4>
		next_board[5] |= (unsigned char)((tetriminos[next_block][0] & 0x000F) << 2);
    2184:	40 91 88 01 	lds	r20, 0x0188	; 0x800188 <next_board+0x5>
    2188:	80 91 82 01 	lds	r24, 0x0182	; 0x800182 <next_block>
    218c:	88 2f       	mov	r24, r24
    218e:	90 e0       	ldi	r25, 0x00	; 0
    2190:	2c e8       	ldi	r18, 0x8C	; 140
    2192:	30 e0       	ldi	r19, 0x00	; 0
    2194:	88 0f       	add	r24, r24
    2196:	99 1f       	adc	r25, r25
    2198:	88 0f       	add	r24, r24
    219a:	99 1f       	adc	r25, r25
    219c:	88 0f       	add	r24, r24
    219e:	99 1f       	adc	r25, r25
    21a0:	82 0f       	add	r24, r18
    21a2:	93 1f       	adc	r25, r19
    21a4:	fc 01       	movw	r30, r24
    21a6:	85 91       	lpm	r24, Z+
    21a8:	95 91       	lpm	r25, Z+
    21aa:	32 97       	sbiw	r30, 0x02	; 2
    21ac:	8f 70       	andi	r24, 0x0F	; 15
    21ae:	88 0f       	add	r24, r24
    21b0:	88 0f       	add	r24, r24
    21b2:	84 2b       	or	r24, r20
    21b4:	80 93 88 01 	sts	0x0188, r24	; 0x800188 <next_board+0x5>


		unsigned char MAP [2][128] = {0};
    21b8:	20 e0       	ldi	r18, 0x00	; 0
    21ba:	31 e0       	ldi	r19, 0x01	; 1
    21bc:	ce 01       	movw	r24, r28
    21be:	0a 96       	adiw	r24, 0x0a	; 10
    21c0:	fc 01       	movw	r30, r24
    21c2:	a9 01       	movw	r20, r18
    21c4:	11 92       	st	Z+, r1
    21c6:	41 50       	subi	r20, 0x01	; 1
    21c8:	50 40       	sbci	r21, 0x00	; 0
    21ca:	e1 f7       	brne	.-8      	; 0x21c4 <NextTetriminos+0x138>
		

		MAP[0][2] |= 0xFF;	//  2     
    21cc:	8f ef       	ldi	r24, 0xFF	; 255
    21ce:	8c 87       	std	Y+12, r24	; 0x0c
		MAP[1][2] |= 0xFF;
    21d0:	ce 01       	movw	r24, r28
    21d2:	84 57       	subi	r24, 0x74	; 116
    21d4:	9f 4f       	sbci	r25, 0xFF	; 255
    21d6:	2f ef       	ldi	r18, 0xFF	; 255
    21d8:	fc 01       	movw	r30, r24
    21da:	20 83       	st	Z, r18
		MAP[0][17] |= 0xFF;
    21dc:	8f ef       	ldi	r24, 0xFF	; 255
    21de:	8b 8f       	std	Y+27, r24	; 0x1b
		MAP[1][17] |= 0xFF;
    21e0:	ce 01       	movw	r24, r28
    21e2:	85 56       	subi	r24, 0x65	; 101
    21e4:	9f 4f       	sbci	r25, 0xFF	; 255
    21e6:	2f ef       	ldi	r18, 0xFF	; 255
    21e8:	fc 01       	movw	r30, r24
    21ea:	20 83       	st	Z, r18

		for(int i = 2; i < 18; i++)
    21ec:	82 e0       	ldi	r24, 0x02	; 2
    21ee:	90 e0       	ldi	r25, 0x00	; 0
    21f0:	9c 83       	std	Y+4, r25	; 0x04
    21f2:	8b 83       	std	Y+3, r24	; 0x03
    21f4:	2d c0       	rjmp	.+90     	; 0x2250 <NextTetriminos+0x1c4>
		{
			MAP[0][i] |= 0x01;
    21f6:	9e 01       	movw	r18, r28
    21f8:	26 5f       	subi	r18, 0xF6	; 246
    21fa:	3f 4f       	sbci	r19, 0xFF	; 255
    21fc:	8b 81       	ldd	r24, Y+3	; 0x03
    21fe:	9c 81       	ldd	r25, Y+4	; 0x04
    2200:	82 0f       	add	r24, r18
    2202:	93 1f       	adc	r25, r19
    2204:	fc 01       	movw	r30, r24
    2206:	80 81       	ld	r24, Z
    2208:	48 2f       	mov	r20, r24
    220a:	41 60       	ori	r20, 0x01	; 1
    220c:	9e 01       	movw	r18, r28
    220e:	26 5f       	subi	r18, 0xF6	; 246
    2210:	3f 4f       	sbci	r19, 0xFF	; 255
    2212:	8b 81       	ldd	r24, Y+3	; 0x03
    2214:	9c 81       	ldd	r25, Y+4	; 0x04
    2216:	82 0f       	add	r24, r18
    2218:	93 1f       	adc	r25, r19
    221a:	fc 01       	movw	r30, r24
    221c:	40 83       	st	Z, r20
			MAP[1][i] |= 0x80;
    221e:	9e 01       	movw	r18, r28
    2220:	26 57       	subi	r18, 0x76	; 118
    2222:	3f 4f       	sbci	r19, 0xFF	; 255
    2224:	8b 81       	ldd	r24, Y+3	; 0x03
    2226:	9c 81       	ldd	r25, Y+4	; 0x04
    2228:	82 0f       	add	r24, r18
    222a:	93 1f       	adc	r25, r19
    222c:	fc 01       	movw	r30, r24
    222e:	80 81       	ld	r24, Z
    2230:	48 2f       	mov	r20, r24
    2232:	40 68       	ori	r20, 0x80	; 128
    2234:	9e 01       	movw	r18, r28
    2236:	26 57       	subi	r18, 0x76	; 118
    2238:	3f 4f       	sbci	r19, 0xFF	; 255
    223a:	8b 81       	ldd	r24, Y+3	; 0x03
    223c:	9c 81       	ldd	r25, Y+4	; 0x04
    223e:	82 0f       	add	r24, r18
    2240:	93 1f       	adc	r25, r19
    2242:	fc 01       	movw	r30, r24
    2244:	40 83       	st	Z, r20
		MAP[0][2] |= 0xFF;	//  2     
		MAP[1][2] |= 0xFF;
		MAP[0][17] |= 0xFF;
		MAP[1][17] |= 0xFF;

		for(int i = 2; i < 18; i++)
    2246:	8b 81       	ldd	r24, Y+3	; 0x03
    2248:	9c 81       	ldd	r25, Y+4	; 0x04
    224a:	01 96       	adiw	r24, 0x01	; 1
    224c:	9c 83       	std	Y+4, r25	; 0x04
    224e:	8b 83       	std	Y+3, r24	; 0x03
    2250:	8b 81       	ldd	r24, Y+3	; 0x03
    2252:	9c 81       	ldd	r25, Y+4	; 0x04
    2254:	42 97       	sbiw	r24, 0x12	; 18
    2256:	7c f2       	brlt	.-98     	; 0x21f6 <NextTetriminos+0x16a>
			MAP[0][i] |= 0x01;
			MAP[1][i] |= 0x80;
		}


		for(int i = 0;i < 8; i++)
    2258:	1e 82       	std	Y+6, r1	; 0x06
    225a:	1d 82       	std	Y+5, r1	; 0x05
    225c:	e3 c0       	rjmp	.+454    	; 0x2424 <NextTetriminos+0x398>
		{
			for(int j = 0; j < 8; j++)
    225e:	18 86       	std	Y+8, r1	; 0x08
    2260:	1f 82       	std	Y+7, r1	; 0x07
    2262:	d6 c0       	rjmp	.+428    	; 0x2410 <NextTetriminos+0x384>
			{
				if((next_board[i] & (1 << j)) != 0)
    2264:	8d 81       	ldd	r24, Y+5	; 0x05
    2266:	9e 81       	ldd	r25, Y+6	; 0x06
    2268:	8d 57       	subi	r24, 0x7D	; 125
    226a:	9e 4f       	sbci	r25, 0xFE	; 254
    226c:	fc 01       	movw	r30, r24
    226e:	80 81       	ld	r24, Z
    2270:	88 2f       	mov	r24, r24
    2272:	90 e0       	ldi	r25, 0x00	; 0
    2274:	0f 80       	ldd	r0, Y+7	; 0x07
    2276:	02 c0       	rjmp	.+4      	; 0x227c <NextTetriminos+0x1f0>
    2278:	95 95       	asr	r25
    227a:	87 95       	ror	r24
    227c:	0a 94       	dec	r0
    227e:	e2 f7       	brpl	.-8      	; 0x2278 <NextTetriminos+0x1ec>
    2280:	81 70       	andi	r24, 0x01	; 1
    2282:	99 27       	eor	r25, r25
    2284:	89 2b       	or	r24, r25
    2286:	09 f4       	brne	.+2      	; 0x228a <NextTetriminos+0x1fe>
    2288:	be c0       	rjmp	.+380    	; 0x2406 <NextTetriminos+0x37a>
				{
					if(j < 4)
    228a:	8f 81       	ldd	r24, Y+7	; 0x07
    228c:	98 85       	ldd	r25, Y+8	; 0x08
    228e:	04 97       	sbiw	r24, 0x04	; 4
    2290:	0c f0       	brlt	.+2      	; 0x2294 <NextTetriminos+0x208>
    2292:	5d c0       	rjmp	.+186    	; 0x234e <NextTetriminos+0x2c2>
					{
						MAP[1][2 + (2 * i)] |= (0x03 << 2 * (3 - j));
    2294:	8d 81       	ldd	r24, Y+5	; 0x05
    2296:	9e 81       	ldd	r25, Y+6	; 0x06
    2298:	01 96       	adiw	r24, 0x01	; 1
    229a:	88 0f       	add	r24, r24
    229c:	99 1f       	adc	r25, r25
    229e:	2d 81       	ldd	r18, Y+5	; 0x05
    22a0:	3e 81       	ldd	r19, Y+6	; 0x06
    22a2:	2f 5f       	subi	r18, 0xFF	; 255
    22a4:	3f 4f       	sbci	r19, 0xFF	; 255
    22a6:	22 0f       	add	r18, r18
    22a8:	33 1f       	adc	r19, r19
    22aa:	ae 01       	movw	r20, r28
    22ac:	46 57       	subi	r20, 0x76	; 118
    22ae:	5f 4f       	sbci	r21, 0xFF	; 255
    22b0:	24 0f       	add	r18, r20
    22b2:	35 1f       	adc	r19, r21
    22b4:	f9 01       	movw	r30, r18
    22b6:	20 81       	ld	r18, Z
    22b8:	62 2f       	mov	r22, r18
    22ba:	43 e0       	ldi	r20, 0x03	; 3
    22bc:	50 e0       	ldi	r21, 0x00	; 0
    22be:	2f 81       	ldd	r18, Y+7	; 0x07
    22c0:	38 85       	ldd	r19, Y+8	; 0x08
    22c2:	fa 01       	movw	r30, r20
    22c4:	e2 1b       	sub	r30, r18
    22c6:	f3 0b       	sbc	r31, r19
    22c8:	9f 01       	movw	r18, r30
    22ca:	a9 01       	movw	r20, r18
    22cc:	44 0f       	add	r20, r20
    22ce:	55 1f       	adc	r21, r21
    22d0:	23 e0       	ldi	r18, 0x03	; 3
    22d2:	30 e0       	ldi	r19, 0x00	; 0
    22d4:	02 c0       	rjmp	.+4      	; 0x22da <NextTetriminos+0x24e>
    22d6:	22 0f       	add	r18, r18
    22d8:	33 1f       	adc	r19, r19
    22da:	4a 95       	dec	r20
    22dc:	e2 f7       	brpl	.-8      	; 0x22d6 <NextTetriminos+0x24a>
    22de:	26 2b       	or	r18, r22
    22e0:	42 2f       	mov	r20, r18
    22e2:	9e 01       	movw	r18, r28
    22e4:	26 57       	subi	r18, 0x76	; 118
    22e6:	3f 4f       	sbci	r19, 0xFF	; 255
    22e8:	82 0f       	add	r24, r18
    22ea:	93 1f       	adc	r25, r19
    22ec:	fc 01       	movw	r30, r24
    22ee:	40 83       	st	Z, r20
						MAP[1][2 + (2 * i + 1)] |= (0x03 << 2 * (3 - j));
    22f0:	8d 81       	ldd	r24, Y+5	; 0x05
    22f2:	9e 81       	ldd	r25, Y+6	; 0x06
    22f4:	88 0f       	add	r24, r24
    22f6:	99 1f       	adc	r25, r25
    22f8:	03 96       	adiw	r24, 0x03	; 3
    22fa:	2d 81       	ldd	r18, Y+5	; 0x05
    22fc:	3e 81       	ldd	r19, Y+6	; 0x06
    22fe:	22 0f       	add	r18, r18
    2300:	33 1f       	adc	r19, r19
    2302:	2d 5f       	subi	r18, 0xFD	; 253
    2304:	3f 4f       	sbci	r19, 0xFF	; 255
    2306:	ae 01       	movw	r20, r28
    2308:	46 57       	subi	r20, 0x76	; 118
    230a:	5f 4f       	sbci	r21, 0xFF	; 255
    230c:	24 0f       	add	r18, r20
    230e:	35 1f       	adc	r19, r21
    2310:	f9 01       	movw	r30, r18
    2312:	20 81       	ld	r18, Z
    2314:	62 2f       	mov	r22, r18
    2316:	43 e0       	ldi	r20, 0x03	; 3
    2318:	50 e0       	ldi	r21, 0x00	; 0
    231a:	2f 81       	ldd	r18, Y+7	; 0x07
    231c:	38 85       	ldd	r19, Y+8	; 0x08
    231e:	fa 01       	movw	r30, r20
    2320:	e2 1b       	sub	r30, r18
    2322:	f3 0b       	sbc	r31, r19
    2324:	9f 01       	movw	r18, r30
    2326:	a9 01       	movw	r20, r18
    2328:	44 0f       	add	r20, r20
    232a:	55 1f       	adc	r21, r21
    232c:	23 e0       	ldi	r18, 0x03	; 3
    232e:	30 e0       	ldi	r19, 0x00	; 0
    2330:	02 c0       	rjmp	.+4      	; 0x2336 <NextTetriminos+0x2aa>
    2332:	22 0f       	add	r18, r18
    2334:	33 1f       	adc	r19, r19
    2336:	4a 95       	dec	r20
    2338:	e2 f7       	brpl	.-8      	; 0x2332 <NextTetriminos+0x2a6>
    233a:	26 2b       	or	r18, r22
    233c:	42 2f       	mov	r20, r18
    233e:	9e 01       	movw	r18, r28
    2340:	26 57       	subi	r18, 0x76	; 118
    2342:	3f 4f       	sbci	r19, 0xFF	; 255
    2344:	82 0f       	add	r24, r18
    2346:	93 1f       	adc	r25, r19
    2348:	fc 01       	movw	r30, r24
    234a:	40 83       	st	Z, r20
    234c:	5c c0       	rjmp	.+184    	; 0x2406 <NextTetriminos+0x37a>
					}
					else
					{
						MAP[0][2 + (2 * i)] |= (0x03 << 2 * (7 - j));
    234e:	8d 81       	ldd	r24, Y+5	; 0x05
    2350:	9e 81       	ldd	r25, Y+6	; 0x06
    2352:	01 96       	adiw	r24, 0x01	; 1
    2354:	88 0f       	add	r24, r24
    2356:	99 1f       	adc	r25, r25
    2358:	2d 81       	ldd	r18, Y+5	; 0x05
    235a:	3e 81       	ldd	r19, Y+6	; 0x06
    235c:	2f 5f       	subi	r18, 0xFF	; 255
    235e:	3f 4f       	sbci	r19, 0xFF	; 255
    2360:	22 0f       	add	r18, r18
    2362:	33 1f       	adc	r19, r19
    2364:	ae 01       	movw	r20, r28
    2366:	46 5f       	subi	r20, 0xF6	; 246
    2368:	5f 4f       	sbci	r21, 0xFF	; 255
    236a:	24 0f       	add	r18, r20
    236c:	35 1f       	adc	r19, r21
    236e:	f9 01       	movw	r30, r18
    2370:	20 81       	ld	r18, Z
    2372:	62 2f       	mov	r22, r18
    2374:	47 e0       	ldi	r20, 0x07	; 7
    2376:	50 e0       	ldi	r21, 0x00	; 0
    2378:	2f 81       	ldd	r18, Y+7	; 0x07
    237a:	38 85       	ldd	r19, Y+8	; 0x08
    237c:	fa 01       	movw	r30, r20
    237e:	e2 1b       	sub	r30, r18
    2380:	f3 0b       	sbc	r31, r19
    2382:	9f 01       	movw	r18, r30
    2384:	a9 01       	movw	r20, r18
    2386:	44 0f       	add	r20, r20
    2388:	55 1f       	adc	r21, r21
    238a:	23 e0       	ldi	r18, 0x03	; 3
    238c:	30 e0       	ldi	r19, 0x00	; 0
    238e:	02 c0       	rjmp	.+4      	; 0x2394 <NextTetriminos+0x308>
    2390:	22 0f       	add	r18, r18
    2392:	33 1f       	adc	r19, r19
    2394:	4a 95       	dec	r20
    2396:	e2 f7       	brpl	.-8      	; 0x2390 <NextTetriminos+0x304>
    2398:	26 2b       	or	r18, r22
    239a:	42 2f       	mov	r20, r18
    239c:	9e 01       	movw	r18, r28
    239e:	26 5f       	subi	r18, 0xF6	; 246
    23a0:	3f 4f       	sbci	r19, 0xFF	; 255
    23a2:	82 0f       	add	r24, r18
    23a4:	93 1f       	adc	r25, r19
    23a6:	fc 01       	movw	r30, r24
    23a8:	40 83       	st	Z, r20
						MAP[0][2 + (2 * i + 1)] |= (0x03 << 2 * (7 - j));
    23aa:	8d 81       	ldd	r24, Y+5	; 0x05
    23ac:	9e 81       	ldd	r25, Y+6	; 0x06
    23ae:	88 0f       	add	r24, r24
    23b0:	99 1f       	adc	r25, r25
    23b2:	03 96       	adiw	r24, 0x03	; 3
    23b4:	2d 81       	ldd	r18, Y+5	; 0x05
    23b6:	3e 81       	ldd	r19, Y+6	; 0x06
    23b8:	22 0f       	add	r18, r18
    23ba:	33 1f       	adc	r19, r19
    23bc:	2d 5f       	subi	r18, 0xFD	; 253
    23be:	3f 4f       	sbci	r19, 0xFF	; 255
    23c0:	ae 01       	movw	r20, r28
    23c2:	46 5f       	subi	r20, 0xF6	; 246
    23c4:	5f 4f       	sbci	r21, 0xFF	; 255
    23c6:	24 0f       	add	r18, r20
    23c8:	35 1f       	adc	r19, r21
    23ca:	f9 01       	movw	r30, r18
    23cc:	20 81       	ld	r18, Z
    23ce:	62 2f       	mov	r22, r18
    23d0:	47 e0       	ldi	r20, 0x07	; 7
    23d2:	50 e0       	ldi	r21, 0x00	; 0
    23d4:	2f 81       	ldd	r18, Y+7	; 0x07
    23d6:	38 85       	ldd	r19, Y+8	; 0x08
    23d8:	fa 01       	movw	r30, r20
    23da:	e2 1b       	sub	r30, r18
    23dc:	f3 0b       	sbc	r31, r19
    23de:	9f 01       	movw	r18, r30
    23e0:	a9 01       	movw	r20, r18
    23e2:	44 0f       	add	r20, r20
    23e4:	55 1f       	adc	r21, r21
    23e6:	23 e0       	ldi	r18, 0x03	; 3
    23e8:	30 e0       	ldi	r19, 0x00	; 0
    23ea:	02 c0       	rjmp	.+4      	; 0x23f0 <NextTetriminos+0x364>
    23ec:	22 0f       	add	r18, r18
    23ee:	33 1f       	adc	r19, r19
    23f0:	4a 95       	dec	r20
    23f2:	e2 f7       	brpl	.-8      	; 0x23ec <NextTetriminos+0x360>
    23f4:	26 2b       	or	r18, r22
    23f6:	42 2f       	mov	r20, r18
    23f8:	9e 01       	movw	r18, r28
    23fa:	26 5f       	subi	r18, 0xF6	; 246
    23fc:	3f 4f       	sbci	r19, 0xFF	; 255
    23fe:	82 0f       	add	r24, r18
    2400:	93 1f       	adc	r25, r19
    2402:	fc 01       	movw	r30, r24
    2404:	40 83       	st	Z, r20
		}


		for(int i = 0;i < 8; i++)
		{
			for(int j = 0; j < 8; j++)
    2406:	8f 81       	ldd	r24, Y+7	; 0x07
    2408:	98 85       	ldd	r25, Y+8	; 0x08
    240a:	01 96       	adiw	r24, 0x01	; 1
    240c:	98 87       	std	Y+8, r25	; 0x08
    240e:	8f 83       	std	Y+7, r24	; 0x07
    2410:	8f 81       	ldd	r24, Y+7	; 0x07
    2412:	98 85       	ldd	r25, Y+8	; 0x08
    2414:	08 97       	sbiw	r24, 0x08	; 8
    2416:	0c f4       	brge	.+2      	; 0x241a <NextTetriminos+0x38e>
    2418:	25 cf       	rjmp	.-438    	; 0x2264 <NextTetriminos+0x1d8>
			MAP[0][i] |= 0x01;
			MAP[1][i] |= 0x80;
		}


		for(int i = 0;i < 8; i++)
    241a:	8d 81       	ldd	r24, Y+5	; 0x05
    241c:	9e 81       	ldd	r25, Y+6	; 0x06
    241e:	01 96       	adiw	r24, 0x01	; 1
    2420:	9e 83       	std	Y+6, r25	; 0x06
    2422:	8d 83       	std	Y+5, r24	; 0x05
    2424:	8d 81       	ldd	r24, Y+5	; 0x05
    2426:	9e 81       	ldd	r25, Y+6	; 0x06
    2428:	08 97       	sbiw	r24, 0x08	; 8
    242a:	0c f4       	brge	.+2      	; 0x242e <NextTetriminos+0x3a2>
    242c:	18 cf       	rjmp	.-464    	; 0x225e <NextTetriminos+0x1d2>
					}
				}
			}
		}

		for(unsigned char y=0;y<2;y++)
    242e:	19 86       	std	Y+9, r1	; 0x09
    2430:	17 c0       	rjmp	.+46     	; 0x2460 <NextTetriminos+0x3d4>
		{
			ssd1306_set_page_start(y);
    2432:	89 85       	ldd	r24, Y+9	; 0x09
    2434:	0e 94 30 02 	call	0x460	; 0x460 <ssd1306_set_page_start>
			ssd1306_data(MAP[y], 128);
    2438:	89 85       	ldd	r24, Y+9	; 0x09
    243a:	88 2f       	mov	r24, r24
    243c:	90 e0       	ldi	r25, 0x00	; 0
    243e:	9e 01       	movw	r18, r28
    2440:	26 5f       	subi	r18, 0xF6	; 246
    2442:	3f 4f       	sbci	r19, 0xFF	; 255
    2444:	96 95       	lsr	r25
    2446:	98 2f       	mov	r25, r24
    2448:	88 27       	eor	r24, r24
    244a:	97 95       	ror	r25
    244c:	87 95       	ror	r24
    244e:	82 0f       	add	r24, r18
    2450:	93 1f       	adc	r25, r19
    2452:	60 e8       	ldi	r22, 0x80	; 128
    2454:	70 e0       	ldi	r23, 0x00	; 0
    2456:	0e 94 ae 01 	call	0x35c	; 0x35c <ssd1306_data>
					}
				}
			}
		}

		for(unsigned char y=0;y<2;y++)
    245a:	89 85       	ldd	r24, Y+9	; 0x09
    245c:	8f 5f       	subi	r24, 0xFF	; 255
    245e:	89 87       	std	Y+9, r24	; 0x09
    2460:	89 85       	ldd	r24, Y+9	; 0x09
    2462:	82 30       	cpi	r24, 0x02	; 2
    2464:	30 f3       	brcs	.-52     	; 0x2432 <NextTetriminos+0x3a6>
		{
			ssd1306_set_page_start(y);
			ssd1306_data(MAP[y], 128);
		}
	}
    2466:	00 00       	nop
    2468:	c7 5f       	subi	r28, 0xF7	; 247
    246a:	de 4f       	sbci	r29, 0xFE	; 254
    246c:	0f b6       	in	r0, 0x3f	; 63
    246e:	f8 94       	cli
    2470:	de bf       	out	0x3e, r29	; 62
    2472:	0f be       	out	0x3f, r0	; 63
    2474:	cd bf       	out	0x3d, r28	; 61
    2476:	df 91       	pop	r29
    2478:	cf 91       	pop	r28
    247a:	08 95       	ret

0000247c <main>:




int main(void)
{
    247c:	cf 93       	push	r28
    247e:	df 93       	push	r29
    2480:	cd b7       	in	r28, 0x3d	; 61
    2482:	de b7       	in	r29, 0x3e	; 62
    2484:	28 97       	sbiw	r28, 0x08	; 8
    2486:	0f b6       	in	r0, 0x3f	; 63
    2488:	f8 94       	cli
    248a:	de bf       	out	0x3e, r29	; 62
    248c:	0f be       	out	0x3f, r0	; 63
    248e:	cd bf       	out	0x3d, r28	; 61
	char cmd;

	UART_Init();
    2490:	0e 94 7e 01 	call	0x2fc	; 0x2fc <UART_Init>

	TCCR0 = 0x07;	//  0 1024 
    2494:	83 e5       	ldi	r24, 0x53	; 83
    2496:	90 e0       	ldi	r25, 0x00	; 0
    2498:	27 e0       	ldi	r18, 0x07	; 7
    249a:	fc 01       	movw	r30, r24
    249c:	20 83       	st	Z, r18

	TCCR1A |= (0 << COM1A0) | (0 << WGM10);	//CTC, OC1A 
    249e:	8f e4       	ldi	r24, 0x4F	; 79
    24a0:	90 e0       	ldi	r25, 0x00	; 0
    24a2:	2f e4       	ldi	r18, 0x4F	; 79
    24a4:	30 e0       	ldi	r19, 0x00	; 0
    24a6:	f9 01       	movw	r30, r18
    24a8:	20 81       	ld	r18, Z
    24aa:	fc 01       	movw	r30, r24
    24ac:	20 83       	st	Z, r18
	TCCR1B |= (1 << WGM12) | (5 << CS10); //CTC, 1024
    24ae:	8e e4       	ldi	r24, 0x4E	; 78
    24b0:	90 e0       	ldi	r25, 0x00	; 0
    24b2:	2e e4       	ldi	r18, 0x4E	; 78
    24b4:	30 e0       	ldi	r19, 0x00	; 0
    24b6:	f9 01       	movw	r30, r18
    24b8:	20 81       	ld	r18, Z
    24ba:	2d 60       	ori	r18, 0x0D	; 13
    24bc:	fc 01       	movw	r30, r24
    24be:	20 83       	st	Z, r18
	OCR1A = 0xFFF;
    24c0:	8a e4       	ldi	r24, 0x4A	; 74
    24c2:	90 e0       	ldi	r25, 0x00	; 0
    24c4:	2f ef       	ldi	r18, 0xFF	; 255
    24c6:	3f e0       	ldi	r19, 0x0F	; 15
    24c8:	fc 01       	movw	r30, r24
    24ca:	31 83       	std	Z+1, r19	; 0x01
    24cc:	20 83       	st	Z, r18
	TIMSK |= (1 << OCIE1A);	//  1  A   
    24ce:	87 e5       	ldi	r24, 0x57	; 87
    24d0:	90 e0       	ldi	r25, 0x00	; 0
    24d2:	27 e5       	ldi	r18, 0x57	; 87
    24d4:	30 e0       	ldi	r19, 0x00	; 0
    24d6:	f9 01       	movw	r30, r18
    24d8:	20 81       	ld	r18, Z
    24da:	20 61       	ori	r18, 0x10	; 16
    24dc:	fc 01       	movw	r30, r24
    24de:	20 83       	st	Z, r18

	DDRD = 0x00;	// 4,5,6,7   
    24e0:	81 e3       	ldi	r24, 0x31	; 49
    24e2:	90 e0       	ldi	r25, 0x00	; 0
    24e4:	fc 01       	movw	r30, r24
    24e6:	10 82       	st	Z, r1
	DDRE = 0x00;	// 3   
    24e8:	82 e2       	ldi	r24, 0x22	; 34
    24ea:	90 e0       	ldi	r25, 0x00	; 0
    24ec:	fc 01       	movw	r30, r24
    24ee:	10 82       	st	Z, r1

	EICRB = (2 << ISC40) | (2 << ISC50) | (2 << ISC60) | (2 << ISC70);
    24f0:	8a e5       	ldi	r24, 0x5A	; 90
    24f2:	90 e0       	ldi	r25, 0x00	; 0
    24f4:	2a ea       	ldi	r18, 0xAA	; 170
    24f6:	fc 01       	movw	r30, r24
    24f8:	20 83       	st	Z, r18
	
	EICRA = (2 << ISC30);
    24fa:	8a e6       	ldi	r24, 0x6A	; 106
    24fc:	90 e0       	ldi	r25, 0x00	; 0
    24fe:	20 e8       	ldi	r18, 0x80	; 128
    2500:	fc 01       	movw	r30, r24
    2502:	20 83       	st	Z, r18

	EIMSK = (1 << INT3) | (1 << INT4) | (1 << INT5) | (1 << INT6) | (1 << INT7);
    2504:	89 e5       	ldi	r24, 0x59	; 89
    2506:	90 e0       	ldi	r25, 0x00	; 0
    2508:	28 ef       	ldi	r18, 0xF8	; 248
    250a:	fc 01       	movw	r30, r24
    250c:	20 83       	st	Z, r18

	sei();
    250e:	78 94       	sei

	setup();
    2510:	0e 94 31 03 	call	0x662	; 0x662 <setup>

	while(1)
	{

		game_over = 0;	//  
    2514:	10 92 81 01 	sts	0x0181, r1	; 0x800181 <game_over>


		for (int i = 0; i < 31; i++ ) main_board[i] = 0x801;	// 
    2518:	1a 82       	std	Y+2, r1	; 0x02
    251a:	19 82       	std	Y+1, r1	; 0x01
    251c:	17 c0       	rjmp	.+46     	; 0x254c <main+0xd0>
    251e:	89 81       	ldd	r24, Y+1	; 0x01
    2520:	9a 81       	ldd	r25, Y+2	; 0x02
    2522:	88 0f       	add	r24, r24
    2524:	99 1f       	adc	r25, r25
    2526:	88 0f       	add	r24, r24
    2528:	99 1f       	adc	r25, r25
    252a:	9c 01       	movw	r18, r24
    252c:	20 50       	subi	r18, 0x00	; 0
    252e:	3f 4f       	sbci	r19, 0xFF	; 255
    2530:	81 e0       	ldi	r24, 0x01	; 1
    2532:	98 e0       	ldi	r25, 0x08	; 8
    2534:	a0 e0       	ldi	r26, 0x00	; 0
    2536:	b0 e0       	ldi	r27, 0x00	; 0
    2538:	f9 01       	movw	r30, r18
    253a:	80 83       	st	Z, r24
    253c:	91 83       	std	Z+1, r25	; 0x01
    253e:	a2 83       	std	Z+2, r26	; 0x02
    2540:	b3 83       	std	Z+3, r27	; 0x03
    2542:	89 81       	ldd	r24, Y+1	; 0x01
    2544:	9a 81       	ldd	r25, Y+2	; 0x02
    2546:	01 96       	adiw	r24, 0x01	; 1
    2548:	9a 83       	std	Y+2, r25	; 0x02
    254a:	89 83       	std	Y+1, r24	; 0x01
    254c:	89 81       	ldd	r24, Y+1	; 0x01
    254e:	9a 81       	ldd	r25, Y+2	; 0x02
    2550:	4f 97       	sbiw	r24, 0x1f	; 31
    2552:	2c f3       	brlt	.-54     	; 0x251e <main+0xa2>
		main_board[31] = 0xFFF;
    2554:	8f ef       	ldi	r24, 0xFF	; 255
    2556:	9f e0       	ldi	r25, 0x0F	; 15
    2558:	a0 e0       	ldi	r26, 0x00	; 0
    255a:	b0 e0       	ldi	r27, 0x00	; 0
    255c:	80 93 7c 01 	sts	0x017C, r24	; 0x80017c <__DATA_REGION_ORIGIN__+0x7c>
    2560:	90 93 7d 01 	sts	0x017D, r25	; 0x80017d <__DATA_REGION_ORIGIN__+0x7d>
    2564:	a0 93 7e 01 	sts	0x017E, r26	; 0x80017e <__DATA_REGION_ORIGIN__+0x7e>
    2568:	b0 93 7f 01 	sts	0x017F, r27	; 0x80017f <__DATA_REGION_ORIGIN__+0x7f>




		while(game_over == 0)	//   
    256c:	89 c0       	rjmp	.+274    	; 0x2680 <main+0x204>
		{
			for(int i = 0; i < 31; i++)
    256e:	1c 82       	std	Y+4, r1	; 0x04
    2570:	1b 82       	std	Y+3, r1	; 0x03
    2572:	53 c0       	rjmp	.+166    	; 0x261a <main+0x19e>
			{
				if(main_board[i] == 0xFFF)
    2574:	8b 81       	ldd	r24, Y+3	; 0x03
    2576:	9c 81       	ldd	r25, Y+4	; 0x04
    2578:	88 0f       	add	r24, r24
    257a:	99 1f       	adc	r25, r25
    257c:	88 0f       	add	r24, r24
    257e:	99 1f       	adc	r25, r25
    2580:	80 50       	subi	r24, 0x00	; 0
    2582:	9f 4f       	sbci	r25, 0xFF	; 255
    2584:	fc 01       	movw	r30, r24
    2586:	80 81       	ld	r24, Z
    2588:	91 81       	ldd	r25, Z+1	; 0x01
    258a:	a2 81       	ldd	r26, Z+2	; 0x02
    258c:	b3 81       	ldd	r27, Z+3	; 0x03
    258e:	8f 3f       	cpi	r24, 0xFF	; 255
    2590:	9f 40       	sbci	r25, 0x0F	; 15
    2592:	a1 05       	cpc	r26, r1
    2594:	b1 05       	cpc	r27, r1
    2596:	e1 f5       	brne	.+120    	; 0x2610 <main+0x194>
				//1      
				{
					main_board[i] = 0x801;
    2598:	8b 81       	ldd	r24, Y+3	; 0x03
    259a:	9c 81       	ldd	r25, Y+4	; 0x04
    259c:	88 0f       	add	r24, r24
    259e:	99 1f       	adc	r25, r25
    25a0:	88 0f       	add	r24, r24
    25a2:	99 1f       	adc	r25, r25
    25a4:	9c 01       	movw	r18, r24
    25a6:	20 50       	subi	r18, 0x00	; 0
    25a8:	3f 4f       	sbci	r19, 0xFF	; 255
    25aa:	81 e0       	ldi	r24, 0x01	; 1
    25ac:	98 e0       	ldi	r25, 0x08	; 8
    25ae:	a0 e0       	ldi	r26, 0x00	; 0
    25b0:	b0 e0       	ldi	r27, 0x00	; 0
    25b2:	f9 01       	movw	r30, r18
    25b4:	80 83       	st	Z, r24
    25b6:	91 83       	std	Z+1, r25	; 0x01
    25b8:	a2 83       	std	Z+2, r26	; 0x02
    25ba:	b3 83       	std	Z+3, r27	; 0x03
					for(int k = i; k > 0; k--)
    25bc:	8b 81       	ldd	r24, Y+3	; 0x03
    25be:	9c 81       	ldd	r25, Y+4	; 0x04
    25c0:	9e 83       	std	Y+6, r25	; 0x06
    25c2:	8d 83       	std	Y+5, r24	; 0x05
    25c4:	20 c0       	rjmp	.+64     	; 0x2606 <main+0x18a>
					{
						main_board[k] = main_board[k - 1];	//     (  )
    25c6:	8d 81       	ldd	r24, Y+5	; 0x05
    25c8:	9e 81       	ldd	r25, Y+6	; 0x06
    25ca:	01 97       	sbiw	r24, 0x01	; 1
    25cc:	88 0f       	add	r24, r24
    25ce:	99 1f       	adc	r25, r25
    25d0:	88 0f       	add	r24, r24
    25d2:	99 1f       	adc	r25, r25
    25d4:	80 50       	subi	r24, 0x00	; 0
    25d6:	9f 4f       	sbci	r25, 0xFF	; 255
    25d8:	fc 01       	movw	r30, r24
    25da:	80 81       	ld	r24, Z
    25dc:	91 81       	ldd	r25, Z+1	; 0x01
    25de:	a2 81       	ldd	r26, Z+2	; 0x02
    25e0:	b3 81       	ldd	r27, Z+3	; 0x03
    25e2:	2d 81       	ldd	r18, Y+5	; 0x05
    25e4:	3e 81       	ldd	r19, Y+6	; 0x06
    25e6:	22 0f       	add	r18, r18
    25e8:	33 1f       	adc	r19, r19
    25ea:	22 0f       	add	r18, r18
    25ec:	33 1f       	adc	r19, r19
    25ee:	20 50       	subi	r18, 0x00	; 0
    25f0:	3f 4f       	sbci	r19, 0xFF	; 255
    25f2:	f9 01       	movw	r30, r18
    25f4:	80 83       	st	Z, r24
    25f6:	91 83       	std	Z+1, r25	; 0x01
    25f8:	a2 83       	std	Z+2, r26	; 0x02
    25fa:	b3 83       	std	Z+3, r27	; 0x03
			{
				if(main_board[i] == 0xFFF)
				//1      
				{
					main_board[i] = 0x801;
					for(int k = i; k > 0; k--)
    25fc:	8d 81       	ldd	r24, Y+5	; 0x05
    25fe:	9e 81       	ldd	r25, Y+6	; 0x06
    2600:	01 97       	sbiw	r24, 0x01	; 1
    2602:	9e 83       	std	Y+6, r25	; 0x06
    2604:	8d 83       	std	Y+5, r24	; 0x05
    2606:	8d 81       	ldd	r24, Y+5	; 0x05
    2608:	9e 81       	ldd	r25, Y+6	; 0x06
    260a:	18 16       	cp	r1, r24
    260c:	19 06       	cpc	r1, r25
    260e:	dc f2       	brlt	.-74     	; 0x25c6 <main+0x14a>



		while(game_over == 0)	//   
		{
			for(int i = 0; i < 31; i++)
    2610:	8b 81       	ldd	r24, Y+3	; 0x03
    2612:	9c 81       	ldd	r25, Y+4	; 0x04
    2614:	01 96       	adiw	r24, 0x01	; 1
    2616:	9c 83       	std	Y+4, r25	; 0x04
    2618:	8b 83       	std	Y+3, r24	; 0x03
    261a:	8b 81       	ldd	r24, Y+3	; 0x03
    261c:	9c 81       	ldd	r25, Y+4	; 0x04
    261e:	4f 97       	sbiw	r24, 0x1f	; 31
    2620:	0c f4       	brge	.+2      	; 0x2624 <main+0x1a8>
    2622:	a8 cf       	rjmp	.-176    	; 0x2574 <main+0xf8>
						main_board[k] = main_board[k - 1];	//     (  )
					}
				}
			}

			for(int i = 0; i < 32; i++)
    2624:	18 86       	std	Y+8, r1	; 0x08
    2626:	1f 82       	std	Y+7, r1	; 0x07
    2628:	1f c0       	rjmp	.+62     	; 0x2668 <main+0x1ec>
			{
				game_board[i] = main_board[i];	//     
    262a:	8f 81       	ldd	r24, Y+7	; 0x07
    262c:	98 85       	ldd	r25, Y+8	; 0x08
    262e:	88 0f       	add	r24, r24
    2630:	99 1f       	adc	r25, r25
    2632:	88 0f       	add	r24, r24
    2634:	99 1f       	adc	r25, r25
    2636:	80 50       	subi	r24, 0x00	; 0
    2638:	9f 4f       	sbci	r25, 0xFF	; 255
    263a:	fc 01       	movw	r30, r24
    263c:	80 81       	ld	r24, Z
    263e:	91 81       	ldd	r25, Z+1	; 0x01
    2640:	a2 81       	ldd	r26, Z+2	; 0x02
    2642:	b3 81       	ldd	r27, Z+3	; 0x03
    2644:	2f 81       	ldd	r18, Y+7	; 0x07
    2646:	38 85       	ldd	r19, Y+8	; 0x08
    2648:	22 0f       	add	r18, r18
    264a:	33 1f       	adc	r19, r19
    264c:	22 0f       	add	r18, r18
    264e:	33 1f       	adc	r19, r19
    2650:	21 56       	subi	r18, 0x61	; 97
    2652:	3a 4f       	sbci	r19, 0xFA	; 250
    2654:	f9 01       	movw	r30, r18
    2656:	80 83       	st	Z, r24
    2658:	91 83       	std	Z+1, r25	; 0x01
    265a:	a2 83       	std	Z+2, r26	; 0x02
    265c:	b3 83       	std	Z+3, r27	; 0x03
						main_board[k] = main_board[k - 1];	//     (  )
					}
				}
			}

			for(int i = 0; i < 32; i++)
    265e:	8f 81       	ldd	r24, Y+7	; 0x07
    2660:	98 85       	ldd	r25, Y+8	; 0x08
    2662:	01 96       	adiw	r24, 0x01	; 1
    2664:	98 87       	std	Y+8, r25	; 0x08
    2666:	8f 83       	std	Y+7, r24	; 0x07
    2668:	8f 81       	ldd	r24, Y+7	; 0x07
    266a:	98 85       	ldd	r25, Y+8	; 0x08
    266c:	80 97       	sbiw	r24, 0x20	; 32
    266e:	ec f2       	brlt	.-70     	; 0x262a <main+0x1ae>
			{
				game_board[i] = main_board[i];	//     
			}
			
			NewTetriminos();	//  
    2670:	a7 db       	rcall	.-2226   	; 0x1dc0 <NewTetriminos>
			NextTetriminos();
    2672:	0c dd       	rcall	.-1512   	; 0x208c <NextTetriminos>
			while(new_block == 0)	//     
    2674:	01 c0       	rjmp	.+2      	; 0x2678 <main+0x1fc>
			{
				draw_map();	//    
    2676:	6e d9       	rcall	.-3364   	; 0x1954 <draw_map>
    2678:	80 91 80 01 	lds	r24, 0x0180	; 0x800180 <new_block>
				game_board[i] = main_board[i];	//     
			}
			
			NewTetriminos();	//  
			NextTetriminos();
			while(new_block == 0)	//     
    267c:	88 23       	and	r24, r24
    267e:	d9 f3       	breq	.-10     	; 0x2676 <main+0x1fa>
    2680:	80 91 81 01 	lds	r24, 0x0181	; 0x800181 <game_over>
		main_board[31] = 0xFFF;




		while(game_over == 0)	//   
    2684:	88 23       	and	r24, r24
    2686:	09 f4       	brne	.+2      	; 0x268a <main+0x20e>
    2688:	72 cf       	rjmp	.-284    	; 0x256e <main+0xf2>
    268a:	44 cf       	rjmp	.-376    	; 0x2514 <main+0x98>

0000268c <__cmpsf2>:
			while(new_block == 0)	//     
			{
				draw_map();	//    
			}
		}
	}
    268c:	2f d0       	rcall	.+94     	; 0x26ec <__fp_cmp>
    268e:	08 f4       	brcc	.+2      	; 0x2692 <__cmpsf2+0x6>
    2690:	81 e0       	ldi	r24, 0x01	; 1
    2692:	08 95       	ret

00002694 <__fixunssfsi>:
    2694:	57 d0       	rcall	.+174    	; 0x2744 <__fp_splitA>
    2696:	88 f0       	brcs	.+34     	; 0x26ba <__fixunssfsi+0x26>
    2698:	9f 57       	subi	r25, 0x7F	; 127
    269a:	90 f0       	brcs	.+36     	; 0x26c0 <__fixunssfsi+0x2c>
    269c:	b9 2f       	mov	r27, r25
    269e:	99 27       	eor	r25, r25
    26a0:	b7 51       	subi	r27, 0x17	; 23
    26a2:	a0 f0       	brcs	.+40     	; 0x26cc <__fixunssfsi+0x38>
    26a4:	d1 f0       	breq	.+52     	; 0x26da <__fixunssfsi+0x46>
    26a6:	66 0f       	add	r22, r22
    26a8:	77 1f       	adc	r23, r23
    26aa:	88 1f       	adc	r24, r24
    26ac:	99 1f       	adc	r25, r25
    26ae:	1a f0       	brmi	.+6      	; 0x26b6 <__fixunssfsi+0x22>
    26b0:	ba 95       	dec	r27
    26b2:	c9 f7       	brne	.-14     	; 0x26a6 <__fixunssfsi+0x12>
    26b4:	12 c0       	rjmp	.+36     	; 0x26da <__fixunssfsi+0x46>
    26b6:	b1 30       	cpi	r27, 0x01	; 1
    26b8:	81 f0       	breq	.+32     	; 0x26da <__fixunssfsi+0x46>
    26ba:	5e d0       	rcall	.+188    	; 0x2778 <__fp_zero>
    26bc:	b1 e0       	ldi	r27, 0x01	; 1
    26be:	08 95       	ret
    26c0:	5b c0       	rjmp	.+182    	; 0x2778 <__fp_zero>
    26c2:	67 2f       	mov	r22, r23
    26c4:	78 2f       	mov	r23, r24
    26c6:	88 27       	eor	r24, r24
    26c8:	b8 5f       	subi	r27, 0xF8	; 248
    26ca:	39 f0       	breq	.+14     	; 0x26da <__fixunssfsi+0x46>
    26cc:	b9 3f       	cpi	r27, 0xF9	; 249
    26ce:	cc f3       	brlt	.-14     	; 0x26c2 <__fixunssfsi+0x2e>
    26d0:	86 95       	lsr	r24
    26d2:	77 95       	ror	r23
    26d4:	67 95       	ror	r22
    26d6:	b3 95       	inc	r27
    26d8:	d9 f7       	brne	.-10     	; 0x26d0 <__fixunssfsi+0x3c>
    26da:	3e f4       	brtc	.+14     	; 0x26ea <__fixunssfsi+0x56>
    26dc:	90 95       	com	r25
    26de:	80 95       	com	r24
    26e0:	70 95       	com	r23
    26e2:	61 95       	neg	r22
    26e4:	7f 4f       	sbci	r23, 0xFF	; 255
    26e6:	8f 4f       	sbci	r24, 0xFF	; 255
    26e8:	9f 4f       	sbci	r25, 0xFF	; 255
    26ea:	08 95       	ret

000026ec <__fp_cmp>:
    26ec:	99 0f       	add	r25, r25
    26ee:	00 08       	sbc	r0, r0
    26f0:	55 0f       	add	r21, r21
    26f2:	aa 0b       	sbc	r26, r26
    26f4:	e0 e8       	ldi	r30, 0x80	; 128
    26f6:	fe ef       	ldi	r31, 0xFE	; 254
    26f8:	16 16       	cp	r1, r22
    26fa:	17 06       	cpc	r1, r23
    26fc:	e8 07       	cpc	r30, r24
    26fe:	f9 07       	cpc	r31, r25
    2700:	c0 f0       	brcs	.+48     	; 0x2732 <__fp_cmp+0x46>
    2702:	12 16       	cp	r1, r18
    2704:	13 06       	cpc	r1, r19
    2706:	e4 07       	cpc	r30, r20
    2708:	f5 07       	cpc	r31, r21
    270a:	98 f0       	brcs	.+38     	; 0x2732 <__fp_cmp+0x46>
    270c:	62 1b       	sub	r22, r18
    270e:	73 0b       	sbc	r23, r19
    2710:	84 0b       	sbc	r24, r20
    2712:	95 0b       	sbc	r25, r21
    2714:	39 f4       	brne	.+14     	; 0x2724 <__fp_cmp+0x38>
    2716:	0a 26       	eor	r0, r26
    2718:	61 f0       	breq	.+24     	; 0x2732 <__fp_cmp+0x46>
    271a:	23 2b       	or	r18, r19
    271c:	24 2b       	or	r18, r20
    271e:	25 2b       	or	r18, r21
    2720:	21 f4       	brne	.+8      	; 0x272a <__fp_cmp+0x3e>
    2722:	08 95       	ret
    2724:	0a 26       	eor	r0, r26
    2726:	09 f4       	brne	.+2      	; 0x272a <__fp_cmp+0x3e>
    2728:	a1 40       	sbci	r26, 0x01	; 1
    272a:	a6 95       	lsr	r26
    272c:	8f ef       	ldi	r24, 0xFF	; 255
    272e:	81 1d       	adc	r24, r1
    2730:	81 1d       	adc	r24, r1
    2732:	08 95       	ret

00002734 <__fp_split3>:
    2734:	57 fd       	sbrc	r21, 7
    2736:	90 58       	subi	r25, 0x80	; 128
    2738:	44 0f       	add	r20, r20
    273a:	55 1f       	adc	r21, r21
    273c:	59 f0       	breq	.+22     	; 0x2754 <__fp_splitA+0x10>
    273e:	5f 3f       	cpi	r21, 0xFF	; 255
    2740:	71 f0       	breq	.+28     	; 0x275e <__fp_splitA+0x1a>
    2742:	47 95       	ror	r20

00002744 <__fp_splitA>:
    2744:	88 0f       	add	r24, r24
    2746:	97 fb       	bst	r25, 7
    2748:	99 1f       	adc	r25, r25
    274a:	61 f0       	breq	.+24     	; 0x2764 <__fp_splitA+0x20>
    274c:	9f 3f       	cpi	r25, 0xFF	; 255
    274e:	79 f0       	breq	.+30     	; 0x276e <__fp_splitA+0x2a>
    2750:	87 95       	ror	r24
    2752:	08 95       	ret
    2754:	12 16       	cp	r1, r18
    2756:	13 06       	cpc	r1, r19
    2758:	14 06       	cpc	r1, r20
    275a:	55 1f       	adc	r21, r21
    275c:	f2 cf       	rjmp	.-28     	; 0x2742 <__fp_split3+0xe>
    275e:	46 95       	lsr	r20
    2760:	f1 df       	rcall	.-30     	; 0x2744 <__fp_splitA>
    2762:	08 c0       	rjmp	.+16     	; 0x2774 <__fp_splitA+0x30>
    2764:	16 16       	cp	r1, r22
    2766:	17 06       	cpc	r1, r23
    2768:	18 06       	cpc	r1, r24
    276a:	99 1f       	adc	r25, r25
    276c:	f1 cf       	rjmp	.-30     	; 0x2750 <__fp_splitA+0xc>
    276e:	86 95       	lsr	r24
    2770:	71 05       	cpc	r23, r1
    2772:	61 05       	cpc	r22, r1
    2774:	08 94       	sec
    2776:	08 95       	ret

00002778 <__fp_zero>:
    2778:	e8 94       	clt

0000277a <__fp_szero>:
    277a:	bb 27       	eor	r27, r27
    277c:	66 27       	eor	r22, r22
    277e:	77 27       	eor	r23, r23
    2780:	cb 01       	movw	r24, r22
    2782:	97 f9       	bld	r25, 7
    2784:	08 95       	ret

00002786 <__gesf2>:
    2786:	b2 df       	rcall	.-156    	; 0x26ec <__fp_cmp>
    2788:	08 f4       	brcc	.+2      	; 0x278c <__gesf2+0x6>
    278a:	8f ef       	ldi	r24, 0xFF	; 255
    278c:	08 95       	ret

0000278e <__mulsf3>:
    278e:	0b d0       	rcall	.+22     	; 0x27a6 <__mulsf3x>
    2790:	78 c0       	rjmp	.+240    	; 0x2882 <__fp_round>
    2792:	69 d0       	rcall	.+210    	; 0x2866 <__fp_pscA>
    2794:	28 f0       	brcs	.+10     	; 0x27a0 <__mulsf3+0x12>
    2796:	6e d0       	rcall	.+220    	; 0x2874 <__fp_pscB>
    2798:	18 f0       	brcs	.+6      	; 0x27a0 <__mulsf3+0x12>
    279a:	95 23       	and	r25, r21
    279c:	09 f0       	breq	.+2      	; 0x27a0 <__mulsf3+0x12>
    279e:	5a c0       	rjmp	.+180    	; 0x2854 <__fp_inf>
    27a0:	5f c0       	rjmp	.+190    	; 0x2860 <__fp_nan>
    27a2:	11 24       	eor	r1, r1
    27a4:	ea cf       	rjmp	.-44     	; 0x277a <__fp_szero>

000027a6 <__mulsf3x>:
    27a6:	c6 df       	rcall	.-116    	; 0x2734 <__fp_split3>
    27a8:	a0 f3       	brcs	.-24     	; 0x2792 <__mulsf3+0x4>

000027aa <__mulsf3_pse>:
    27aa:	95 9f       	mul	r25, r21
    27ac:	d1 f3       	breq	.-12     	; 0x27a2 <__mulsf3+0x14>
    27ae:	95 0f       	add	r25, r21
    27b0:	50 e0       	ldi	r21, 0x00	; 0
    27b2:	55 1f       	adc	r21, r21
    27b4:	62 9f       	mul	r22, r18
    27b6:	f0 01       	movw	r30, r0
    27b8:	72 9f       	mul	r23, r18
    27ba:	bb 27       	eor	r27, r27
    27bc:	f0 0d       	add	r31, r0
    27be:	b1 1d       	adc	r27, r1
    27c0:	63 9f       	mul	r22, r19
    27c2:	aa 27       	eor	r26, r26
    27c4:	f0 0d       	add	r31, r0
    27c6:	b1 1d       	adc	r27, r1
    27c8:	aa 1f       	adc	r26, r26
    27ca:	64 9f       	mul	r22, r20
    27cc:	66 27       	eor	r22, r22
    27ce:	b0 0d       	add	r27, r0
    27d0:	a1 1d       	adc	r26, r1
    27d2:	66 1f       	adc	r22, r22
    27d4:	82 9f       	mul	r24, r18
    27d6:	22 27       	eor	r18, r18
    27d8:	b0 0d       	add	r27, r0
    27da:	a1 1d       	adc	r26, r1
    27dc:	62 1f       	adc	r22, r18
    27de:	73 9f       	mul	r23, r19
    27e0:	b0 0d       	add	r27, r0
    27e2:	a1 1d       	adc	r26, r1
    27e4:	62 1f       	adc	r22, r18
    27e6:	83 9f       	mul	r24, r19
    27e8:	a0 0d       	add	r26, r0
    27ea:	61 1d       	adc	r22, r1
    27ec:	22 1f       	adc	r18, r18
    27ee:	74 9f       	mul	r23, r20
    27f0:	33 27       	eor	r19, r19
    27f2:	a0 0d       	add	r26, r0
    27f4:	61 1d       	adc	r22, r1
    27f6:	23 1f       	adc	r18, r19
    27f8:	84 9f       	mul	r24, r20
    27fa:	60 0d       	add	r22, r0
    27fc:	21 1d       	adc	r18, r1
    27fe:	82 2f       	mov	r24, r18
    2800:	76 2f       	mov	r23, r22
    2802:	6a 2f       	mov	r22, r26
    2804:	11 24       	eor	r1, r1
    2806:	9f 57       	subi	r25, 0x7F	; 127
    2808:	50 40       	sbci	r21, 0x00	; 0
    280a:	8a f0       	brmi	.+34     	; 0x282e <__mulsf3_pse+0x84>
    280c:	e1 f0       	breq	.+56     	; 0x2846 <__mulsf3_pse+0x9c>
    280e:	88 23       	and	r24, r24
    2810:	4a f0       	brmi	.+18     	; 0x2824 <__mulsf3_pse+0x7a>
    2812:	ee 0f       	add	r30, r30
    2814:	ff 1f       	adc	r31, r31
    2816:	bb 1f       	adc	r27, r27
    2818:	66 1f       	adc	r22, r22
    281a:	77 1f       	adc	r23, r23
    281c:	88 1f       	adc	r24, r24
    281e:	91 50       	subi	r25, 0x01	; 1
    2820:	50 40       	sbci	r21, 0x00	; 0
    2822:	a9 f7       	brne	.-22     	; 0x280e <__mulsf3_pse+0x64>
    2824:	9e 3f       	cpi	r25, 0xFE	; 254
    2826:	51 05       	cpc	r21, r1
    2828:	70 f0       	brcs	.+28     	; 0x2846 <__mulsf3_pse+0x9c>
    282a:	14 c0       	rjmp	.+40     	; 0x2854 <__fp_inf>
    282c:	a6 cf       	rjmp	.-180    	; 0x277a <__fp_szero>
    282e:	5f 3f       	cpi	r21, 0xFF	; 255
    2830:	ec f3       	brlt	.-6      	; 0x282c <__mulsf3_pse+0x82>
    2832:	98 3e       	cpi	r25, 0xE8	; 232
    2834:	dc f3       	brlt	.-10     	; 0x282c <__mulsf3_pse+0x82>
    2836:	86 95       	lsr	r24
    2838:	77 95       	ror	r23
    283a:	67 95       	ror	r22
    283c:	b7 95       	ror	r27
    283e:	f7 95       	ror	r31
    2840:	e7 95       	ror	r30
    2842:	9f 5f       	subi	r25, 0xFF	; 255
    2844:	c1 f7       	brne	.-16     	; 0x2836 <__mulsf3_pse+0x8c>
    2846:	fe 2b       	or	r31, r30
    2848:	88 0f       	add	r24, r24
    284a:	91 1d       	adc	r25, r1
    284c:	96 95       	lsr	r25
    284e:	87 95       	ror	r24
    2850:	97 f9       	bld	r25, 7
    2852:	08 95       	ret

00002854 <__fp_inf>:
    2854:	97 f9       	bld	r25, 7
    2856:	9f 67       	ori	r25, 0x7F	; 127
    2858:	80 e8       	ldi	r24, 0x80	; 128
    285a:	70 e0       	ldi	r23, 0x00	; 0
    285c:	60 e0       	ldi	r22, 0x00	; 0
    285e:	08 95       	ret

00002860 <__fp_nan>:
    2860:	9f ef       	ldi	r25, 0xFF	; 255
    2862:	80 ec       	ldi	r24, 0xC0	; 192
    2864:	08 95       	ret

00002866 <__fp_pscA>:
    2866:	00 24       	eor	r0, r0
    2868:	0a 94       	dec	r0
    286a:	16 16       	cp	r1, r22
    286c:	17 06       	cpc	r1, r23
    286e:	18 06       	cpc	r1, r24
    2870:	09 06       	cpc	r0, r25
    2872:	08 95       	ret

00002874 <__fp_pscB>:
    2874:	00 24       	eor	r0, r0
    2876:	0a 94       	dec	r0
    2878:	12 16       	cp	r1, r18
    287a:	13 06       	cpc	r1, r19
    287c:	14 06       	cpc	r1, r20
    287e:	05 06       	cpc	r0, r21
    2880:	08 95       	ret

00002882 <__fp_round>:
    2882:	09 2e       	mov	r0, r25
    2884:	03 94       	inc	r0
    2886:	00 0c       	add	r0, r0
    2888:	11 f4       	brne	.+4      	; 0x288e <__fp_round+0xc>
    288a:	88 23       	and	r24, r24
    288c:	52 f0       	brmi	.+20     	; 0x28a2 <__fp_round+0x20>
    288e:	bb 0f       	add	r27, r27
    2890:	40 f4       	brcc	.+16     	; 0x28a2 <__fp_round+0x20>
    2892:	bf 2b       	or	r27, r31
    2894:	11 f4       	brne	.+4      	; 0x289a <__fp_round+0x18>
    2896:	60 ff       	sbrs	r22, 0
    2898:	04 c0       	rjmp	.+8      	; 0x28a2 <__fp_round+0x20>
    289a:	6f 5f       	subi	r22, 0xFF	; 255
    289c:	7f 4f       	sbci	r23, 0xFF	; 255
    289e:	8f 4f       	sbci	r24, 0xFF	; 255
    28a0:	9f 4f       	sbci	r25, 0xFF	; 255
    28a2:	08 95       	ret

000028a4 <_exit>:
    28a4:	f8 94       	cli

000028a6 <__stop_program>:
    28a6:	ff cf       	rjmp	.-2      	; 0x28a6 <__stop_program>
