
Tetris_u8g2.elf:     file format elf32-avr

Sections:
Idx Name          Size      VMA       LMA       File off  Algn
  0 .data         0000006c  00800100  00002970  00002a04  2**0
                  CONTENTS, ALLOC, LOAD, DATA
  1 .text         00002970  00000000  00000000  00000094  2**1
                  CONTENTS, ALLOC, LOAD, READONLY, CODE
  2 .bss          0000067e  0080016c  0080016c  00002a70  2**0
                  ALLOC
  3 .comment      00000030  00000000  00000000  00002a70  2**0
                  CONTENTS, READONLY
  4 .note.gnu.avr.deviceinfo 00000040  00000000  00000000  00002aa0  2**2
                  CONTENTS, READONLY
  5 .debug_aranges 00001d20  00000000  00000000  00002ae0  2**0
                  CONTENTS, READONLY, DEBUGGING
  6 .debug_info   0003e407  00000000  00000000  00004800  2**0
                  CONTENTS, READONLY, DEBUGGING
  7 .debug_abbrev 000024c6  00000000  00000000  00042c07  2**0
                  CONTENTS, READONLY, DEBUGGING
  8 .debug_line   0000acbd  00000000  00000000  000450cd  2**0
                  CONTENTS, READONLY, DEBUGGING
  9 .debug_frame  0000b2ec  00000000  00000000  0004fd8c  2**2
                  CONTENTS, READONLY, DEBUGGING
 10 .debug_str    0000eca8  00000000  00000000  0005b078  2**0
                  CONTENTS, READONLY, DEBUGGING
 11 .debug_loc    00045c25  00000000  00000000  00069d20  2**0
                  CONTENTS, READONLY, DEBUGGING
 12 .debug_ranges 00001d48  00000000  00000000  000af945  2**0
                  CONTENTS, READONLY, DEBUGGING

Disassembly of section .text:

00000000 <__vectors>:
       0:	52 c4       	rjmp	.+2212   	; 0x8a6 <__ctors_end>
       2:	00 00       	nop
       4:	6f c4       	rjmp	.+2270   	; 0x8e4 <__bad_interrupt>
       6:	00 00       	nop
       8:	6d c4       	rjmp	.+2266   	; 0x8e4 <__bad_interrupt>
       a:	00 00       	nop
       c:	6b c4       	rjmp	.+2262   	; 0x8e4 <__bad_interrupt>
       e:	00 00       	nop
      10:	0c 94 6f 0a 	jmp	0x14de	; 0x14de <__vector_4>
      14:	72 c5       	rjmp	.+2788   	; 0xafa <__vector_5>
      16:	00 00       	nop
      18:	d9 c6       	rjmp	.+3506   	; 0xdcc <__vector_6>
      1a:	00 00       	nop
      1c:	0c 94 6b 08 	jmp	0x10d6	; 0x10d6 <__vector_7>
      20:	0c 94 06 09 	jmp	0x120c	; 0x120c <__vector_8>
      24:	5f c4       	rjmp	.+2238   	; 0x8e4 <__bad_interrupt>
      26:	00 00       	nop
      28:	5d c4       	rjmp	.+2234   	; 0x8e4 <__bad_interrupt>
      2a:	00 00       	nop
      2c:	5b c4       	rjmp	.+2230   	; 0x8e4 <__bad_interrupt>
      2e:	00 00       	nop
      30:	0c 94 79 0a 	jmp	0x14f2	; 0x14f2 <__vector_12>
      34:	57 c4       	rjmp	.+2222   	; 0x8e4 <__bad_interrupt>
      36:	00 00       	nop
      38:	55 c4       	rjmp	.+2218   	; 0x8e4 <__bad_interrupt>
      3a:	00 00       	nop
      3c:	53 c4       	rjmp	.+2214   	; 0x8e4 <__bad_interrupt>
      3e:	00 00       	nop
      40:	51 c4       	rjmp	.+2210   	; 0x8e4 <__bad_interrupt>
      42:	00 00       	nop
      44:	4f c4       	rjmp	.+2206   	; 0x8e4 <__bad_interrupt>
      46:	00 00       	nop
      48:	4d c4       	rjmp	.+2202   	; 0x8e4 <__bad_interrupt>
      4a:	00 00       	nop
      4c:	4b c4       	rjmp	.+2198   	; 0x8e4 <__bad_interrupt>
      4e:	00 00       	nop
      50:	49 c4       	rjmp	.+2194   	; 0x8e4 <__bad_interrupt>
      52:	00 00       	nop
      54:	47 c4       	rjmp	.+2190   	; 0x8e4 <__bad_interrupt>
      56:	00 00       	nop
      58:	45 c4       	rjmp	.+2186   	; 0x8e4 <__bad_interrupt>
      5a:	00 00       	nop
      5c:	43 c4       	rjmp	.+2182   	; 0x8e4 <__bad_interrupt>
      5e:	00 00       	nop
      60:	41 c4       	rjmp	.+2178   	; 0x8e4 <__bad_interrupt>
      62:	00 00       	nop
      64:	3f c4       	rjmp	.+2174   	; 0x8e4 <__bad_interrupt>
      66:	00 00       	nop
      68:	3d c4       	rjmp	.+2170   	; 0x8e4 <__bad_interrupt>
      6a:	00 00       	nop
      6c:	3b c4       	rjmp	.+2166   	; 0x8e4 <__bad_interrupt>
      6e:	00 00       	nop
      70:	39 c4       	rjmp	.+2162   	; 0x8e4 <__bad_interrupt>
      72:	00 00       	nop
      74:	37 c4       	rjmp	.+2158   	; 0x8e4 <__bad_interrupt>
      76:	00 00       	nop
      78:	35 c4       	rjmp	.+2154   	; 0x8e4 <__bad_interrupt>
      7a:	00 00       	nop
      7c:	33 c4       	rjmp	.+2150   	; 0x8e4 <__bad_interrupt>
      7e:	00 00       	nop
      80:	31 c4       	rjmp	.+2146   	; 0x8e4 <__bad_interrupt>
      82:	00 00       	nop
      84:	2f c4       	rjmp	.+2142   	; 0x8e4 <__bad_interrupt>
      86:	00 00       	nop
      88:	2d c4       	rjmp	.+2138   	; 0x8e4 <__bad_interrupt>
	...

0000008c <__trampolines_end>:
      8c:	00 66       	ori	r16, 0x60	; 96
      8e:	00 66       	ori	r16, 0x60	; 96
      90:	00 66       	ori	r16, 0x60	; 96
      92:	00 66       	ori	r16, 0x60	; 96
      94:	00 f0       	brcs	.+0      	; 0x96 <__trampolines_end+0xa>
      96:	44 44       	sbci	r20, 0x44	; 68
      98:	00 f0       	brcs	.+0      	; 0x9a <__trampolines_end+0xe>
      9a:	44 44       	sbci	r20, 0x44	; 68
      9c:	00 6c       	ori	r16, 0xC0	; 192
      9e:	40 8c       	ldd	r4, Z+24	; 0x18
      a0:	00 6c       	ori	r16, 0xC0	; 192
      a2:	40 8c       	ldd	r4, Z+24	; 0x18
      a4:	00 c6       	rjmp	.+3072   	; 0xca6 <__vector_5+0x1ac>
      a6:	80 4c       	sbci	r24, 0xC0	; 192
      a8:	00 c6       	rjmp	.+3072   	; 0xcaa <__vector_5+0x1b0>
      aa:	80 4c       	sbci	r24, 0xC0	; 192
      ac:	00 4e       	sbci	r16, 0xE0	; 224
      ae:	80 8c       	ldd	r8, Z+24	; 0x18
      b0:	00 e4       	ldi	r16, 0x40	; 64
      b2:	40 4c       	sbci	r20, 0xC0	; 192
      b4:	00 2e       	mov	r0, r16
      b6:	40 c4       	rjmp	.+2176   	; 0x938 <u8x8_avr_delay+0x52>
      b8:	00 e8       	ldi	r16, 0x80	; 128
      ba:	c0 88       	ldd	r12, Z+16	; 0x10
      bc:	00 8e       	std	Z+24, r0	; 0x18
      be:	c0 44       	sbci	r28, 0x40	; 64
      c0:	00 e2       	ldi	r16, 0x20	; 32
      c2:	80 c8       	rjmp	.-3840   	; 0xfffff1c4 <__eeprom_end+0xff7ef1c4>

000000c4 <u8g2_font_6x10_tf>:
      c4:	bf 00 03 02 03 04 03 05 04 06 0a 00 fe 07 fe 07     ................
      d4:	00 01 42 02 88 07 c4 20 05 00 62 07 21 07 39 43     ..B.... ..b.!.9C
      e4:	c7 a0 04 22 07 9b 52 47 62 09 23 0e 3d 42 4f 29     ..."..RGb.#.=BO)
      f4:	49 06 a5 32 28 a5 24 01 24 0c 3d 42 57 b6 d4 b6     I..2(.$.$.=BW...
     104:	24 d9 22 00 25 0c 3d 42 4f a4 74 ab b4 48 09 00     $.".%.=BO.t..H..
     114:	26 0d 3d 42 4f 96 44 49 56 49 a4 48 09 27 06 19     &.=BO.DIVI.H.'..
     124:	53 c7 00 28 08 bb 42 57 52 aa 15 29 09 bb 42 47     S..(..BWR..)..BG
     134:	56 aa 94 00 2a 0a 2d 46 47 96 54 06 a5 2d 2b 0a     V...*.-FG.T..-+.
     144:	2d 46 57 18 0d 52 18 01 2c 07 9b 3e 8f 52 02 2d     -FW..R..,..>.R.-
     154:	06 0d 4e c7 20 2e 08 9b 3e 4f b2 24 00 2f 08 3d     ..N. ...>O.$./.=
     164:	42 67 ad 63 08 30 0b 3d 42 57 96 d4 6c 49 2d 02     Bg.c.0.=BW..lI-.
     174:	31 0a 3d 42 57 26 25 61 d3 20 32 0c 3d 42 cf 92     1.=BW&%a. 2.=B..
     184:	85 91 94 85 83 00 33 0c 3d 42 c7 20 66 99 aa 25     ......3.=B. f..%
     194:	0b 00 34 0c 3d 42 5f 26 25 a5 64 d0 c2 04 35 0b     ..4.=B_&%.d...5.
     1a4:	3d 42 c7 31 31 85 5a b2 00 36 0c 3d 42 97 94 85     =B.11.Z..6.=B...
     1b4:	89 49 4b 16 00 37 0b 3d 42 c7 20 66 61 56 cc 00     .IK..7.=B. faV..
     1c4:	38 0c 3d 42 cf 92 69 c9 92 69 c9 02 39 0c 3d 42     8.=B..i..i..9.=B
     1d4:	cf 92 49 8a 12 66 91 04 3a 0a bb 3e 4f b2 a4 c9     ..I..f..:..>O...
     1e4:	92 00 3b 09 bb 3e 4f b2 a4 4a 09 3c 08 bc 42 5f     ..;..>O..J.<..B_
     1f4:	d4 d8 00 3d 08 1d 4a c7 a0 0e 02 3e 08 bc 42 47     ...=..J....>..BG
     204:	d8 d4 06 3f 0a 3d 42 cf 92 35 e6 50 04 40 0c 3d     ...?.=B..5.P.@.=
     214:	42 cf 92 49 4b 62 49 17 00 41 0c 3d 42 57 96 d4     B..IKbI..A.=BW..
     224:	b4 61 c8 b4 00 42 0d 3d 42 c7 10 55 a2 64 aa 44     .a...B.=B..U.d.D
     234:	83 02 43 0a 3d 42 cf 92 89 6d c9 02 44 0f 3d 42     ..C.=B...m..D.=B
     244:	c7 10 55 a2 24 4a a2 24 1a 14 00 45 0b 3d 42 c7     ..U.$J.$...E.=B.
     254:	31 1c 92 30 1c 04 46 0a 3d 42 c7 31 1c 92 b0 08     1..0..F.=B.1....
     264:	47 0b 3d 42 cf 92 89 a5 2d 59 00 48 0a 3d 42 47     G.=B....-Y.H.=BG
     274:	66 1b 86 cc 16 49 08 bb 42 c7 12 75 19 4a 0a 3d     f....I..B..u.J.=
     284:	42 d7 16 b6 44 91 04 4b 0d 3d 42 47 26 25 25 2d     B...D..K.=BG&%%-
     294:	89 2a 59 00 4c 08 3d 42 47 d8 e3 20 4d 0b 3d 42     .*Y.L.=BG.. M.=B
     2a4:	47 a6 2d 4b a2 d9 02 4e 0c 3d 42 47 a6 4d 4a 22     G.-K...N.=BG.MJ"
     2b4:	6d 5a 00 4f 0a 3d 42 cf 92 79 4b 16 00 50 0c 3d     mZ.O.=B..yK..P.=
     2c4:	42 c7 90 64 da a0 84 45 00 51 0a 45 3e cf 92 79     B..d...E.Q.E>..y
     2d4:	a9 ac 01 52 0d 3d 42 c7 90 64 da a0 94 2a 59 00     ...R.=B..d...*Y.
     2e4:	53 0b 3d 42 cf 92 a9 ab 96 2c 00 54 09 3d 42 c7     S.=B.....,.T.=B.
     2f4:	20 85 3d 01 55 09 3d 42 47 e6 5b b2 00 56 0d 3d      .=.U.=BG.[..V.=
     304:	42 47 66 4b 4a 49 94 64 11 00 57 0a 3d 42 47 e6     BGfKJI.d..W.=BG.
     314:	92 28 c9 2d 58 0b 3d 42 47 a6 25 b5 4a 4d 0b 59     .(.-X.=BG.%.JM.Y
     324:	0a 3d 42 47 a6 25 b5 b0 09 5a 0a 3d 42 c7 20 66     .=BG.%...Z.=B. f
     334:	1d 07 01 5b 08 bb 42 c7 10 75 1a 5c 08 3d 42 47     ...[..B..u.\.=BG
     344:	98 76 0c 5d 08 bb 42 c7 d4 69 08 5e 08 1d 52 57     .v.]..B..i.^..RW
     354:	96 d4 02 5f 06 0d 3e c7 20 60 06 12 5b 47 14 61     ..._..>. `..[G.a
     364:	0a 2d 42 cf 9a 0c 5a 32 04 62 0b 3d 42 47 58 31     .-B...Z2.b.=BGX1
     374:	69 93 a2 00 63 0a 2d 42 cf 92 89 59 b2 00 64 0a     i...c.-B...Y..d.
     384:	3d 42 67 c5 b4 49 8a 12 65 0a 2d 42 cf 92 0d 43     =Bg..I..e.-B...C
     394:	ba 00 66 0b 3d 42 97 54 c9 86 28 ac 01 67 0c 3d     ..f.=B.T..(..g.=
     3a4:	3a cf a0 69 c9 10 6a c9 02 68 0a 3d 42 47 58 31     :..i..j..h.=BGX1
     3b4:	69 b6 00 69 08 bb 42 4f 28 b5 0c 6a 0b cc 3a 5f     i..i..BO(..j..:_
     3c4:	ac d5 24 29 51 00 6b 0b 3d 42 47 58 93 92 a9 92     ..$)Q.k.=BGX....
     3d4:	05 6c 08 bb 42 87 d4 cb 00 6d 0b 2d 42 87 d2 a2     .l..B....m.-B...
     3e4:	24 4a a2 05 6e 09 2d 42 47 62 d2 6c 01 6f 09 2d     $J..n.-BGb.l.o.-
     3f4:	42 cf 92 d9 92 05 70 0c 3d 3a 47 62 d2 26 45 09     B.....p.=:Gb.&E.
     404:	43 00 71 0a 3d 3a 8f 69 93 14 25 2c 72 09 2d 42     C.q.=:.i..%,r.-B
     414:	47 62 12 8b 00 73 09 2d 42 cf 92 1e 14 00 74 0c     Gb...s.-B.....t.
     424:	3d 42 4f 98 0d 51 58 8a 14 00 75 09 2d 42 47 e6     =BO..QX...u.-BG.
     434:	a4 28 01 76 0b 2d 42 47 a6 25 a5 24 8b 00 77 0a     .(.v.-BG.%.$..w.
     444:	2d 42 47 66 49 94 2e 00 78 0a 2d 42 47 96 d4 2a     -BGfI...x.-BG..*
     454:	b5 00 79 0c 3d 3a 47 66 52 94 50 4b 16 00 7a 09     ..y.=:GfR.PK..z.
     464:	2d 42 c7 a0 b5 0d 02 7b 0a bc 42 97 12 26 62 14     -B.....{..B..&b.
     474:	0a 7c 06 39 43 c7 21 7d 0b bc 42 87 18 85 4a 98     .|.9C.!}..B...J.
     484:	48 00 7e 09 1d 52 4f a4 24 52 02 a0 05 00 62 07     H.~..RO.$R....b.
     494:	a1 07 39 43 47 32 08 a2 0e 3d 3e 57 36 28 51 12     ..9CG2...=>W6(Q.
     4a4:	25 d9 10 45 00 a3 0c 3d 42 97 54 c9 b6 30 52 14     %..E...=B.T..0R.
     4b4:	00 a4 0b 2d 42 47 96 4c 49 b4 64 01 a5 0d 45 3e     ...-BG.LI.d...E>
     4c4:	47 a6 25 b5 68 90 c2 12 00 a6 06 39 43 c7 32 a7     G.%.h......9C.2.
     4d4:	0b 45 3e cf 12 4e 9d c6 64 01 a8 06 8b 5e 47 12     .E>..N..d....^G.
     4e4:	a9 0d 3d 42 cf 92 29 c9 a4 24 5a b2 00 aa 0a b4     ..=B..)..$Z.....
     4f4:	46 cf 10 29 4a 71 08 ab 0c 2e 42 57 25 4a a2 2c     F..)Jq....BW%J.,
     504:	ca a2 00 ac 07 94 4a c7 90 05 ad 06 8c 4e c7 10     ......J......N..
     514:	ae 0c 3d 42 cf 92 0d c9 34 69 c9 02 af 06 0d 5e     ..=B....4i.....^
     524:	c7 20 b0 07 9b 52 4f 17 00 b1 0b 35 42 57 18 0d     . ...RO....5BW..
     534:	52 18 0d 02 b2 09 ac 4e 8f 12 35 0d 01 b3 09 ac     R......N..5.....
     544:	4e c7 98 88 43 02 b4 06 12 5b 8f 02 b5 0a 35 3e     N...C....[....5>
     554:	47 66 9b 14 25 04 b6 0f 3d 42 cf 30 24 43 92 28     Gf..%...=B.0$C.(
     564:	51 12 25 51 12 b7 06 09 4f 47 00 b8 06 12 3b 8f     Q.%Q....OG....;.
     574:	02 b9 08 ab 4e 4f 22 55 06 ba 0a b4 46 8f 12 49     ....NO"U....F..I
     584:	89 3a 04 bb 0d 2e 42 47 94 45 59 94 44 49 14 01     .:....BG.EY.DI..
     594:	bc 0d 4e 3e 4f a8 16 a7 50 4b a2 21 0d bd 0c 4e     ..N>O...PK.!...N
     5a4:	3e 4f a8 16 97 30 49 c3 70 be 0e 4d 3e 87 9a a5     >O...0I.p..M>...
     5b4:	91 94 49 49 32 84 01 bf 0a 3d 42 57 0e 85 59 cb     ..II2....=BW..Y.
     5c4:	02 c0 0c 45 42 4f 9a 2d 99 36 0c 99 16 c1 0c 45     ...EBO.-.6.....E
     5d4:	42 5f 6d c9 b4 61 c8 b4 00 c2 0d 45 42 57 96 44     B_m..a.....EBW.D
     5e4:	4b a6 0d 43 a6 05 c3 0d 45 42 4f a4 48 4b a6 0d     K..C....EBO.HK..
     5f4:	43 a6 05 c4 0c 45 42 4f 1d 58 32 6d 18 32 2d c5     C....EBO.X2m.2-.
     604:	0d 45 42 57 96 44 4b a6 0d 43 a6 05 c6 0c 3e 42     .EBW.DK..C....>B
     614:	d7 90 94 9a 86 21 6a 1a c7 0b 4d 3a cf 92 89 6d     .....!j...M:...m
     624:	c9 56 03 c8 0c 45 42 4f 36 8c e1 90 84 e1 20 c9     .V...EBO6..... .
     634:	0c 45 42 5f 32 8c e1 90 84 e1 20 ca 0c 45 42 57     .EB_2..... ..EBW
     644:	34 8c e1 90 84 e1 20 cb 0c 45 42 4f 65 18 c3 21     4..... ..EBOe..!
     654:	09 c3 41 cc 0a c3 42 47 96 2c 51 cb 00 cd 0a c3     ..A...BG.,Q.....
     664:	42 57 92 2c 51 cb 00 ce 0a c3 42 4f 65 48 a2 96     BW.,Q.....BOeH..
     674:	01 cf 0a c3 42 47 92 2d 51 cb 00 d0 0e 3d 42 c7     ....BG.-Q....=B.
     684:	10 55 a2 21 29 25 d1 a0 00 d1 0c 45 42 57 d2 6d     .U.!)%.....EBW.m
     694:	52 12 69 d3 02 d2 0b 45 42 4f 9a 2d 99 5b b2 00     R.i....EBO.-.[..
     6a4:	d3 0a 45 42 5f 6d c9 dc 92 05 d4 0c 45 42 57 96     ..EB_m......EBW.
     6b4:	44 4b e6 96 2c 00 d5 0b 45 42 57 d2 b4 64 6e c9     DK..,...EBW..dn.
     6c4:	02 d6 0b 45 42 4f 1d 58 32 b7 64 01 d7 0a 2d 42     ...EBO.X2.d...-B
     6d4:	47 96 d4 2a b5 00 d8 0c 3d 42 cf 12 5d 92 69 4a     G..*....=B..].iJ
     6e4:	16 00 d9 0a 45 42 4f 1a 65 de 92 05 da 0a 45 42     ....EBO.e.....EB
     6f4:	5f 29 f3 96 2c 00 db 0b 45 42 57 96 c4 99 5b b2     _)..,...EBW...[.
     704:	00 dc 0a 45 42 4f 39 f3 96 2c 00 dd 0b 45 42 5f     ...EBO9..,...EB_
     714:	29 d3 92 5a 58 02 de 0c 3d 42 47 38 24 d9 a0 84     )..ZX...=BG8$...
     724:	45 00 df 0d 3d 42 cf 92 49 49 a9 92 29 0a 00 e0     E...=B..II..)...
     734:	0c 45 42 4f 9a 23 6b 32 68 c9 10 e1 0c 45 42 5f     .EBO.#k2h....EB_
     744:	1d 59 93 41 4b 86 00 e2 0d 45 42 57 96 e4 c0 9a     .Y.AK....EBW....
     754:	0c 5a 32 04 e3 0d 45 42 57 d2 0e ac c9 a0 25 43     .Z2...EBW.....%C
     764:	00 e4 0c 3d 42 4f 1d 58 93 41 4b 86 00 e5 0d 45     ...=BO.X.AK....E
     774:	42 57 96 64 d9 9a 0c 5a 32 04 e6 0c 2e 42 cf 10     BW.d...Z2....B..
     784:	26 c9 30 65 83 00 e7 0b 3d 3a cf 92 89 59 b2 d5     &.0e....=:...Y..
     794:	00 e8 0c 45 42 4f 9a 23 4b 36 0c e9 02 e9 0c 45     ...EBO.#K6.....E
     7a4:	42 5f 1d 59 b2 61 48 17 00 ea 0d 45 42 57 96 e4     B_.Y.aH....EBW..
     7b4:	c0 92 0d 43 ba 00 eb 0c 3d 42 4f 1d 58 b2 61 48     ...C....=BO.X.aH
     7c4:	17 00 ec 09 c3 42 47 16 4a 2d 03 ed 08 c3 42 4f     .....BG.J-....BO
     7d4:	55 6a 19 ee 08 c3 42 4f 9b d4 32 ef 09 bb 42 47     Uj....BO..2...BG
     7e4:	92 49 2d 03 f0 0b 3d 42 87 2a 2d 99 2d 59 00 f1     .I-...=B.*-.-Y..
     7f4:	0b 45 42 57 d2 9c 98 34 5b 00 f2 0c 45 42 4f 9a     .EBW...4[...EBO.
     804:	23 4b 66 4b 16 00 f3 0b 45 42 5f 1d 59 32 5b b2     #KfK....EB_.Y2[.
     814:	00 f4 0c 45 42 57 96 e4 c0 92 d9 92 05 f5 0c 45     ...EBW.........E
     824:	42 57 d2 0e 2c 99 2d 59 00 f6 0b 3d 42 4f 1d 58     BW..,.-Y...=BO.X
     834:	32 5b b2 00 f7 0a 2d 46 57 0e 0c 3a 10 01 f8 0b     2[....-FW..:....
     844:	2d 42 cf 20 2d c9 34 28 00 f9 0b 45 42 4f 9a 03     -B. -.4(...EBO..
     854:	99 93 a2 04 fa 0a 45 42 5f 1d c8 9c 14 25 fb 0b     ......EB_....%..
     864:	45 42 57 96 c4 99 93 a2 04 fc 0a 3d 42 4f 39 73     EBW........=BO9s
     874:	52 94 00 fd 0d 4d 3a 5f 29 33 29 4a a8 25 0b 00     R....M:_)3)J.%..
     884:	fe 0c 45 3a 47 38 24 99 6d 50 c2 10 ff 0d 4d 3a     ..E:G8$.mP....M:
     894:	4f 39 33 29 4a a8 25 0b 00 00 00 00 04 ff ff 00     O93)J.%.........
	...

000008a6 <__ctors_end>:
     8a6:	11 24       	eor	r1, r1
     8a8:	1f be       	out	0x3f, r1	; 63
     8aa:	cf ef       	ldi	r28, 0xFF	; 255
     8ac:	d0 e1       	ldi	r29, 0x10	; 16
     8ae:	de bf       	out	0x3e, r29	; 62
     8b0:	cd bf       	out	0x3d, r28	; 61

000008b2 <__do_copy_data>:
     8b2:	11 e0       	ldi	r17, 0x01	; 1
     8b4:	a0 e0       	ldi	r26, 0x00	; 0
     8b6:	b1 e0       	ldi	r27, 0x01	; 1
     8b8:	e0 e7       	ldi	r30, 0x70	; 112
     8ba:	f9 e2       	ldi	r31, 0x29	; 41
     8bc:	00 e0       	ldi	r16, 0x00	; 0
     8be:	0b bf       	out	0x3b, r16	; 59
     8c0:	02 c0       	rjmp	.+4      	; 0x8c6 <__do_copy_data+0x14>
     8c2:	07 90       	elpm	r0, Z+
     8c4:	0d 92       	st	X+, r0
     8c6:	ac 36       	cpi	r26, 0x6C	; 108
     8c8:	b1 07       	cpc	r27, r17
     8ca:	d9 f7       	brne	.-10     	; 0x8c2 <__do_copy_data+0x10>

000008cc <__do_clear_bss>:
     8cc:	27 e0       	ldi	r18, 0x07	; 7
     8ce:	ac e6       	ldi	r26, 0x6C	; 108
     8d0:	b1 e0       	ldi	r27, 0x01	; 1
     8d2:	01 c0       	rjmp	.+2      	; 0x8d6 <.do_clear_bss_start>

000008d4 <.do_clear_bss_loop>:
     8d4:	1d 92       	st	X+, r1

000008d6 <.do_clear_bss_start>:
     8d6:	aa 3e       	cpi	r26, 0xEA	; 234
     8d8:	b2 07       	cpc	r27, r18
     8da:	e1 f7       	brne	.-8      	; 0x8d4 <.do_clear_bss_loop>
     8dc:	0e 94 10 0d 	call	0x1a20	; 0x1a20 <main>
     8e0:	0c 94 b6 14 	jmp	0x296c	; 0x296c <_exit>

000008e4 <__bad_interrupt>:
     8e4:	8d cb       	rjmp	.-2278   	; 0x0 <__vectors>

000008e6 <u8x8_avr_delay>:

uint8_t u8x8_avr_delay(u8x8_t *u8x8, uint8_t msg, uint8_t arg_int, void *arg_ptr)
{
	uint8_t cycles;

	switch(msg)
     8e6:	6a 32       	cpi	r22, 0x2A	; 42
     8e8:	51 f0       	breq	.+20     	; 0x8fe <u8x8_avr_delay+0x18>
     8ea:	18 f4       	brcc	.+6      	; 0x8f2 <u8x8_avr_delay+0xc>
     8ec:	69 32       	cpi	r22, 0x29	; 41
     8ee:	69 f0       	breq	.+26     	; 0x90a <u8x8_avr_delay+0x24>
     8f0:	3f c0       	rjmp	.+126    	; 0x970 <u8x8_avr_delay+0x8a>
     8f2:	6b 32       	cpi	r22, 0x2B	; 43
     8f4:	81 f0       	breq	.+32     	; 0x916 <u8x8_avr_delay+0x30>
     8f6:	6c 32       	cpi	r22, 0x2C	; 44
     8f8:	d9 f5       	brne	.+118    	; 0x970 <u8x8_avr_delay+0x8a>
				_delay_ms(1);
			break;
		default:
			return 0;
	}
	return 1;
     8fa:	81 e0       	ldi	r24, 0x01	; 1
     8fc:	08 95       	ret
			"1: sbiw %0,1" "\n\t" // 2 cycles
			"brne 1b" : "=w" (cycles) : "0" (cycles) // 2 cycles
			);
			break;
		case U8X8_MSG_DELAY_10MICRO:    // delay arg_int * 10 micro seconds
			for(int i=0 ; i < arg_int ; i++)
     8fe:	50 e0       	ldi	r21, 0x00	; 0
     900:	14 16       	cp	r1, r20
     902:	15 06       	cpc	r1, r21
     904:	dc f0       	brlt	.+54     	; 0x93c <u8x8_avr_delay+0x56>
				_delay_ms(1);
			break;
		default:
			return 0;
	}
	return 1;
     906:	81 e0       	ldi	r24, 0x01	; 1
     908:	08 95       	ret
		case U8X8_MSG_DELAY_10MICRO:    // delay arg_int * 10 micro seconds
			for(int i=0 ; i < arg_int ; i++)
				_delay_us(10);
			break;
		case U8X8_MSG_DELAY_MILLI:      // delay arg_int * 1 milli second
			for(int i=0 ; i < arg_int ; i++)
     90a:	50 e0       	ldi	r21, 0x00	; 0
     90c:	14 16       	cp	r1, r20
     90e:	15 06       	cpc	r1, r21
     910:	0c f1       	brlt	.+66     	; 0x954 <u8x8_avr_delay+0x6e>
				_delay_ms(1);
			break;
		default:
			return 0;
	}
	return 1;
     912:	81 e0       	ldi	r24, 0x01	; 1
     914:	08 95       	ret
#define CALL_CYCLES 26UL
#define CALC_CYCLES 4UL
#define RETURN_CYCLES 4UL
#define CYCLES_PER_LOOP 4UL

			cycles = (100UL * arg_int) / (P_CPU_NS * CYCLES_PER_LOOP);
     916:	24 2f       	mov	r18, r20
     918:	30 e0       	ldi	r19, 0x00	; 0
     91a:	a4 e6       	ldi	r26, 0x64	; 100
     91c:	b0 e0       	ldi	r27, 0x00	; 0
     91e:	0e 94 a0 14 	call	0x2940	; 0x2940 <__umulhisi3>
     922:	28 ef       	ldi	r18, 0xF8	; 248
     924:	30 e0       	ldi	r19, 0x00	; 0
     926:	40 e0       	ldi	r20, 0x00	; 0
     928:	50 e0       	ldi	r21, 0x00	; 0
     92a:	0e 94 7e 14 	call	0x28fc	; 0x28fc <__udivmodsi4>

			if(cycles > CALL_CYCLES + RETURN_CYCLES + CALC_CYCLES) 
     92e:	23 32       	cpi	r18, 0x23	; 35
     930:	08 f5       	brcc	.+66     	; 0x974 <u8x8_avr_delay+0x8e>
				break;

			__asm__ __volatile__ (
     932:	82 2f       	mov	r24, r18
     934:	01 97       	sbiw	r24, 0x01	; 1
     936:	f1 f7       	brne	.-4      	; 0x934 <u8x8_avr_delay+0x4e>
				_delay_ms(1);
			break;
		default:
			return 0;
	}
	return 1;
     938:	81 e0       	ldi	r24, 0x01	; 1

			__asm__ __volatile__ (
			"1: sbiw %0,1" "\n\t" // 2 cycles
			"brne 1b" : "=w" (cycles) : "0" (cycles) // 2 cycles
			);
			break;
     93a:	08 95       	ret
		case U8X8_MSG_DELAY_10MICRO:    // delay arg_int * 10 micro seconds
			for(int i=0 ; i < arg_int ; i++)
     93c:	80 e0       	ldi	r24, 0x00	; 0
     93e:	90 e0       	ldi	r25, 0x00	; 0
	#else
		//round up by default
		__ticks_dc = (uint32_t)(ceil(fabs(__tmp)));
	#endif

	__builtin_avr_delay_cycles(__ticks_dc);
     940:	25 e3       	ldi	r18, 0x35	; 53
     942:	2a 95       	dec	r18
     944:	f1 f7       	brne	.-4      	; 0x942 <u8x8_avr_delay+0x5c>
     946:	00 00       	nop
     948:	01 96       	adiw	r24, 0x01	; 1
     94a:	84 17       	cp	r24, r20
     94c:	95 07       	cpc	r25, r21
     94e:	c1 f7       	brne	.-16     	; 0x940 <u8x8_avr_delay+0x5a>
				_delay_ms(1);
			break;
		default:
			return 0;
	}
	return 1;
     950:	81 e0       	ldi	r24, 0x01	; 1
     952:	08 95       	ret
		case U8X8_MSG_DELAY_10MICRO:    // delay arg_int * 10 micro seconds
			for(int i=0 ; i < arg_int ; i++)
				_delay_us(10);
			break;
		case U8X8_MSG_DELAY_MILLI:      // delay arg_int * 1 milli second
			for(int i=0 ; i < arg_int ; i++)
     954:	80 e0       	ldi	r24, 0x00	; 0
     956:	90 e0       	ldi	r25, 0x00	; 0
	#else
		//round up by default
		__ticks_dc = (uint32_t)(ceil(fabs(__tmp)));
	#endif

	__builtin_avr_delay_cycles(__ticks_dc);
     958:	ef e9       	ldi	r30, 0x9F	; 159
     95a:	ff e0       	ldi	r31, 0x0F	; 15
     95c:	31 97       	sbiw	r30, 0x01	; 1
     95e:	f1 f7       	brne	.-4      	; 0x95c <u8x8_avr_delay+0x76>
     960:	00 c0       	rjmp	.+0      	; 0x962 <u8x8_avr_delay+0x7c>
     962:	00 00       	nop
     964:	01 96       	adiw	r24, 0x01	; 1
     966:	84 17       	cp	r24, r20
     968:	95 07       	cpc	r25, r21
     96a:	b1 f7       	brne	.-20     	; 0x958 <u8x8_avr_delay+0x72>
				_delay_ms(1);
			break;
		default:
			return 0;
	}
	return 1;
     96c:	81 e0       	ldi	r24, 0x01	; 1
     96e:	08 95       	ret
		case U8X8_MSG_DELAY_MILLI:      // delay arg_int * 1 milli second
			for(int i=0 ; i < arg_int ; i++)
				_delay_ms(1);
			break;
		default:
			return 0;
     970:	80 e0       	ldi	r24, 0x00	; 0
     972:	08 95       	ret
	}
	return 1;
     974:	81 e0       	ldi	r24, 0x01	; 1
}
     976:	08 95       	ret

00000978 <u8x8_avr_gpio_and_delay>:


uint8_t u8x8_avr_gpio_and_delay(u8x8_t *u8x8, uint8_t msg, uint8_t arg_int, void *arg_ptr)
{
     978:	cf 93       	push	r28
     97a:	df 93       	push	r29
	// Re-use library for delays

	switch(msg)
     97c:	6c 34       	cpi	r22, 0x4C	; 76
     97e:	39 f0       	breq	.+14     	; 0x98e <u8x8_avr_gpio_and_delay+0x16>
     980:	6d 34       	cpi	r22, 0x4D	; 77
     982:	59 f0       	breq	.+22     	; 0x99a <u8x8_avr_gpio_and_delay+0x22>
     984:	68 32       	cpi	r22, 0x28	; 40
     986:	79 f4       	brne	.+30     	; 0x9a6 <u8x8_avr_gpio_and_delay+0x2e>
	{
		case U8X8_MSG_GPIO_AND_DELAY_INIT:  // called once during init phase of u8g2/u8x8
			DISPLAY_CLK_DIR |= 1<<DISPLAY_CLK_PIN;
     988:	88 9a       	sbi	0x11, 0	; 17
			DISPLAY_DATA_DIR |= 1<<DISPLAY_DATA_PIN;
     98a:	89 9a       	sbi	0x11, 1	; 17
			break;              // can be used to setup pins
     98c:	12 c0       	rjmp	.+36     	; 0x9b2 <u8x8_avr_gpio_and_delay+0x3a>
		case U8X8_MSG_GPIO_I2C_CLOCK:        // Clock pin: Output level in arg_int
			if(arg_int)
     98e:	44 23       	and	r20, r20
     990:	11 f0       	breq	.+4      	; 0x996 <u8x8_avr_gpio_and_delay+0x1e>
				DISPLAY_CLK_PORT |= (1<<DISPLAY_CLK_PIN);
     992:	90 9a       	sbi	0x12, 0	; 18
     994:	0e c0       	rjmp	.+28     	; 0x9b2 <u8x8_avr_gpio_and_delay+0x3a>
			else
				DISPLAY_CLK_PORT &= ~(1<<DISPLAY_CLK_PIN);
     996:	90 98       	cbi	0x12, 0	; 18
     998:	0c c0       	rjmp	.+24     	; 0x9b2 <u8x8_avr_gpio_and_delay+0x3a>
			break;
		case U8X8_MSG_GPIO_I2C_DATA:        // Data pin: Output level in arg_int
			if(arg_int)
     99a:	44 23       	and	r20, r20
     99c:	11 f0       	breq	.+4      	; 0x9a2 <u8x8_avr_gpio_and_delay+0x2a>
				DISPLAY_DATA_PORT |= (1<<DISPLAY_DATA_PIN);
     99e:	91 9a       	sbi	0x12, 1	; 18
     9a0:	08 c0       	rjmp	.+16     	; 0x9b2 <u8x8_avr_gpio_and_delay+0x3a>
			else
				DISPLAY_DATA_PORT &= ~(1<<DISPLAY_DATA_PIN);
     9a2:	91 98       	cbi	0x12, 1	; 18
     9a4:	06 c0       	rjmp	.+12     	; 0x9b2 <u8x8_avr_gpio_and_delay+0x3a>
     9a6:	ec 01       	movw	r28, r24
			break;
		
		default:
			if (u8x8_avr_delay(u8x8, msg, arg_int, arg_ptr))	// check for any delay msgs
     9a8:	9e df       	rcall	.-196    	; 0x8e6 <u8x8_avr_delay>
     9aa:	81 11       	cpse	r24, r1
     9ac:	02 c0       	rjmp	.+4      	; 0x9b2 <u8x8_avr_gpio_and_delay+0x3a>
				return 1;
			u8x8_SetGPIOResult(u8x8, 1);      // default return value
     9ae:	81 e0       	ldi	r24, 0x01	; 1
     9b0:	8a 8f       	std	Y+26, r24	; 0x1a
			break;
	}
	return 1;
}
     9b2:	81 e0       	ldi	r24, 0x01	; 1
     9b4:	df 91       	pop	r29
     9b6:	cf 91       	pop	r28
     9b8:	08 95       	ret

000009ba <u8g2_prepare>:


void u8g2_prepare(void) {
	u8g2_SetFont(&u8g2, u8g2_font_6x10_tf);
     9ba:	64 ec       	ldi	r22, 0xC4	; 196
     9bc:	70 e0       	ldi	r23, 0x00	; 0
     9be:	84 e8       	ldi	r24, 0x84	; 132
     9c0:	96 e0       	ldi	r25, 0x06	; 6
     9c2:	0e 94 05 0f 	call	0x1e0a	; 0x1e0a <u8g2_SetFont>
	u8g2_SetFontRefHeightExtendedText(&u8g2);
     9c6:	84 e8       	ldi	r24, 0x84	; 132
     9c8:	96 e0       	ldi	r25, 0x06	; 6
     9ca:	0e 94 f2 0e 	call	0x1de4	; 0x1de4 <u8g2_SetFontRefHeightExtendedText>
	u8g2_SetDrawColor(&u8g2, 1);
     9ce:	61 e0       	ldi	r22, 0x01	; 1
     9d0:	84 e8       	ldi	r24, 0x84	; 132
     9d2:	96 e0       	ldi	r25, 0x06	; 6
     9d4:	0e 94 ad 0f 	call	0x1f5a	; 0x1f5a <u8g2_SetDrawColor>
	u8g2_SetFontPosTop(&u8g2);
     9d8:	84 e8       	ldi	r24, 0x84	; 132
     9da:	96 e0       	ldi	r25, 0x06	; 6
     9dc:	0e 94 ff 0e 	call	0x1dfe	; 0x1dfe <u8g2_SetFontPosTop>
	u8g2_SetFontDirection(&u8g2, 0);
     9e0:	60 e0       	ldi	r22, 0x00	; 0
     9e2:	84 e8       	ldi	r24, 0x84	; 132
     9e4:	96 e0       	ldi	r25, 0x06	; 6
     9e6:	0c 94 18 0f 	jmp	0x1e30	; 0x1e30 <u8g2_SetFontDirection>
     9ea:	08 95       	ret

000009ec <Collision>:
unsigned char next_board[8][8] = {0};

 

 unsigned char Collision()	//충돌 여부 확인
 {
     9ec:	cf 92       	push	r12
     9ee:	df 92       	push	r13
     9f0:	ef 92       	push	r14
     9f2:	ff 92       	push	r15
     9f4:	0f 93       	push	r16
     9f6:	1f 93       	push	r17
	 if( ((main_board[cur_line] & temp_line[0]) != 0) | ((main_board[cur_line + 1] & temp_line[1]) != 0) |
     9f8:	20 91 70 06 	lds	r18, 0x0670	; 0x800670 <cur_line>
     9fc:	30 e0       	ldi	r19, 0x00	; 0
     9fe:	f9 01       	movw	r30, r18
     a00:	ee 0f       	add	r30, r30
     a02:	ff 1f       	adc	r31, r31
     a04:	ee 0f       	add	r30, r30
     a06:	ff 1f       	adc	r31, r31
     a08:	ed 58       	subi	r30, 0x8D	; 141
     a0a:	fe 4f       	sbci	r31, 0xFE	; 254
     a0c:	40 81       	ld	r20, Z
     a0e:	51 81       	ldd	r21, Z+1	; 0x01
     a10:	62 81       	ldd	r22, Z+2	; 0x02
     a12:	73 81       	ldd	r23, Z+3	; 0x03
     a14:	80 91 77 06 	lds	r24, 0x0677	; 0x800677 <temp_line+0x4>
     a18:	90 91 78 06 	lds	r25, 0x0678	; 0x800678 <temp_line+0x5>
     a1c:	a0 91 79 06 	lds	r26, 0x0679	; 0x800679 <temp_line+0x6>
     a20:	b0 91 7a 06 	lds	r27, 0x067A	; 0x80067a <temp_line+0x7>
     a24:	48 23       	and	r20, r24
     a26:	59 23       	and	r21, r25
     a28:	6a 23       	and	r22, r26
     a2a:	7b 23       	and	r23, r27
     a2c:	91 e0       	ldi	r25, 0x01	; 1
     a2e:	45 2b       	or	r20, r21
     a30:	46 2b       	or	r20, r22
     a32:	47 2b       	or	r20, r23
     a34:	09 f4       	brne	.+2      	; 0xa38 <Collision+0x4c>
     a36:	90 e0       	ldi	r25, 0x00	; 0
	 ((main_board[cur_line + 2] & temp_line[2]) != 0) | ((main_board[cur_line + 3] & temp_line[3]) != 0) )
     a38:	f9 01       	movw	r30, r18
     a3a:	ee 0f       	add	r30, r30
     a3c:	ff 1f       	adc	r31, r31
     a3e:	ee 0f       	add	r30, r30
     a40:	ff 1f       	adc	r31, r31
     a42:	e9 58       	subi	r30, 0x89	; 137
     a44:	fe 4f       	sbci	r31, 0xFE	; 254
     a46:	c0 80       	ld	r12, Z
     a48:	d1 80       	ldd	r13, Z+1	; 0x01
     a4a:	e2 80       	ldd	r14, Z+2	; 0x02
     a4c:	f3 80       	ldd	r15, Z+3	; 0x03
     a4e:	40 91 7b 06 	lds	r20, 0x067B	; 0x80067b <temp_line+0x8>
     a52:	50 91 7c 06 	lds	r21, 0x067C	; 0x80067c <temp_line+0x9>
     a56:	60 91 7d 06 	lds	r22, 0x067D	; 0x80067d <temp_line+0xa>
     a5a:	70 91 7e 06 	lds	r23, 0x067E	; 0x80067e <temp_line+0xb>
     a5e:	4c 21       	and	r20, r12
     a60:	5d 21       	and	r21, r13
     a62:	6e 21       	and	r22, r14
     a64:	7f 21       	and	r23, r15
     a66:	81 e0       	ldi	r24, 0x01	; 1
     a68:	45 2b       	or	r20, r21
     a6a:	46 2b       	or	r20, r22
     a6c:	47 2b       	or	r20, r23
     a6e:	09 f4       	brne	.+2      	; 0xa72 <Collision+0x86>
     a70:	80 e0       	ldi	r24, 0x00	; 0
     a72:	89 2b       	or	r24, r25

 

 unsigned char Collision()	//충돌 여부 확인
 {
	 if( ((main_board[cur_line] & temp_line[0]) != 0) | ((main_board[cur_line + 1] & temp_line[1]) != 0) |
     a74:	f9 01       	movw	r30, r18
     a76:	ee 0f       	add	r30, r30
     a78:	ff 1f       	adc	r31, r31
     a7a:	ee 0f       	add	r30, r30
     a7c:	ff 1f       	adc	r31, r31
     a7e:	e1 59       	subi	r30, 0x91	; 145
     a80:	fe 4f       	sbci	r31, 0xFE	; 254
     a82:	c0 80       	ld	r12, Z
     a84:	d1 80       	ldd	r13, Z+1	; 0x01
     a86:	e2 80       	ldd	r14, Z+2	; 0x02
     a88:	f3 80       	ldd	r15, Z+3	; 0x03
     a8a:	40 91 73 06 	lds	r20, 0x0673	; 0x800673 <temp_line>
     a8e:	50 91 74 06 	lds	r21, 0x0674	; 0x800674 <temp_line+0x1>
     a92:	60 91 75 06 	lds	r22, 0x0675	; 0x800675 <temp_line+0x2>
     a96:	70 91 76 06 	lds	r23, 0x0676	; 0x800676 <temp_line+0x3>
     a9a:	4c 21       	and	r20, r12
     a9c:	5d 21       	and	r21, r13
     a9e:	6e 21       	and	r22, r14
     aa0:	7f 21       	and	r23, r15
     aa2:	91 e0       	ldi	r25, 0x01	; 1
     aa4:	45 2b       	or	r20, r21
     aa6:	46 2b       	or	r20, r22
     aa8:	47 2b       	or	r20, r23
     aaa:	09 f4       	brne	.+2      	; 0xaae <Collision+0xc2>
     aac:	90 e0       	ldi	r25, 0x00	; 0
     aae:	98 2b       	or	r25, r24
	 ((main_board[cur_line + 2] & temp_line[2]) != 0) | ((main_board[cur_line + 3] & temp_line[3]) != 0) )
     ab0:	22 0f       	add	r18, r18
     ab2:	33 1f       	adc	r19, r19
     ab4:	22 0f       	add	r18, r18
     ab6:	33 1f       	adc	r19, r19
     ab8:	f9 01       	movw	r30, r18
     aba:	e5 58       	subi	r30, 0x85	; 133
     abc:	fe 4f       	sbci	r31, 0xFE	; 254
     abe:	00 81       	ld	r16, Z
     ac0:	11 81       	ldd	r17, Z+1	; 0x01
     ac2:	22 81       	ldd	r18, Z+2	; 0x02
     ac4:	33 81       	ldd	r19, Z+3	; 0x03
     ac6:	40 91 7f 06 	lds	r20, 0x067F	; 0x80067f <temp_line+0xc>
     aca:	50 91 80 06 	lds	r21, 0x0680	; 0x800680 <temp_line+0xd>
     ace:	60 91 81 06 	lds	r22, 0x0681	; 0x800681 <temp_line+0xe>
     ad2:	70 91 82 06 	lds	r23, 0x0682	; 0x800682 <temp_line+0xf>
     ad6:	40 23       	and	r20, r16
     ad8:	51 23       	and	r21, r17
     ada:	62 23       	and	r22, r18
     adc:	73 23       	and	r23, r19
     ade:	81 e0       	ldi	r24, 0x01	; 1
     ae0:	45 2b       	or	r20, r21
     ae2:	46 2b       	or	r20, r22
     ae4:	47 2b       	or	r20, r23
     ae6:	09 f4       	brne	.+2      	; 0xaea <Collision+0xfe>
     ae8:	80 e0       	ldi	r24, 0x00	; 0
	 return 1;         // 충돌 1 리턴
	 else
	 return 0;  // 충돌 없음 0 리턴
 }
     aea:	89 2b       	or	r24, r25
     aec:	1f 91       	pop	r17
     aee:	0f 91       	pop	r16
     af0:	ff 90       	pop	r15
     af2:	ef 90       	pop	r14
     af4:	df 90       	pop	r13
     af6:	cf 90       	pop	r12
     af8:	08 95       	ret

00000afa <__vector_5>:

 ISR(INT4_vect)
 {
     afa:	1f 92       	push	r1
     afc:	0f 92       	push	r0
     afe:	0f b6       	in	r0, 0x3f	; 63
     b00:	0f 92       	push	r0
     b02:	11 24       	eor	r1, r1
     b04:	0b b6       	in	r0, 0x3b	; 59
     b06:	0f 92       	push	r0
     b08:	4f 92       	push	r4
     b0a:	5f 92       	push	r5
     b0c:	6f 92       	push	r6
     b0e:	7f 92       	push	r7
     b10:	8f 92       	push	r8
     b12:	9f 92       	push	r9
     b14:	af 92       	push	r10
     b16:	bf 92       	push	r11
     b18:	cf 92       	push	r12
     b1a:	df 92       	push	r13
     b1c:	ef 92       	push	r14
     b1e:	ff 92       	push	r15
     b20:	0f 93       	push	r16
     b22:	1f 93       	push	r17
     b24:	2f 93       	push	r18
     b26:	3f 93       	push	r19
     b28:	4f 93       	push	r20
     b2a:	5f 93       	push	r21
     b2c:	6f 93       	push	r22
     b2e:	7f 93       	push	r23
     b30:	8f 93       	push	r24
     b32:	9f 93       	push	r25
     b34:	af 93       	push	r26
     b36:	bf 93       	push	r27
     b38:	ef 93       	push	r30
     b3a:	ff 93       	push	r31
     b3c:	cf 93       	push	r28
     b3e:	df 93       	push	r29
     b40:	cd b7       	in	r28, 0x3d	; 61
     b42:	de b7       	in	r29, 0x3e	; 62
     b44:	25 97       	sbiw	r28, 0x05	; 5
     b46:	de bf       	out	0x3e, r29	; 62
     b48:	cd bf       	out	0x3d, r28	; 61
     b4a:	ef e6       	ldi	r30, 0x6F	; 111
     b4c:	f1 e0       	ldi	r31, 0x01	; 1
     b4e:	aa ee       	ldi	r26, 0xEA	; 234
     b50:	b6 e0       	ldi	r27, 0x06	; 6
     b52:	8f e6       	ldi	r24, 0x6F	; 111
     b54:	92 e0       	ldi	r25, 0x02	; 2
	 
	 for(int i = 0; i < 64; i++)
	 {
		 game_board[i] = main_board[i];	//굳어진후 저장된 보드를 변화하는 보드로 복사
     b56:	41 91       	ld	r20, Z+
     b58:	51 91       	ld	r21, Z+
     b5a:	61 91       	ld	r22, Z+
     b5c:	71 91       	ld	r23, Z+
     b5e:	4d 93       	st	X+, r20
     b60:	5d 93       	st	X+, r21
     b62:	6d 93       	st	X+, r22
     b64:	7d 93       	st	X+, r23
 }

 ISR(INT4_vect)
 {
	 
	 for(int i = 0; i < 64; i++)
     b66:	8e 17       	cp	r24, r30
     b68:	9f 07       	cpc	r25, r31
     b6a:	a9 f7       	brne	.-22     	; 0xb56 <__vector_5+0x5c>
	 {
		 game_board[i] = main_board[i];	//굳어진후 저장된 보드를 변화하는 보드로 복사
	 }

	 cur_col--;
     b6c:	20 91 71 06 	lds	r18, 0x0671	; 0x800671 <cur_col>
     b70:	2d 83       	std	Y+5, r18	; 0x05
     b72:	82 2f       	mov	r24, r18
     b74:	81 50       	subi	r24, 0x01	; 1
     b76:	80 93 71 06 	sts	0x0671, r24	; 0x800671 <cur_col>
	  {
		  temp_line[i] = 0;
	  }


	 temp_line[0] = ((unsigned long int)(tetriminos[shape][pattern] & 0xF000) >> 12) << (cur_col - 3);	//이 과정이 필요 없고 뒤에서 한번에 충돌감지 이후 넣어줘도 상관없어 보이지만 충돌 여부 판별하는 함수가 temp_line와 메인보드가 겹치는지 파악하기때문에 temp_line에 변화된 사항을 반영해야 한다.
     b7a:	90 91 83 06 	lds	r25, 0x0683	; 0x800683 <shape>
     b7e:	e0 91 72 06 	lds	r30, 0x0672	; 0x800672 <pattern>
     b82:	f0 e0       	ldi	r31, 0x00	; 0
     b84:	34 e0       	ldi	r19, 0x04	; 4
     b86:	93 9f       	mul	r25, r19
     b88:	e0 0d       	add	r30, r0
     b8a:	f1 1d       	adc	r31, r1
     b8c:	11 24       	eor	r1, r1
     b8e:	ee 0f       	add	r30, r30
     b90:	ff 1f       	adc	r31, r31
     b92:	e4 57       	subi	r30, 0x74	; 116
     b94:	ff 4f       	sbci	r31, 0xFF	; 255
     b96:	25 91       	lpm	r18, Z+
     b98:	35 91       	lpm	r19, Z+
     b9a:	29 01       	movw	r4, r18
     b9c:	45 2c       	mov	r4, r5
     b9e:	55 24       	eor	r5, r5
     ba0:	46 94       	lsr	r4
     ba2:	46 94       	lsr	r4
     ba4:	46 94       	lsr	r4
     ba6:	46 94       	lsr	r4
     ba8:	61 2c       	mov	r6, r1
     baa:	71 2c       	mov	r7, r1
     bac:	90 e0       	ldi	r25, 0x00	; 0
     bae:	03 97       	sbiw	r24, 0x03	; 3
     bb0:	e3 e7       	ldi	r30, 0x73	; 115
     bb2:	f6 e0       	ldi	r31, 0x06	; 6
     bb4:	b3 01       	movw	r22, r6
     bb6:	a2 01       	movw	r20, r4
     bb8:	08 2e       	mov	r0, r24
     bba:	04 c0       	rjmp	.+8      	; 0xbc4 <__vector_5+0xca>
     bbc:	44 0f       	add	r20, r20
     bbe:	55 1f       	adc	r21, r21
     bc0:	66 1f       	adc	r22, r22
     bc2:	77 1f       	adc	r23, r23
     bc4:	0a 94       	dec	r0
     bc6:	d2 f7       	brpl	.-12     	; 0xbbc <__vector_5+0xc2>
     bc8:	40 83       	st	Z, r20
     bca:	51 83       	std	Z+1, r21	; 0x01
     bcc:	62 83       	std	Z+2, r22	; 0x02
     bce:	73 83       	std	Z+3, r23	; 0x03
	 temp_line[1] = ((unsigned long int)(tetriminos[shape][pattern] & 0x0F00) >> 8) << (cur_col - 3);
     bd0:	49 01       	movw	r8, r18
     bd2:	88 24       	eor	r8, r8
     bd4:	4f e0       	ldi	r20, 0x0F	; 15
     bd6:	94 22       	and	r9, r20
     bd8:	a1 2c       	mov	r10, r1
     bda:	b1 2c       	mov	r11, r1
     bdc:	89 2c       	mov	r8, r9
     bde:	9a 2c       	mov	r9, r10
     be0:	ab 2c       	mov	r10, r11
     be2:	bb 24       	eor	r11, r11
     be4:	b5 01       	movw	r22, r10
     be6:	a4 01       	movw	r20, r8
     be8:	08 2e       	mov	r0, r24
     bea:	04 c0       	rjmp	.+8      	; 0xbf4 <__vector_5+0xfa>
     bec:	44 0f       	add	r20, r20
     bee:	55 1f       	adc	r21, r21
     bf0:	66 1f       	adc	r22, r22
     bf2:	77 1f       	adc	r23, r23
     bf4:	0a 94       	dec	r0
     bf6:	d2 f7       	brpl	.-12     	; 0xbec <__vector_5+0xf2>
     bf8:	44 83       	std	Z+4, r20	; 0x04
     bfa:	55 83       	std	Z+5, r21	; 0x05
     bfc:	66 83       	std	Z+6, r22	; 0x06
     bfe:	77 83       	std	Z+7, r23	; 0x07
	 temp_line[2] = ((unsigned long int)(tetriminos[shape][pattern] & 0x00F0) >> 4) << (cur_col - 3);
     c00:	69 01       	movw	r12, r18
     c02:	50 ef       	ldi	r21, 0xF0	; 240
     c04:	c5 22       	and	r12, r21
     c06:	dd 24       	eor	r13, r13
     c08:	e1 2c       	mov	r14, r1
     c0a:	f1 2c       	mov	r15, r1
     c0c:	68 94       	set
     c0e:	13 f8       	bld	r1, 3
     c10:	f6 94       	lsr	r15
     c12:	e7 94       	ror	r14
     c14:	d7 94       	ror	r13
     c16:	c7 94       	ror	r12
     c18:	16 94       	lsr	r1
     c1a:	d1 f7       	brne	.-12     	; 0xc10 <__vector_5+0x116>
     c1c:	b7 01       	movw	r22, r14
     c1e:	a6 01       	movw	r20, r12
     c20:	08 2e       	mov	r0, r24
     c22:	04 c0       	rjmp	.+8      	; 0xc2c <__vector_5+0x132>
     c24:	44 0f       	add	r20, r20
     c26:	55 1f       	adc	r21, r21
     c28:	66 1f       	adc	r22, r22
     c2a:	77 1f       	adc	r23, r23
     c2c:	0a 94       	dec	r0
     c2e:	d2 f7       	brpl	.-12     	; 0xc24 <__vector_5+0x12a>
     c30:	40 87       	std	Z+8, r20	; 0x08
     c32:	51 87       	std	Z+9, r21	; 0x09
     c34:	62 87       	std	Z+10, r22	; 0x0a
     c36:	73 87       	std	Z+11, r23	; 0x0b
	 temp_line[3] = ((unsigned long int)(tetriminos[shape][pattern] & 0x000F)) << (cur_col - 3);
     c38:	2f 70       	andi	r18, 0x0F	; 15
     c3a:	33 27       	eor	r19, r19
     c3c:	a9 01       	movw	r20, r18
     c3e:	60 e0       	ldi	r22, 0x00	; 0
     c40:	70 e0       	ldi	r23, 0x00	; 0
     c42:	49 83       	std	Y+1, r20	; 0x01
     c44:	5a 83       	std	Y+2, r21	; 0x02
     c46:	6b 83       	std	Y+3, r22	; 0x03
     c48:	7c 83       	std	Y+4, r23	; 0x04
     c4a:	04 c0       	rjmp	.+8      	; 0xc54 <__vector_5+0x15a>
     c4c:	44 0f       	add	r20, r20
     c4e:	55 1f       	adc	r21, r21
     c50:	66 1f       	adc	r22, r22
     c52:	77 1f       	adc	r23, r23
     c54:	8a 95       	dec	r24
     c56:	d2 f7       	brpl	.-12     	; 0xc4c <__vector_5+0x152>
     c58:	44 87       	std	Z+12, r20	; 0x0c
     c5a:	55 87       	std	Z+13, r21	; 0x0d
     c5c:	66 87       	std	Z+14, r22	; 0x0e
     c5e:	77 87       	std	Z+15, r23	; 0x0f

	 
	 if(Collision() == 1) cur_col++;
     c60:	c5 de       	rcall	.-630    	; 0x9ec <Collision>
     c62:	81 30       	cpi	r24, 0x01	; 1
     c64:	19 f4       	brne	.+6      	; 0xc6c <__vector_5+0x172>
     c66:	5d 81       	ldd	r21, Y+5	; 0x05
     c68:	50 93 71 06 	sts	0x0671, r21	; 0x800671 <cur_col>
	 for(int i = 0; i < 4; i++)	//테트리미노스 라인 임시 저장소 초기화
	 {
		 temp_line[i] = 0;
	 }

	 temp_line[0] = ((unsigned long int)(tetriminos[shape][pattern] & 0xF000) >> 12) << (cur_col - 3);
     c6c:	80 91 71 06 	lds	r24, 0x0671	; 0x800671 <cur_col>
     c70:	90 e0       	ldi	r25, 0x00	; 0
     c72:	03 97       	sbiw	r24, 0x03	; 3
     c74:	08 2e       	mov	r0, r24
     c76:	04 c0       	rjmp	.+8      	; 0xc80 <__vector_5+0x186>
     c78:	44 0c       	add	r4, r4
     c7a:	55 1c       	adc	r5, r5
     c7c:	66 1c       	adc	r6, r6
     c7e:	77 1c       	adc	r7, r7
     c80:	0a 94       	dec	r0
     c82:	d2 f7       	brpl	.-12     	; 0xc78 <__vector_5+0x17e>
     c84:	e3 e7       	ldi	r30, 0x73	; 115
     c86:	f6 e0       	ldi	r31, 0x06	; 6
     c88:	40 82       	st	Z, r4
     c8a:	51 82       	std	Z+1, r5	; 0x01
     c8c:	62 82       	std	Z+2, r6	; 0x02
     c8e:	73 82       	std	Z+3, r7	; 0x03
	 temp_line[1] = ((unsigned long int)(tetriminos[shape][pattern] & 0x0F00) >> 8) << (cur_col - 3);
     c90:	08 2e       	mov	r0, r24
     c92:	04 c0       	rjmp	.+8      	; 0xc9c <__vector_5+0x1a2>
     c94:	88 0c       	add	r8, r8
     c96:	99 1c       	adc	r9, r9
     c98:	aa 1c       	adc	r10, r10
     c9a:	bb 1c       	adc	r11, r11
     c9c:	0a 94       	dec	r0
     c9e:	d2 f7       	brpl	.-12     	; 0xc94 <__vector_5+0x19a>
     ca0:	84 82       	std	Z+4, r8	; 0x04
     ca2:	95 82       	std	Z+5, r9	; 0x05
     ca4:	a6 82       	std	Z+6, r10	; 0x06
     ca6:	b7 82       	std	Z+7, r11	; 0x07
	 temp_line[2] = ((unsigned long int)(tetriminos[shape][pattern] & 0x00F0) >> 4) << (cur_col - 3);
     ca8:	08 2e       	mov	r0, r24
     caa:	04 c0       	rjmp	.+8      	; 0xcb4 <__vector_5+0x1ba>
     cac:	cc 0c       	add	r12, r12
     cae:	dd 1c       	adc	r13, r13
     cb0:	ee 1c       	adc	r14, r14
     cb2:	ff 1c       	adc	r15, r15
     cb4:	0a 94       	dec	r0
     cb6:	d2 f7       	brpl	.-12     	; 0xcac <__vector_5+0x1b2>
     cb8:	c0 86       	std	Z+8, r12	; 0x08
     cba:	d1 86       	std	Z+9, r13	; 0x09
     cbc:	e2 86       	std	Z+10, r14	; 0x0a
     cbe:	f3 86       	std	Z+11, r15	; 0x0b
	 temp_line[3] = ((unsigned long int)(tetriminos[shape][pattern] & 0x000F)) << (cur_col - 3);
     cc0:	49 81       	ldd	r20, Y+1	; 0x01
     cc2:	5a 81       	ldd	r21, Y+2	; 0x02
     cc4:	6b 81       	ldd	r22, Y+3	; 0x03
     cc6:	7c 81       	ldd	r23, Y+4	; 0x04
     cc8:	04 c0       	rjmp	.+8      	; 0xcd2 <__vector_5+0x1d8>
     cca:	44 0f       	add	r20, r20
     ccc:	55 1f       	adc	r21, r21
     cce:	66 1f       	adc	r22, r22
     cd0:	77 1f       	adc	r23, r23
     cd2:	8a 95       	dec	r24
     cd4:	d2 f7       	brpl	.-12     	; 0xcca <__vector_5+0x1d0>
     cd6:	44 87       	std	Z+12, r20	; 0x0c
     cd8:	55 87       	std	Z+13, r21	; 0x0d
     cda:	66 87       	std	Z+14, r22	; 0x0e
     cdc:	77 87       	std	Z+15, r23	; 0x0f

	 
	 game_board[cur_line] |= temp_line[0];	//현재라인 아래로 이동 후 변화하는 보드에 반영
     cde:	80 91 70 06 	lds	r24, 0x0670	; 0x800670 <cur_line>
     ce2:	90 e0       	ldi	r25, 0x00	; 0
     ce4:	fc 01       	movw	r30, r24
     ce6:	ee 0f       	add	r30, r30
     ce8:	ff 1f       	adc	r31, r31
     cea:	ee 0f       	add	r30, r30
     cec:	ff 1f       	adc	r31, r31
     cee:	e6 51       	subi	r30, 0x16	; 22
     cf0:	f9 4f       	sbci	r31, 0xF9	; 249
     cf2:	00 81       	ld	r16, Z
     cf4:	11 81       	ldd	r17, Z+1	; 0x01
     cf6:	22 81       	ldd	r18, Z+2	; 0x02
     cf8:	33 81       	ldd	r19, Z+3	; 0x03
     cfa:	40 2a       	or	r4, r16
     cfc:	51 2a       	or	r5, r17
     cfe:	62 2a       	or	r6, r18
     d00:	73 2a       	or	r7, r19
     d02:	40 82       	st	Z, r4
     d04:	51 82       	std	Z+1, r5	; 0x01
     d06:	62 82       	std	Z+2, r6	; 0x02
     d08:	73 82       	std	Z+3, r7	; 0x03
	 game_board[cur_line + 1] |= temp_line[1];
     d0a:	fc 01       	movw	r30, r24
     d0c:	ee 0f       	add	r30, r30
     d0e:	ff 1f       	adc	r31, r31
     d10:	ee 0f       	add	r30, r30
     d12:	ff 1f       	adc	r31, r31
     d14:	e2 51       	subi	r30, 0x12	; 18
     d16:	f9 4f       	sbci	r31, 0xF9	; 249
     d18:	40 80       	ld	r4, Z
     d1a:	51 80       	ldd	r5, Z+1	; 0x01
     d1c:	62 80       	ldd	r6, Z+2	; 0x02
     d1e:	73 80       	ldd	r7, Z+3	; 0x03
     d20:	84 28       	or	r8, r4
     d22:	95 28       	or	r9, r5
     d24:	a6 28       	or	r10, r6
     d26:	b7 28       	or	r11, r7
     d28:	80 82       	st	Z, r8
     d2a:	91 82       	std	Z+1, r9	; 0x01
     d2c:	a2 82       	std	Z+2, r10	; 0x02
     d2e:	b3 82       	std	Z+3, r11	; 0x03
	 game_board[cur_line + 2] |= temp_line[2];
     d30:	fc 01       	movw	r30, r24
     d32:	ee 0f       	add	r30, r30
     d34:	ff 1f       	adc	r31, r31
     d36:	ee 0f       	add	r30, r30
     d38:	ff 1f       	adc	r31, r31
     d3a:	ee 50       	subi	r30, 0x0E	; 14
     d3c:	f9 4f       	sbci	r31, 0xF9	; 249
     d3e:	80 80       	ld	r8, Z
     d40:	91 80       	ldd	r9, Z+1	; 0x01
     d42:	a2 80       	ldd	r10, Z+2	; 0x02
     d44:	b3 80       	ldd	r11, Z+3	; 0x03
     d46:	c8 28       	or	r12, r8
     d48:	d9 28       	or	r13, r9
     d4a:	ea 28       	or	r14, r10
     d4c:	fb 28       	or	r15, r11
     d4e:	c0 82       	st	Z, r12
     d50:	d1 82       	std	Z+1, r13	; 0x01
     d52:	e2 82       	std	Z+2, r14	; 0x02
     d54:	f3 82       	std	Z+3, r15	; 0x03
	 game_board[cur_line + 3] |= temp_line[3];
     d56:	88 0f       	add	r24, r24
     d58:	99 1f       	adc	r25, r25
     d5a:	88 0f       	add	r24, r24
     d5c:	99 1f       	adc	r25, r25
     d5e:	fc 01       	movw	r30, r24
     d60:	ea 50       	subi	r30, 0x0A	; 10
     d62:	f9 4f       	sbci	r31, 0xF9	; 249
     d64:	80 81       	ld	r24, Z
     d66:	91 81       	ldd	r25, Z+1	; 0x01
     d68:	a2 81       	ldd	r26, Z+2	; 0x02
     d6a:	b3 81       	ldd	r27, Z+3	; 0x03
     d6c:	48 2b       	or	r20, r24
     d6e:	59 2b       	or	r21, r25
     d70:	6a 2b       	or	r22, r26
     d72:	7b 2b       	or	r23, r27
     d74:	40 83       	st	Z, r20
     d76:	51 83       	std	Z+1, r21	; 0x01
     d78:	62 83       	std	Z+2, r22	; 0x02
     d7a:	73 83       	std	Z+3, r23	; 0x03

 }
     d7c:	0f 90       	pop	r0
     d7e:	0f 90       	pop	r0
     d80:	0f 90       	pop	r0
     d82:	0f 90       	pop	r0
     d84:	0f 90       	pop	r0
     d86:	df 91       	pop	r29
     d88:	cf 91       	pop	r28
     d8a:	ff 91       	pop	r31
     d8c:	ef 91       	pop	r30
     d8e:	bf 91       	pop	r27
     d90:	af 91       	pop	r26
     d92:	9f 91       	pop	r25
     d94:	8f 91       	pop	r24
     d96:	7f 91       	pop	r23
     d98:	6f 91       	pop	r22
     d9a:	5f 91       	pop	r21
     d9c:	4f 91       	pop	r20
     d9e:	3f 91       	pop	r19
     da0:	2f 91       	pop	r18
     da2:	1f 91       	pop	r17
     da4:	0f 91       	pop	r16
     da6:	ff 90       	pop	r15
     da8:	ef 90       	pop	r14
     daa:	df 90       	pop	r13
     dac:	cf 90       	pop	r12
     dae:	bf 90       	pop	r11
     db0:	af 90       	pop	r10
     db2:	9f 90       	pop	r9
     db4:	8f 90       	pop	r8
     db6:	7f 90       	pop	r7
     db8:	6f 90       	pop	r6
     dba:	5f 90       	pop	r5
     dbc:	4f 90       	pop	r4
     dbe:	0f 90       	pop	r0
     dc0:	0b be       	out	0x3b, r0	; 59
     dc2:	0f 90       	pop	r0
     dc4:	0f be       	out	0x3f, r0	; 63
     dc6:	0f 90       	pop	r0
     dc8:	1f 90       	pop	r1
     dca:	18 95       	reti

00000dcc <__vector_6>:

 ISR(INT5_vect)
 {
     dcc:	1f 92       	push	r1
     dce:	0f 92       	push	r0
     dd0:	0f b6       	in	r0, 0x3f	; 63
     dd2:	0f 92       	push	r0
     dd4:	11 24       	eor	r1, r1
     dd6:	0b b6       	in	r0, 0x3b	; 59
     dd8:	0f 92       	push	r0
     dda:	4f 92       	push	r4
     ddc:	5f 92       	push	r5
     dde:	6f 92       	push	r6
     de0:	7f 92       	push	r7
     de2:	8f 92       	push	r8
     de4:	9f 92       	push	r9
     de6:	af 92       	push	r10
     de8:	bf 92       	push	r11
     dea:	cf 92       	push	r12
     dec:	df 92       	push	r13
     dee:	ef 92       	push	r14
     df0:	ff 92       	push	r15
     df2:	0f 93       	push	r16
     df4:	1f 93       	push	r17
     df6:	2f 93       	push	r18
     df8:	3f 93       	push	r19
     dfa:	4f 93       	push	r20
     dfc:	5f 93       	push	r21
     dfe:	6f 93       	push	r22
     e00:	7f 93       	push	r23
     e02:	8f 93       	push	r24
     e04:	9f 93       	push	r25
     e06:	af 93       	push	r26
     e08:	bf 93       	push	r27
     e0a:	cf 93       	push	r28
     e0c:	df 93       	push	r29
     e0e:	ef 93       	push	r30
     e10:	ff 93       	push	r31
     e12:	ef e6       	ldi	r30, 0x6F	; 111
     e14:	f1 e0       	ldi	r31, 0x01	; 1
     e16:	aa ee       	ldi	r26, 0xEA	; 234
     e18:	b6 e0       	ldi	r27, 0x06	; 6
     e1a:	8f e6       	ldi	r24, 0x6F	; 111
     e1c:	92 e0       	ldi	r25, 0x02	; 2
	 for(int i = 0; i < 64; i++)
	 {
		 game_board[i] = main_board[i];	//굳어진후 저장된 보드를 변화하는 보드로 복사
     e1e:	41 91       	ld	r20, Z+
     e20:	51 91       	ld	r21, Z+
     e22:	61 91       	ld	r22, Z+
     e24:	71 91       	ld	r23, Z+
     e26:	4d 93       	st	X+, r20
     e28:	5d 93       	st	X+, r21
     e2a:	6d 93       	st	X+, r22
     e2c:	7d 93       	st	X+, r23

 }

 ISR(INT5_vect)
 {
	 for(int i = 0; i < 64; i++)
     e2e:	8e 17       	cp	r24, r30
     e30:	9f 07       	cpc	r25, r31
     e32:	a9 f7       	brne	.-22     	; 0xe1e <__vector_6+0x52>
	 {
		 game_board[i] = main_board[i];	//굳어진후 저장된 보드를 변화하는 보드로 복사
	 }

	 pattern++;	//회전으로 상태 변화
     e34:	80 91 72 06 	lds	r24, 0x0672	; 0x800672 <pattern>
     e38:	8f 5f       	subi	r24, 0xFF	; 255
	 if(pattern == 4) pattern = 0; //마지막에서 처음으로
     e3a:	84 30       	cpi	r24, 0x04	; 4
     e3c:	39 f4       	brne	.+14     	; 0xe4c <__vector_6+0x80>
     e3e:	10 92 72 06 	sts	0x0672, r1	; 0x800672 <pattern>
     e42:	06 c0       	rjmp	.+12     	; 0xe50 <__vector_6+0x84>
	 temp_line[0] = ((unsigned long int)(tetriminos[shape][pattern] & 0xF000) >> 12) << (cur_col - 3);	//이 과정이 필요 없고 뒤에서 한번에 충돌감지 이후 넣어줘도 상관없어 보이지만 충돌 여부 판별하는 함수가 temp_line와 메인보드가 겹치는지 파악하기때문에 temp_line에 변화된 사항을 반영해야 한다.
	 temp_line[1] = ((unsigned long int)(tetriminos[shape][pattern] & 0x0F00) >> 8) << (cur_col - 3);
	 temp_line[2] = ((unsigned long int)(tetriminos[shape][pattern] & 0x00F0) >> 4) << (cur_col - 3);
	 temp_line[3] = ((unsigned long int)(tetriminos[shape][pattern] & 0x000F)) << (cur_col - 3);

	 if(Collision() == 1) pattern--;
     e44:	fa 94       	dec	r15
     e46:	f0 92 72 06 	sts	0x0672, r15	; 0x800672 <pattern>
     e4a:	6f c0       	rjmp	.+222    	; 0xf2a <__vector_6+0x15e>
	 for(int i = 0; i < 64; i++)
	 {
		 game_board[i] = main_board[i];	//굳어진후 저장된 보드를 변화하는 보드로 복사
	 }

	 pattern++;	//회전으로 상태 변화
     e4c:	80 93 72 06 	sts	0x0672, r24	; 0x800672 <pattern>
	 for(int i = 0; i < 4; i++)	//테트리미노스 라인 임시 저장소 초기화
	 {
		 temp_line[i] = 0;
	 }

	 temp_line[0] = ((unsigned long int)(tetriminos[shape][pattern] & 0xF000) >> 12) << (cur_col - 3);	//이 과정이 필요 없고 뒤에서 한번에 충돌감지 이후 넣어줘도 상관없어 보이지만 충돌 여부 판별하는 함수가 temp_line와 메인보드가 겹치는지 파악하기때문에 temp_line에 변화된 사항을 반영해야 한다.
     e50:	00 91 83 06 	lds	r16, 0x0683	; 0x800683 <shape>
     e54:	10 e0       	ldi	r17, 0x00	; 0
     e56:	f0 90 72 06 	lds	r15, 0x0672	; 0x800672 <pattern>
     e5a:	f8 01       	movw	r30, r16
     e5c:	ee 0f       	add	r30, r30
     e5e:	ff 1f       	adc	r31, r31
     e60:	ee 0f       	add	r30, r30
     e62:	ff 1f       	adc	r31, r31
     e64:	ef 0d       	add	r30, r15
     e66:	f1 1d       	adc	r31, r1
     e68:	ee 0f       	add	r30, r30
     e6a:	ff 1f       	adc	r31, r31
     e6c:	e4 57       	subi	r30, 0x74	; 116
     e6e:	ff 4f       	sbci	r31, 0xFF	; 255
     e70:	85 91       	lpm	r24, Z+
     e72:	95 91       	lpm	r25, Z+
     e74:	c0 91 71 06 	lds	r28, 0x0671	; 0x800671 <cur_col>
     e78:	d0 e0       	ldi	r29, 0x00	; 0
     e7a:	23 97       	sbiw	r28, 0x03	; 3
     e7c:	e3 e7       	ldi	r30, 0x73	; 115
     e7e:	f6 e0       	ldi	r31, 0x06	; 6
     e80:	ac 01       	movw	r20, r24
     e82:	45 2f       	mov	r20, r21
     e84:	55 27       	eor	r21, r21
     e86:	42 95       	swap	r20
     e88:	4f 70       	andi	r20, 0x0F	; 15
     e8a:	60 e0       	ldi	r22, 0x00	; 0
     e8c:	70 e0       	ldi	r23, 0x00	; 0
     e8e:	0c 2e       	mov	r0, r28
     e90:	04 c0       	rjmp	.+8      	; 0xe9a <__vector_6+0xce>
     e92:	44 0f       	add	r20, r20
     e94:	55 1f       	adc	r21, r21
     e96:	66 1f       	adc	r22, r22
     e98:	77 1f       	adc	r23, r23
     e9a:	0a 94       	dec	r0
     e9c:	d2 f7       	brpl	.-12     	; 0xe92 <__vector_6+0xc6>
     e9e:	40 83       	st	Z, r20
     ea0:	51 83       	std	Z+1, r21	; 0x01
     ea2:	62 83       	std	Z+2, r22	; 0x02
     ea4:	73 83       	std	Z+3, r23	; 0x03
	 temp_line[1] = ((unsigned long int)(tetriminos[shape][pattern] & 0x0F00) >> 8) << (cur_col - 3);
     ea6:	ac 01       	movw	r20, r24
     ea8:	44 27       	eor	r20, r20
     eaa:	5f 70       	andi	r21, 0x0F	; 15
     eac:	60 e0       	ldi	r22, 0x00	; 0
     eae:	70 e0       	ldi	r23, 0x00	; 0
     eb0:	45 2f       	mov	r20, r21
     eb2:	56 2f       	mov	r21, r22
     eb4:	67 2f       	mov	r22, r23
     eb6:	77 27       	eor	r23, r23
     eb8:	0c 2e       	mov	r0, r28
     eba:	04 c0       	rjmp	.+8      	; 0xec4 <__vector_6+0xf8>
     ebc:	44 0f       	add	r20, r20
     ebe:	55 1f       	adc	r21, r21
     ec0:	66 1f       	adc	r22, r22
     ec2:	77 1f       	adc	r23, r23
     ec4:	0a 94       	dec	r0
     ec6:	d2 f7       	brpl	.-12     	; 0xebc <__vector_6+0xf0>
     ec8:	44 83       	std	Z+4, r20	; 0x04
     eca:	55 83       	std	Z+5, r21	; 0x05
     ecc:	66 83       	std	Z+6, r22	; 0x06
     ece:	77 83       	std	Z+7, r23	; 0x07
	 temp_line[2] = ((unsigned long int)(tetriminos[shape][pattern] & 0x00F0) >> 4) << (cur_col - 3);
     ed0:	ac 01       	movw	r20, r24
     ed2:	40 7f       	andi	r20, 0xF0	; 240
     ed4:	55 27       	eor	r21, r21
     ed6:	60 e0       	ldi	r22, 0x00	; 0
     ed8:	70 e0       	ldi	r23, 0x00	; 0
     eda:	68 94       	set
     edc:	13 f8       	bld	r1, 3
     ede:	76 95       	lsr	r23
     ee0:	67 95       	ror	r22
     ee2:	57 95       	ror	r21
     ee4:	47 95       	ror	r20
     ee6:	16 94       	lsr	r1
     ee8:	d1 f7       	brne	.-12     	; 0xede <__vector_6+0x112>
     eea:	0c 2e       	mov	r0, r28
     eec:	04 c0       	rjmp	.+8      	; 0xef6 <__vector_6+0x12a>
     eee:	44 0f       	add	r20, r20
     ef0:	55 1f       	adc	r21, r21
     ef2:	66 1f       	adc	r22, r22
     ef4:	77 1f       	adc	r23, r23
     ef6:	0a 94       	dec	r0
     ef8:	d2 f7       	brpl	.-12     	; 0xeee <__vector_6+0x122>
     efa:	40 87       	std	Z+8, r20	; 0x08
     efc:	51 87       	std	Z+9, r21	; 0x09
     efe:	62 87       	std	Z+10, r22	; 0x0a
     f00:	73 87       	std	Z+11, r23	; 0x0b
	 temp_line[3] = ((unsigned long int)(tetriminos[shape][pattern] & 0x000F)) << (cur_col - 3);
     f02:	8f 70       	andi	r24, 0x0F	; 15
     f04:	99 27       	eor	r25, r25
     f06:	a0 e0       	ldi	r26, 0x00	; 0
     f08:	b0 e0       	ldi	r27, 0x00	; 0
     f0a:	0c 2e       	mov	r0, r28
     f0c:	04 c0       	rjmp	.+8      	; 0xf16 <__vector_6+0x14a>
     f0e:	88 0f       	add	r24, r24
     f10:	99 1f       	adc	r25, r25
     f12:	aa 1f       	adc	r26, r26
     f14:	bb 1f       	adc	r27, r27
     f16:	0a 94       	dec	r0
     f18:	d2 f7       	brpl	.-12     	; 0xf0e <__vector_6+0x142>
     f1a:	84 87       	std	Z+12, r24	; 0x0c
     f1c:	95 87       	std	Z+13, r25	; 0x0d
     f1e:	a6 87       	std	Z+14, r26	; 0x0e
     f20:	b7 87       	std	Z+15, r27	; 0x0f

	 if(Collision() == 1) pattern--;
     f22:	64 dd       	rcall	.-1336   	; 0x9ec <Collision>
     f24:	81 30       	cpi	r24, 0x01	; 1
     f26:	09 f4       	brne	.+2      	; 0xf2a <__vector_6+0x15e>
     f28:	8d cf       	rjmp	.-230    	; 0xe44 <__vector_6+0x78>
	 for(int i = 0; i < 4; i++)	//테트리미노스 라인 임시 저장소 초기화
	 {
		 temp_line[i] = 0;
	 }

	 temp_line[0] = ((unsigned long int)(tetriminos[shape][pattern] & 0xF000) >> 12) << (cur_col - 3);
     f2a:	80 91 72 06 	lds	r24, 0x0672	; 0x800672 <pattern>
     f2e:	f8 01       	movw	r30, r16
     f30:	ee 0f       	add	r30, r30
     f32:	ff 1f       	adc	r31, r31
     f34:	ee 0f       	add	r30, r30
     f36:	ff 1f       	adc	r31, r31
     f38:	e8 0f       	add	r30, r24
     f3a:	f1 1d       	adc	r31, r1
     f3c:	ee 0f       	add	r30, r30
     f3e:	ff 1f       	adc	r31, r31
     f40:	e4 57       	subi	r30, 0x74	; 116
     f42:	ff 4f       	sbci	r31, 0xFF	; 255
     f44:	85 91       	lpm	r24, Z+
     f46:	95 91       	lpm	r25, Z+
     f48:	6c 01       	movw	r12, r24
     f4a:	cd 2c       	mov	r12, r13
     f4c:	dd 24       	eor	r13, r13
     f4e:	c6 94       	lsr	r12
     f50:	c6 94       	lsr	r12
     f52:	c6 94       	lsr	r12
     f54:	c6 94       	lsr	r12
     f56:	e1 2c       	mov	r14, r1
     f58:	f1 2c       	mov	r15, r1
     f5a:	0c 2e       	mov	r0, r28
     f5c:	04 c0       	rjmp	.+8      	; 0xf66 <__vector_6+0x19a>
     f5e:	cc 0c       	add	r12, r12
     f60:	dd 1c       	adc	r13, r13
     f62:	ee 1c       	adc	r14, r14
     f64:	ff 1c       	adc	r15, r15
     f66:	0a 94       	dec	r0
     f68:	d2 f7       	brpl	.-12     	; 0xf5e <__vector_6+0x192>
     f6a:	e3 e7       	ldi	r30, 0x73	; 115
     f6c:	f6 e0       	ldi	r31, 0x06	; 6
     f6e:	c0 82       	st	Z, r12
     f70:	d1 82       	std	Z+1, r13	; 0x01
     f72:	e2 82       	std	Z+2, r14	; 0x02
     f74:	f3 82       	std	Z+3, r15	; 0x03
	 temp_line[1] = ((unsigned long int)(tetriminos[shape][pattern] & 0x0F00) >> 8) << (cur_col - 3);
     f76:	8c 01       	movw	r16, r24
     f78:	00 27       	eor	r16, r16
     f7a:	1f 70       	andi	r17, 0x0F	; 15
     f7c:	20 e0       	ldi	r18, 0x00	; 0
     f7e:	30 e0       	ldi	r19, 0x00	; 0
     f80:	01 2f       	mov	r16, r17
     f82:	12 2f       	mov	r17, r18
     f84:	23 2f       	mov	r18, r19
     f86:	33 27       	eor	r19, r19
     f88:	0c 2e       	mov	r0, r28
     f8a:	04 c0       	rjmp	.+8      	; 0xf94 <__vector_6+0x1c8>
     f8c:	00 0f       	add	r16, r16
     f8e:	11 1f       	adc	r17, r17
     f90:	22 1f       	adc	r18, r18
     f92:	33 1f       	adc	r19, r19
     f94:	0a 94       	dec	r0
     f96:	d2 f7       	brpl	.-12     	; 0xf8c <__vector_6+0x1c0>
     f98:	04 83       	std	Z+4, r16	; 0x04
     f9a:	15 83       	std	Z+5, r17	; 0x05
     f9c:	26 83       	std	Z+6, r18	; 0x06
     f9e:	37 83       	std	Z+7, r19	; 0x07
	 temp_line[2] = ((unsigned long int)(tetriminos[shape][pattern] & 0x00F0) >> 4) << (cur_col - 3);
     fa0:	ac 01       	movw	r20, r24
     fa2:	40 7f       	andi	r20, 0xF0	; 240
     fa4:	55 27       	eor	r21, r21
     fa6:	60 e0       	ldi	r22, 0x00	; 0
     fa8:	70 e0       	ldi	r23, 0x00	; 0
     faa:	68 94       	set
     fac:	13 f8       	bld	r1, 3
     fae:	76 95       	lsr	r23
     fb0:	67 95       	ror	r22
     fb2:	57 95       	ror	r21
     fb4:	47 95       	ror	r20
     fb6:	16 94       	lsr	r1
     fb8:	d1 f7       	brne	.-12     	; 0xfae <__vector_6+0x1e2>
     fba:	0c 2e       	mov	r0, r28
     fbc:	04 c0       	rjmp	.+8      	; 0xfc6 <__vector_6+0x1fa>
     fbe:	44 0f       	add	r20, r20
     fc0:	55 1f       	adc	r21, r21
     fc2:	66 1f       	adc	r22, r22
     fc4:	77 1f       	adc	r23, r23
     fc6:	0a 94       	dec	r0
     fc8:	d2 f7       	brpl	.-12     	; 0xfbe <__vector_6+0x1f2>
     fca:	40 87       	std	Z+8, r20	; 0x08
     fcc:	51 87       	std	Z+9, r21	; 0x09
     fce:	62 87       	std	Z+10, r22	; 0x0a
     fd0:	73 87       	std	Z+11, r23	; 0x0b
	 temp_line[3] = ((unsigned long int)(tetriminos[shape][pattern] & 0x000F)) << (cur_col - 3);
     fd2:	8f 70       	andi	r24, 0x0F	; 15
     fd4:	99 27       	eor	r25, r25
     fd6:	4c 01       	movw	r8, r24
     fd8:	a1 2c       	mov	r10, r1
     fda:	b1 2c       	mov	r11, r1
     fdc:	04 c0       	rjmp	.+8      	; 0xfe6 <__vector_6+0x21a>
     fde:	88 0c       	add	r8, r8
     fe0:	99 1c       	adc	r9, r9
     fe2:	aa 1c       	adc	r10, r10
     fe4:	bb 1c       	adc	r11, r11
     fe6:	ca 95       	dec	r28
     fe8:	d2 f7       	brpl	.-12     	; 0xfde <__vector_6+0x212>
     fea:	84 86       	std	Z+12, r8	; 0x0c
     fec:	95 86       	std	Z+13, r9	; 0x0d
     fee:	a6 86       	std	Z+14, r10	; 0x0e
     ff0:	b7 86       	std	Z+15, r11	; 0x0f

	game_board[cur_line] |= temp_line[0];	//현재라인 아래로 이동 후 변화하는 보드에 반영
     ff2:	80 91 70 06 	lds	r24, 0x0670	; 0x800670 <cur_line>
     ff6:	90 e0       	ldi	r25, 0x00	; 0
     ff8:	fc 01       	movw	r30, r24
     ffa:	ee 0f       	add	r30, r30
     ffc:	ff 1f       	adc	r31, r31
     ffe:	ee 0f       	add	r30, r30
    1000:	ff 1f       	adc	r31, r31
    1002:	e6 51       	subi	r30, 0x16	; 22
    1004:	f9 4f       	sbci	r31, 0xF9	; 249
    1006:	40 80       	ld	r4, Z
    1008:	51 80       	ldd	r5, Z+1	; 0x01
    100a:	62 80       	ldd	r6, Z+2	; 0x02
    100c:	73 80       	ldd	r7, Z+3	; 0x03
    100e:	c4 28       	or	r12, r4
    1010:	d5 28       	or	r13, r5
    1012:	e6 28       	or	r14, r6
    1014:	f7 28       	or	r15, r7
    1016:	c0 82       	st	Z, r12
    1018:	d1 82       	std	Z+1, r13	; 0x01
    101a:	e2 82       	std	Z+2, r14	; 0x02
    101c:	f3 82       	std	Z+3, r15	; 0x03
	game_board[cur_line + 1] |= temp_line[1];
    101e:	fc 01       	movw	r30, r24
    1020:	ee 0f       	add	r30, r30
    1022:	ff 1f       	adc	r31, r31
    1024:	ee 0f       	add	r30, r30
    1026:	ff 1f       	adc	r31, r31
    1028:	e2 51       	subi	r30, 0x12	; 18
    102a:	f9 4f       	sbci	r31, 0xF9	; 249
    102c:	c0 80       	ld	r12, Z
    102e:	d1 80       	ldd	r13, Z+1	; 0x01
    1030:	e2 80       	ldd	r14, Z+2	; 0x02
    1032:	f3 80       	ldd	r15, Z+3	; 0x03
    1034:	0c 29       	or	r16, r12
    1036:	1d 29       	or	r17, r13
    1038:	2e 29       	or	r18, r14
    103a:	3f 29       	or	r19, r15
    103c:	00 83       	st	Z, r16
    103e:	11 83       	std	Z+1, r17	; 0x01
    1040:	22 83       	std	Z+2, r18	; 0x02
    1042:	33 83       	std	Z+3, r19	; 0x03
	game_board[cur_line + 2] |= temp_line[2];
    1044:	fc 01       	movw	r30, r24
    1046:	ee 0f       	add	r30, r30
    1048:	ff 1f       	adc	r31, r31
    104a:	ee 0f       	add	r30, r30
    104c:	ff 1f       	adc	r31, r31
    104e:	ee 50       	subi	r30, 0x0E	; 14
    1050:	f9 4f       	sbci	r31, 0xF9	; 249
    1052:	00 81       	ld	r16, Z
    1054:	11 81       	ldd	r17, Z+1	; 0x01
    1056:	22 81       	ldd	r18, Z+2	; 0x02
    1058:	33 81       	ldd	r19, Z+3	; 0x03
    105a:	40 2b       	or	r20, r16
    105c:	51 2b       	or	r21, r17
    105e:	62 2b       	or	r22, r18
    1060:	73 2b       	or	r23, r19
    1062:	40 83       	st	Z, r20
    1064:	51 83       	std	Z+1, r21	; 0x01
    1066:	62 83       	std	Z+2, r22	; 0x02
    1068:	73 83       	std	Z+3, r23	; 0x03
	game_board[cur_line + 3] |= temp_line[3];
    106a:	88 0f       	add	r24, r24
    106c:	99 1f       	adc	r25, r25
    106e:	88 0f       	add	r24, r24
    1070:	99 1f       	adc	r25, r25
    1072:	fc 01       	movw	r30, r24
    1074:	ea 50       	subi	r30, 0x0A	; 10
    1076:	f9 4f       	sbci	r31, 0xF9	; 249
    1078:	80 81       	ld	r24, Z
    107a:	91 81       	ldd	r25, Z+1	; 0x01
    107c:	a2 81       	ldd	r26, Z+2	; 0x02
    107e:	b3 81       	ldd	r27, Z+3	; 0x03
    1080:	88 2a       	or	r8, r24
    1082:	99 2a       	or	r9, r25
    1084:	aa 2a       	or	r10, r26
    1086:	bb 2a       	or	r11, r27
    1088:	80 82       	st	Z, r8
    108a:	91 82       	std	Z+1, r9	; 0x01
    108c:	a2 82       	std	Z+2, r10	; 0x02
    108e:	b3 82       	std	Z+3, r11	; 0x03
 }
    1090:	ff 91       	pop	r31
    1092:	ef 91       	pop	r30
    1094:	df 91       	pop	r29
    1096:	cf 91       	pop	r28
    1098:	bf 91       	pop	r27
    109a:	af 91       	pop	r26
    109c:	9f 91       	pop	r25
    109e:	8f 91       	pop	r24
    10a0:	7f 91       	pop	r23
    10a2:	6f 91       	pop	r22
    10a4:	5f 91       	pop	r21
    10a6:	4f 91       	pop	r20
    10a8:	3f 91       	pop	r19
    10aa:	2f 91       	pop	r18
    10ac:	1f 91       	pop	r17
    10ae:	0f 91       	pop	r16
    10b0:	ff 90       	pop	r15
    10b2:	ef 90       	pop	r14
    10b4:	df 90       	pop	r13
    10b6:	cf 90       	pop	r12
    10b8:	bf 90       	pop	r11
    10ba:	af 90       	pop	r10
    10bc:	9f 90       	pop	r9
    10be:	8f 90       	pop	r8
    10c0:	7f 90       	pop	r7
    10c2:	6f 90       	pop	r6
    10c4:	5f 90       	pop	r5
    10c6:	4f 90       	pop	r4
    10c8:	0f 90       	pop	r0
    10ca:	0b be       	out	0x3b, r0	; 59
    10cc:	0f 90       	pop	r0
    10ce:	0f be       	out	0x3f, r0	; 63
    10d0:	0f 90       	pop	r0
    10d2:	1f 90       	pop	r1
    10d4:	18 95       	reti

000010d6 <__vector_7>:

 ISR(INT6_vect)
 {
    10d6:	1f 92       	push	r1
    10d8:	0f 92       	push	r0
    10da:	0f b6       	in	r0, 0x3f	; 63
    10dc:	0f 92       	push	r0
    10de:	11 24       	eor	r1, r1
    10e0:	0b b6       	in	r0, 0x3b	; 59
    10e2:	0f 92       	push	r0
    10e4:	2f 93       	push	r18
    10e6:	3f 93       	push	r19
    10e8:	4f 93       	push	r20
    10ea:	5f 93       	push	r21
    10ec:	6f 93       	push	r22
    10ee:	7f 93       	push	r23
    10f0:	8f 93       	push	r24
    10f2:	9f 93       	push	r25
    10f4:	af 93       	push	r26
    10f6:	bf 93       	push	r27
    10f8:	ef 93       	push	r30
    10fa:	ff 93       	push	r31
	 for(int i = 0; i < 4; i++)	//테트리미노스 라인 임시 저장소 초기화
	 {
		 temp_line[i] = 0;
	 }

	 temp_line[0] = ((unsigned long int)(tetriminos[shape][pattern] & 0xF000) >> 12) << (cur_col - 3);	//이 과정이 필요 없고 뒤에서 한번에 충돌감지 이후 넣어줘도 상관없어 보이지만 충돌 여부 판별하는 함수가 temp_line와 메인보드가 겹치는지 파악하기때문에 temp_line에 변화된 사항을 반영해야 한다.
    10fc:	80 91 83 06 	lds	r24, 0x0683	; 0x800683 <shape>
    1100:	e0 91 72 06 	lds	r30, 0x0672	; 0x800672 <pattern>
    1104:	f0 e0       	ldi	r31, 0x00	; 0
    1106:	94 e0       	ldi	r25, 0x04	; 4
    1108:	89 9f       	mul	r24, r25
    110a:	e0 0d       	add	r30, r0
    110c:	f1 1d       	adc	r31, r1
    110e:	11 24       	eor	r1, r1
    1110:	ee 0f       	add	r30, r30
    1112:	ff 1f       	adc	r31, r31
    1114:	e4 57       	subi	r30, 0x74	; 116
    1116:	ff 4f       	sbci	r31, 0xFF	; 255
    1118:	85 91       	lpm	r24, Z+
    111a:	95 91       	lpm	r25, Z+
    111c:	20 91 71 06 	lds	r18, 0x0671	; 0x800671 <cur_col>
    1120:	30 e0       	ldi	r19, 0x00	; 0
    1122:	23 50       	subi	r18, 0x03	; 3
    1124:	31 09       	sbc	r19, r1
    1126:	e3 e7       	ldi	r30, 0x73	; 115
    1128:	f6 e0       	ldi	r31, 0x06	; 6
    112a:	ac 01       	movw	r20, r24
    112c:	45 2f       	mov	r20, r21
    112e:	55 27       	eor	r21, r21
    1130:	42 95       	swap	r20
    1132:	4f 70       	andi	r20, 0x0F	; 15
    1134:	60 e0       	ldi	r22, 0x00	; 0
    1136:	70 e0       	ldi	r23, 0x00	; 0
    1138:	02 2e       	mov	r0, r18
    113a:	04 c0       	rjmp	.+8      	; 0x1144 <__stack+0x45>
    113c:	44 0f       	add	r20, r20
    113e:	55 1f       	adc	r21, r21
    1140:	66 1f       	adc	r22, r22
    1142:	77 1f       	adc	r23, r23
    1144:	0a 94       	dec	r0
    1146:	d2 f7       	brpl	.-12     	; 0x113c <__stack+0x3d>
    1148:	40 83       	st	Z, r20
    114a:	51 83       	std	Z+1, r21	; 0x01
    114c:	62 83       	std	Z+2, r22	; 0x02
    114e:	73 83       	std	Z+3, r23	; 0x03
	 temp_line[1] = ((unsigned long int)(tetriminos[shape][pattern] & 0x0F00) >> 8) << (cur_col - 3);
    1150:	ac 01       	movw	r20, r24
    1152:	44 27       	eor	r20, r20
    1154:	5f 70       	andi	r21, 0x0F	; 15
    1156:	60 e0       	ldi	r22, 0x00	; 0
    1158:	70 e0       	ldi	r23, 0x00	; 0
    115a:	45 2f       	mov	r20, r21
    115c:	56 2f       	mov	r21, r22
    115e:	67 2f       	mov	r22, r23
    1160:	77 27       	eor	r23, r23
    1162:	02 2e       	mov	r0, r18
    1164:	04 c0       	rjmp	.+8      	; 0x116e <__stack+0x6f>
    1166:	44 0f       	add	r20, r20
    1168:	55 1f       	adc	r21, r21
    116a:	66 1f       	adc	r22, r22
    116c:	77 1f       	adc	r23, r23
    116e:	0a 94       	dec	r0
    1170:	d2 f7       	brpl	.-12     	; 0x1166 <__stack+0x67>
    1172:	44 83       	std	Z+4, r20	; 0x04
    1174:	55 83       	std	Z+5, r21	; 0x05
    1176:	66 83       	std	Z+6, r22	; 0x06
    1178:	77 83       	std	Z+7, r23	; 0x07
	 temp_line[2] = ((unsigned long int)(tetriminos[shape][pattern] & 0x00F0) >> 4) << (cur_col - 3);
    117a:	ac 01       	movw	r20, r24
    117c:	40 7f       	andi	r20, 0xF0	; 240
    117e:	55 27       	eor	r21, r21
    1180:	60 e0       	ldi	r22, 0x00	; 0
    1182:	70 e0       	ldi	r23, 0x00	; 0
    1184:	68 94       	set
    1186:	13 f8       	bld	r1, 3
    1188:	76 95       	lsr	r23
    118a:	67 95       	ror	r22
    118c:	57 95       	ror	r21
    118e:	47 95       	ror	r20
    1190:	16 94       	lsr	r1
    1192:	d1 f7       	brne	.-12     	; 0x1188 <__stack+0x89>
    1194:	02 2e       	mov	r0, r18
    1196:	04 c0       	rjmp	.+8      	; 0x11a0 <__stack+0xa1>
    1198:	44 0f       	add	r20, r20
    119a:	55 1f       	adc	r21, r21
    119c:	66 1f       	adc	r22, r22
    119e:	77 1f       	adc	r23, r23
    11a0:	0a 94       	dec	r0
    11a2:	d2 f7       	brpl	.-12     	; 0x1198 <__stack+0x99>
    11a4:	40 87       	std	Z+8, r20	; 0x08
    11a6:	51 87       	std	Z+9, r21	; 0x09
    11a8:	62 87       	std	Z+10, r22	; 0x0a
    11aa:	73 87       	std	Z+11, r23	; 0x0b
	 temp_line[3] = ((unsigned long int)(tetriminos[shape][pattern] & 0x000F)) << (cur_col - 3);
    11ac:	8f 70       	andi	r24, 0x0F	; 15
    11ae:	99 27       	eor	r25, r25
    11b0:	a0 e0       	ldi	r26, 0x00	; 0
    11b2:	b0 e0       	ldi	r27, 0x00	; 0
    11b4:	04 c0       	rjmp	.+8      	; 0x11be <__stack+0xbf>
    11b6:	88 0f       	add	r24, r24
    11b8:	99 1f       	adc	r25, r25
    11ba:	aa 1f       	adc	r26, r26
    11bc:	bb 1f       	adc	r27, r27
    11be:	2a 95       	dec	r18
    11c0:	d2 f7       	brpl	.-12     	; 0x11b6 <__stack+0xb7>
    11c2:	84 87       	std	Z+12, r24	; 0x0c
    11c4:	95 87       	std	Z+13, r25	; 0x0d
    11c6:	a6 87       	std	Z+14, r26	; 0x0e
    11c8:	b7 87       	std	Z+15, r27	; 0x0f

	 while(Collision() == 0) cur_line++;
    11ca:	05 c0       	rjmp	.+10     	; 0x11d6 <__stack+0xd7>
    11cc:	80 91 70 06 	lds	r24, 0x0670	; 0x800670 <cur_line>
    11d0:	8f 5f       	subi	r24, 0xFF	; 255
    11d2:	80 93 70 06 	sts	0x0670, r24	; 0x800670 <cur_line>
    11d6:	0a dc       	rcall	.-2028   	; 0x9ec <Collision>
    11d8:	88 23       	and	r24, r24
    11da:	c1 f3       	breq	.-16     	; 0x11cc <__stack+0xcd>

	 cur_line--;
    11dc:	80 91 70 06 	lds	r24, 0x0670	; 0x800670 <cur_line>
    11e0:	81 50       	subi	r24, 0x01	; 1
    11e2:	80 93 70 06 	sts	0x0670, r24	; 0x800670 <cur_line>
 }
    11e6:	ff 91       	pop	r31
    11e8:	ef 91       	pop	r30
    11ea:	bf 91       	pop	r27
    11ec:	af 91       	pop	r26
    11ee:	9f 91       	pop	r25
    11f0:	8f 91       	pop	r24
    11f2:	7f 91       	pop	r23
    11f4:	6f 91       	pop	r22
    11f6:	5f 91       	pop	r21
    11f8:	4f 91       	pop	r20
    11fa:	3f 91       	pop	r19
    11fc:	2f 91       	pop	r18
    11fe:	0f 90       	pop	r0
    1200:	0b be       	out	0x3b, r0	; 59
    1202:	0f 90       	pop	r0
    1204:	0f be       	out	0x3f, r0	; 63
    1206:	0f 90       	pop	r0
    1208:	1f 90       	pop	r1
    120a:	18 95       	reti

0000120c <__vector_8>:

 ISR(INT7_vect)
 {
    120c:	1f 92       	push	r1
    120e:	0f 92       	push	r0
    1210:	0f b6       	in	r0, 0x3f	; 63
    1212:	0f 92       	push	r0
    1214:	11 24       	eor	r1, r1
    1216:	0b b6       	in	r0, 0x3b	; 59
    1218:	0f 92       	push	r0
    121a:	4f 92       	push	r4
    121c:	5f 92       	push	r5
    121e:	6f 92       	push	r6
    1220:	7f 92       	push	r7
    1222:	8f 92       	push	r8
    1224:	9f 92       	push	r9
    1226:	af 92       	push	r10
    1228:	bf 92       	push	r11
    122a:	cf 92       	push	r12
    122c:	df 92       	push	r13
    122e:	ef 92       	push	r14
    1230:	ff 92       	push	r15
    1232:	0f 93       	push	r16
    1234:	1f 93       	push	r17
    1236:	2f 93       	push	r18
    1238:	3f 93       	push	r19
    123a:	4f 93       	push	r20
    123c:	5f 93       	push	r21
    123e:	6f 93       	push	r22
    1240:	7f 93       	push	r23
    1242:	8f 93       	push	r24
    1244:	9f 93       	push	r25
    1246:	af 93       	push	r26
    1248:	bf 93       	push	r27
    124a:	ef 93       	push	r30
    124c:	ff 93       	push	r31
    124e:	cf 93       	push	r28
    1250:	df 93       	push	r29
    1252:	cd b7       	in	r28, 0x3d	; 61
    1254:	de b7       	in	r29, 0x3e	; 62
    1256:	25 97       	sbiw	r28, 0x05	; 5
    1258:	de bf       	out	0x3e, r29	; 62
    125a:	cd bf       	out	0x3d, r28	; 61
    125c:	ef e6       	ldi	r30, 0x6F	; 111
    125e:	f1 e0       	ldi	r31, 0x01	; 1
    1260:	aa ee       	ldi	r26, 0xEA	; 234
    1262:	b6 e0       	ldi	r27, 0x06	; 6
    1264:	8f e6       	ldi	r24, 0x6F	; 111
    1266:	92 e0       	ldi	r25, 0x02	; 2
	 for(int i = 0; i < 64; i++)
	 {
		 game_board[i] = main_board[i];	//굳어진후 저장된 보드를 변화하는 보드로 복사
    1268:	41 91       	ld	r20, Z+
    126a:	51 91       	ld	r21, Z+
    126c:	61 91       	ld	r22, Z+
    126e:	71 91       	ld	r23, Z+
    1270:	4d 93       	st	X+, r20
    1272:	5d 93       	st	X+, r21
    1274:	6d 93       	st	X+, r22
    1276:	7d 93       	st	X+, r23
	 cur_line--;
 }

 ISR(INT7_vect)
 {
	 for(int i = 0; i < 64; i++)
    1278:	8e 17       	cp	r24, r30
    127a:	9f 07       	cpc	r25, r31
    127c:	a9 f7       	brne	.-22     	; 0x1268 <__vector_8+0x5c>
	 {
		 game_board[i] = main_board[i];	//굳어진후 저장된 보드를 변화하는 보드로 복사
	 }

	 cur_col++;
    127e:	20 91 71 06 	lds	r18, 0x0671	; 0x800671 <cur_col>
    1282:	2d 83       	std	Y+5, r18	; 0x05
    1284:	82 2f       	mov	r24, r18
    1286:	8f 5f       	subi	r24, 0xFF	; 255
    1288:	80 93 71 06 	sts	0x0671, r24	; 0x800671 <cur_col>
	 for(int i = 0; i < 4; i++)	//테트리미노스 라인 임시 저장소 초기화
	 {
		 temp_line[i] = 0;
	 }

	 temp_line[0] = ((unsigned long int)(tetriminos[shape][pattern] & 0xF000) >> 12) << (cur_col - 3);	//이 과정이 필요 없고 뒤에서 한번에 충돌감지 이후 넣어줘도 상관없어 보이지만 충돌 여부 판별하는 함수가 temp_line와 메인보드가 겹치는지 파악하기때문에 temp_line에 변화된 사항을 반영해야 한다.
    128c:	90 91 83 06 	lds	r25, 0x0683	; 0x800683 <shape>
    1290:	e0 91 72 06 	lds	r30, 0x0672	; 0x800672 <pattern>
    1294:	f0 e0       	ldi	r31, 0x00	; 0
    1296:	34 e0       	ldi	r19, 0x04	; 4
    1298:	93 9f       	mul	r25, r19
    129a:	e0 0d       	add	r30, r0
    129c:	f1 1d       	adc	r31, r1
    129e:	11 24       	eor	r1, r1
    12a0:	ee 0f       	add	r30, r30
    12a2:	ff 1f       	adc	r31, r31
    12a4:	e4 57       	subi	r30, 0x74	; 116
    12a6:	ff 4f       	sbci	r31, 0xFF	; 255
    12a8:	25 91       	lpm	r18, Z+
    12aa:	35 91       	lpm	r19, Z+
    12ac:	29 01       	movw	r4, r18
    12ae:	45 2c       	mov	r4, r5
    12b0:	55 24       	eor	r5, r5
    12b2:	46 94       	lsr	r4
    12b4:	46 94       	lsr	r4
    12b6:	46 94       	lsr	r4
    12b8:	46 94       	lsr	r4
    12ba:	61 2c       	mov	r6, r1
    12bc:	71 2c       	mov	r7, r1
    12be:	90 e0       	ldi	r25, 0x00	; 0
    12c0:	03 97       	sbiw	r24, 0x03	; 3
    12c2:	e3 e7       	ldi	r30, 0x73	; 115
    12c4:	f6 e0       	ldi	r31, 0x06	; 6
    12c6:	b3 01       	movw	r22, r6
    12c8:	a2 01       	movw	r20, r4
    12ca:	08 2e       	mov	r0, r24
    12cc:	04 c0       	rjmp	.+8      	; 0x12d6 <__vector_8+0xca>
    12ce:	44 0f       	add	r20, r20
    12d0:	55 1f       	adc	r21, r21
    12d2:	66 1f       	adc	r22, r22
    12d4:	77 1f       	adc	r23, r23
    12d6:	0a 94       	dec	r0
    12d8:	d2 f7       	brpl	.-12     	; 0x12ce <__vector_8+0xc2>
    12da:	40 83       	st	Z, r20
    12dc:	51 83       	std	Z+1, r21	; 0x01
    12de:	62 83       	std	Z+2, r22	; 0x02
    12e0:	73 83       	std	Z+3, r23	; 0x03
	 temp_line[1] = ((unsigned long int)(tetriminos[shape][pattern] & 0x0F00) >> 8) << (cur_col - 3);
    12e2:	49 01       	movw	r8, r18
    12e4:	88 24       	eor	r8, r8
    12e6:	4f e0       	ldi	r20, 0x0F	; 15
    12e8:	94 22       	and	r9, r20
    12ea:	a1 2c       	mov	r10, r1
    12ec:	b1 2c       	mov	r11, r1
    12ee:	89 2c       	mov	r8, r9
    12f0:	9a 2c       	mov	r9, r10
    12f2:	ab 2c       	mov	r10, r11
    12f4:	bb 24       	eor	r11, r11
    12f6:	b5 01       	movw	r22, r10
    12f8:	a4 01       	movw	r20, r8
    12fa:	08 2e       	mov	r0, r24
    12fc:	04 c0       	rjmp	.+8      	; 0x1306 <__vector_8+0xfa>
    12fe:	44 0f       	add	r20, r20
    1300:	55 1f       	adc	r21, r21
    1302:	66 1f       	adc	r22, r22
    1304:	77 1f       	adc	r23, r23
    1306:	0a 94       	dec	r0
    1308:	d2 f7       	brpl	.-12     	; 0x12fe <__vector_8+0xf2>
    130a:	44 83       	std	Z+4, r20	; 0x04
    130c:	55 83       	std	Z+5, r21	; 0x05
    130e:	66 83       	std	Z+6, r22	; 0x06
    1310:	77 83       	std	Z+7, r23	; 0x07
	 temp_line[2] = ((unsigned long int)(tetriminos[shape][pattern] & 0x00F0) >> 4) << (cur_col - 3);
    1312:	69 01       	movw	r12, r18
    1314:	50 ef       	ldi	r21, 0xF0	; 240
    1316:	c5 22       	and	r12, r21
    1318:	dd 24       	eor	r13, r13
    131a:	e1 2c       	mov	r14, r1
    131c:	f1 2c       	mov	r15, r1
    131e:	68 94       	set
    1320:	13 f8       	bld	r1, 3
    1322:	f6 94       	lsr	r15
    1324:	e7 94       	ror	r14
    1326:	d7 94       	ror	r13
    1328:	c7 94       	ror	r12
    132a:	16 94       	lsr	r1
    132c:	d1 f7       	brne	.-12     	; 0x1322 <__vector_8+0x116>
    132e:	b7 01       	movw	r22, r14
    1330:	a6 01       	movw	r20, r12
    1332:	08 2e       	mov	r0, r24
    1334:	04 c0       	rjmp	.+8      	; 0x133e <__vector_8+0x132>
    1336:	44 0f       	add	r20, r20
    1338:	55 1f       	adc	r21, r21
    133a:	66 1f       	adc	r22, r22
    133c:	77 1f       	adc	r23, r23
    133e:	0a 94       	dec	r0
    1340:	d2 f7       	brpl	.-12     	; 0x1336 <__vector_8+0x12a>
    1342:	40 87       	std	Z+8, r20	; 0x08
    1344:	51 87       	std	Z+9, r21	; 0x09
    1346:	62 87       	std	Z+10, r22	; 0x0a
    1348:	73 87       	std	Z+11, r23	; 0x0b
	 temp_line[3] = ((unsigned long int)(tetriminos[shape][pattern] & 0x000F)) << (cur_col - 3);
    134a:	2f 70       	andi	r18, 0x0F	; 15
    134c:	33 27       	eor	r19, r19
    134e:	a9 01       	movw	r20, r18
    1350:	60 e0       	ldi	r22, 0x00	; 0
    1352:	70 e0       	ldi	r23, 0x00	; 0
    1354:	49 83       	std	Y+1, r20	; 0x01
    1356:	5a 83       	std	Y+2, r21	; 0x02
    1358:	6b 83       	std	Y+3, r22	; 0x03
    135a:	7c 83       	std	Y+4, r23	; 0x04
    135c:	04 c0       	rjmp	.+8      	; 0x1366 <__vector_8+0x15a>
    135e:	44 0f       	add	r20, r20
    1360:	55 1f       	adc	r21, r21
    1362:	66 1f       	adc	r22, r22
    1364:	77 1f       	adc	r23, r23
    1366:	8a 95       	dec	r24
    1368:	d2 f7       	brpl	.-12     	; 0x135e <__vector_8+0x152>
    136a:	44 87       	std	Z+12, r20	; 0x0c
    136c:	55 87       	std	Z+13, r21	; 0x0d
    136e:	66 87       	std	Z+14, r22	; 0x0e
    1370:	77 87       	std	Z+15, r23	; 0x0f

	 if(Collision() == 1) cur_col--;
    1372:	3c db       	rcall	.-2440   	; 0x9ec <Collision>
    1374:	81 30       	cpi	r24, 0x01	; 1
    1376:	19 f4       	brne	.+6      	; 0x137e <__vector_8+0x172>
    1378:	5d 81       	ldd	r21, Y+5	; 0x05
    137a:	50 93 71 06 	sts	0x0671, r21	; 0x800671 <cur_col>
	 for(int i = 0; i < 4; i++)	//테트리미노스 라인 임시 저장소 초기화
	 {
		 temp_line[i] = 0;
	 }

	 temp_line[0] = ((unsigned long int)(tetriminos[shape][pattern] & 0xF000) >> 12) << (cur_col - 3);
    137e:	80 91 71 06 	lds	r24, 0x0671	; 0x800671 <cur_col>
    1382:	90 e0       	ldi	r25, 0x00	; 0
    1384:	03 97       	sbiw	r24, 0x03	; 3
    1386:	08 2e       	mov	r0, r24
    1388:	04 c0       	rjmp	.+8      	; 0x1392 <__vector_8+0x186>
    138a:	44 0c       	add	r4, r4
    138c:	55 1c       	adc	r5, r5
    138e:	66 1c       	adc	r6, r6
    1390:	77 1c       	adc	r7, r7
    1392:	0a 94       	dec	r0
    1394:	d2 f7       	brpl	.-12     	; 0x138a <__vector_8+0x17e>
    1396:	e3 e7       	ldi	r30, 0x73	; 115
    1398:	f6 e0       	ldi	r31, 0x06	; 6
    139a:	40 82       	st	Z, r4
    139c:	51 82       	std	Z+1, r5	; 0x01
    139e:	62 82       	std	Z+2, r6	; 0x02
    13a0:	73 82       	std	Z+3, r7	; 0x03
	 temp_line[1] = ((unsigned long int)(tetriminos[shape][pattern] & 0x0F00) >> 8) << (cur_col - 3);
    13a2:	08 2e       	mov	r0, r24
    13a4:	04 c0       	rjmp	.+8      	; 0x13ae <__vector_8+0x1a2>
    13a6:	88 0c       	add	r8, r8
    13a8:	99 1c       	adc	r9, r9
    13aa:	aa 1c       	adc	r10, r10
    13ac:	bb 1c       	adc	r11, r11
    13ae:	0a 94       	dec	r0
    13b0:	d2 f7       	brpl	.-12     	; 0x13a6 <__vector_8+0x19a>
    13b2:	84 82       	std	Z+4, r8	; 0x04
    13b4:	95 82       	std	Z+5, r9	; 0x05
    13b6:	a6 82       	std	Z+6, r10	; 0x06
    13b8:	b7 82       	std	Z+7, r11	; 0x07
	 temp_line[2] = ((unsigned long int)(tetriminos[shape][pattern] & 0x00F0) >> 4) << (cur_col - 3);
    13ba:	08 2e       	mov	r0, r24
    13bc:	04 c0       	rjmp	.+8      	; 0x13c6 <__vector_8+0x1ba>
    13be:	cc 0c       	add	r12, r12
    13c0:	dd 1c       	adc	r13, r13
    13c2:	ee 1c       	adc	r14, r14
    13c4:	ff 1c       	adc	r15, r15
    13c6:	0a 94       	dec	r0
    13c8:	d2 f7       	brpl	.-12     	; 0x13be <__vector_8+0x1b2>
    13ca:	c0 86       	std	Z+8, r12	; 0x08
    13cc:	d1 86       	std	Z+9, r13	; 0x09
    13ce:	e2 86       	std	Z+10, r14	; 0x0a
    13d0:	f3 86       	std	Z+11, r15	; 0x0b
	 temp_line[3] = ((unsigned long int)(tetriminos[shape][pattern] & 0x000F)) << (cur_col - 3);
    13d2:	49 81       	ldd	r20, Y+1	; 0x01
    13d4:	5a 81       	ldd	r21, Y+2	; 0x02
    13d6:	6b 81       	ldd	r22, Y+3	; 0x03
    13d8:	7c 81       	ldd	r23, Y+4	; 0x04
    13da:	04 c0       	rjmp	.+8      	; 0x13e4 <__vector_8+0x1d8>
    13dc:	44 0f       	add	r20, r20
    13de:	55 1f       	adc	r21, r21
    13e0:	66 1f       	adc	r22, r22
    13e2:	77 1f       	adc	r23, r23
    13e4:	8a 95       	dec	r24
    13e6:	d2 f7       	brpl	.-12     	; 0x13dc <__vector_8+0x1d0>
    13e8:	44 87       	std	Z+12, r20	; 0x0c
    13ea:	55 87       	std	Z+13, r21	; 0x0d
    13ec:	66 87       	std	Z+14, r22	; 0x0e
    13ee:	77 87       	std	Z+15, r23	; 0x0f

	 
	 game_board[cur_line] |= temp_line[0];	//현재라인 아래로 이동 후 변화하는 보드에 반영
    13f0:	80 91 70 06 	lds	r24, 0x0670	; 0x800670 <cur_line>
    13f4:	90 e0       	ldi	r25, 0x00	; 0
    13f6:	fc 01       	movw	r30, r24
    13f8:	ee 0f       	add	r30, r30
    13fa:	ff 1f       	adc	r31, r31
    13fc:	ee 0f       	add	r30, r30
    13fe:	ff 1f       	adc	r31, r31
    1400:	e6 51       	subi	r30, 0x16	; 22
    1402:	f9 4f       	sbci	r31, 0xF9	; 249
    1404:	00 81       	ld	r16, Z
    1406:	11 81       	ldd	r17, Z+1	; 0x01
    1408:	22 81       	ldd	r18, Z+2	; 0x02
    140a:	33 81       	ldd	r19, Z+3	; 0x03
    140c:	40 2a       	or	r4, r16
    140e:	51 2a       	or	r5, r17
    1410:	62 2a       	or	r6, r18
    1412:	73 2a       	or	r7, r19
    1414:	40 82       	st	Z, r4
    1416:	51 82       	std	Z+1, r5	; 0x01
    1418:	62 82       	std	Z+2, r6	; 0x02
    141a:	73 82       	std	Z+3, r7	; 0x03
	 game_board[cur_line + 1] |= temp_line[1];
    141c:	fc 01       	movw	r30, r24
    141e:	ee 0f       	add	r30, r30
    1420:	ff 1f       	adc	r31, r31
    1422:	ee 0f       	add	r30, r30
    1424:	ff 1f       	adc	r31, r31
    1426:	e2 51       	subi	r30, 0x12	; 18
    1428:	f9 4f       	sbci	r31, 0xF9	; 249
    142a:	40 80       	ld	r4, Z
    142c:	51 80       	ldd	r5, Z+1	; 0x01
    142e:	62 80       	ldd	r6, Z+2	; 0x02
    1430:	73 80       	ldd	r7, Z+3	; 0x03
    1432:	84 28       	or	r8, r4
    1434:	95 28       	or	r9, r5
    1436:	a6 28       	or	r10, r6
    1438:	b7 28       	or	r11, r7
    143a:	80 82       	st	Z, r8
    143c:	91 82       	std	Z+1, r9	; 0x01
    143e:	a2 82       	std	Z+2, r10	; 0x02
    1440:	b3 82       	std	Z+3, r11	; 0x03
	 game_board[cur_line + 2] |= temp_line[2];
    1442:	fc 01       	movw	r30, r24
    1444:	ee 0f       	add	r30, r30
    1446:	ff 1f       	adc	r31, r31
    1448:	ee 0f       	add	r30, r30
    144a:	ff 1f       	adc	r31, r31
    144c:	ee 50       	subi	r30, 0x0E	; 14
    144e:	f9 4f       	sbci	r31, 0xF9	; 249
    1450:	80 80       	ld	r8, Z
    1452:	91 80       	ldd	r9, Z+1	; 0x01
    1454:	a2 80       	ldd	r10, Z+2	; 0x02
    1456:	b3 80       	ldd	r11, Z+3	; 0x03
    1458:	c8 28       	or	r12, r8
    145a:	d9 28       	or	r13, r9
    145c:	ea 28       	or	r14, r10
    145e:	fb 28       	or	r15, r11
    1460:	c0 82       	st	Z, r12
    1462:	d1 82       	std	Z+1, r13	; 0x01
    1464:	e2 82       	std	Z+2, r14	; 0x02
    1466:	f3 82       	std	Z+3, r15	; 0x03
	 game_board[cur_line + 3] |= temp_line[3];
    1468:	88 0f       	add	r24, r24
    146a:	99 1f       	adc	r25, r25
    146c:	88 0f       	add	r24, r24
    146e:	99 1f       	adc	r25, r25
    1470:	fc 01       	movw	r30, r24
    1472:	ea 50       	subi	r30, 0x0A	; 10
    1474:	f9 4f       	sbci	r31, 0xF9	; 249
    1476:	80 81       	ld	r24, Z
    1478:	91 81       	ldd	r25, Z+1	; 0x01
    147a:	a2 81       	ldd	r26, Z+2	; 0x02
    147c:	b3 81       	ldd	r27, Z+3	; 0x03
    147e:	48 2b       	or	r20, r24
    1480:	59 2b       	or	r21, r25
    1482:	6a 2b       	or	r22, r26
    1484:	7b 2b       	or	r23, r27
    1486:	40 83       	st	Z, r20
    1488:	51 83       	std	Z+1, r21	; 0x01
    148a:	62 83       	std	Z+2, r22	; 0x02
    148c:	73 83       	std	Z+3, r23	; 0x03
 }
    148e:	0f 90       	pop	r0
    1490:	0f 90       	pop	r0
    1492:	0f 90       	pop	r0
    1494:	0f 90       	pop	r0
    1496:	0f 90       	pop	r0
    1498:	df 91       	pop	r29
    149a:	cf 91       	pop	r28
    149c:	ff 91       	pop	r31
    149e:	ef 91       	pop	r30
    14a0:	bf 91       	pop	r27
    14a2:	af 91       	pop	r26
    14a4:	9f 91       	pop	r25
    14a6:	8f 91       	pop	r24
    14a8:	7f 91       	pop	r23
    14aa:	6f 91       	pop	r22
    14ac:	5f 91       	pop	r21
    14ae:	4f 91       	pop	r20
    14b0:	3f 91       	pop	r19
    14b2:	2f 91       	pop	r18
    14b4:	1f 91       	pop	r17
    14b6:	0f 91       	pop	r16
    14b8:	ff 90       	pop	r15
    14ba:	ef 90       	pop	r14
    14bc:	df 90       	pop	r13
    14be:	cf 90       	pop	r12
    14c0:	bf 90       	pop	r11
    14c2:	af 90       	pop	r10
    14c4:	9f 90       	pop	r9
    14c6:	8f 90       	pop	r8
    14c8:	7f 90       	pop	r7
    14ca:	6f 90       	pop	r6
    14cc:	5f 90       	pop	r5
    14ce:	4f 90       	pop	r4
    14d0:	0f 90       	pop	r0
    14d2:	0b be       	out	0x3b, r0	; 59
    14d4:	0f 90       	pop	r0
    14d6:	0f be       	out	0x3f, r0	; 63
    14d8:	0f 90       	pop	r0
    14da:	1f 90       	pop	r1
    14dc:	18 95       	reti

000014de <__vector_4>:



 ISR(INT3_vect)
 {
    14de:	1f 92       	push	r1
    14e0:	0f 92       	push	r0
    14e2:	0f b6       	in	r0, 0x3f	; 63
    14e4:	0f 92       	push	r0
    14e6:	11 24       	eor	r1, r1
	 
 }
    14e8:	0f 90       	pop	r0
    14ea:	0f be       	out	0x3f, r0	; 63
    14ec:	0f 90       	pop	r0
    14ee:	1f 90       	pop	r1
    14f0:	18 95       	reti

000014f2 <__vector_12>:


 ISR(TIMER1_COMPA_vect)	//OCR1A값에 따라 블록 이동속도가 결정된다.
 {
    14f2:	1f 92       	push	r1
    14f4:	0f 92       	push	r0
    14f6:	0f b6       	in	r0, 0x3f	; 63
    14f8:	0f 92       	push	r0
    14fa:	11 24       	eor	r1, r1
    14fc:	0b b6       	in	r0, 0x3b	; 59
    14fe:	0f 92       	push	r0
    1500:	8f 92       	push	r8
    1502:	9f 92       	push	r9
    1504:	af 92       	push	r10
    1506:	bf 92       	push	r11
    1508:	df 92       	push	r13
    150a:	ef 92       	push	r14
    150c:	ff 92       	push	r15
    150e:	0f 93       	push	r16
    1510:	1f 93       	push	r17
    1512:	2f 93       	push	r18
    1514:	3f 93       	push	r19
    1516:	4f 93       	push	r20
    1518:	5f 93       	push	r21
    151a:	6f 93       	push	r22
    151c:	7f 93       	push	r23
    151e:	8f 93       	push	r24
    1520:	9f 93       	push	r25
    1522:	af 93       	push	r26
    1524:	bf 93       	push	r27
    1526:	cf 93       	push	r28
    1528:	df 93       	push	r29
    152a:	ef 93       	push	r30
    152c:	ff 93       	push	r31
	 if(new_block == 0)
    152e:	80 91 6e 01 	lds	r24, 0x016E	; 0x80016e <new_block>
    1532:	81 11       	cpse	r24, r1
    1534:	02 c1       	rjmp	.+516    	; 0x173a <__vector_12+0x248>
    1536:	cf e6       	ldi	r28, 0x6F	; 111
    1538:	d1 e0       	ldi	r29, 0x01	; 1
    153a:	0a ee       	ldi	r16, 0xEA	; 234
    153c:	16 e0       	ldi	r17, 0x06	; 6
    153e:	0f 2e       	mov	r0, r31
    1540:	ff e6       	ldi	r31, 0x6F	; 111
    1542:	ef 2e       	mov	r14, r31
    1544:	f2 e0       	ldi	r31, 0x02	; 2
    1546:	ff 2e       	mov	r15, r31
    1548:	f0 2d       	mov	r31, r0
    154a:	d8 01       	movw	r26, r16
    154c:	fe 01       	movw	r30, r28
	 {
		 for(int i = 0; i < 64; i++)
		 {
			 game_board[i] = main_board[i];	//굳어진후 저장된 보드를 변화하는 보드로 복사
    154e:	41 91       	ld	r20, Z+
    1550:	51 91       	ld	r21, Z+
    1552:	61 91       	ld	r22, Z+
    1554:	71 91       	ld	r23, Z+
    1556:	4d 93       	st	X+, r20
    1558:	5d 93       	st	X+, r21
    155a:	6d 93       	st	X+, r22
    155c:	7d 93       	st	X+, r23

 ISR(TIMER1_COMPA_vect)	//OCR1A값에 따라 블록 이동속도가 결정된다.
 {
	 if(new_block == 0)
	 {
		 for(int i = 0; i < 64; i++)
    155e:	ee 15       	cp	r30, r14
    1560:	ff 05       	cpc	r31, r15
    1562:	a9 f7       	brne	.-22     	; 0x154e <__vector_12+0x5c>
		 {
			 game_board[i] = main_board[i];	//굳어진후 저장된 보드를 변화하는 보드로 복사
		 }

		 cur_line++;	//현재라인 아래로 이동
    1564:	d0 90 70 06 	lds	r13, 0x0670	; 0x800670 <cur_line>
    1568:	81 e0       	ldi	r24, 0x01	; 1
    156a:	8d 0d       	add	r24, r13
    156c:	80 93 70 06 	sts	0x0670, r24	; 0x800670 <cur_line>
		 
		 if(Collision() == 1)	//이동후 충돌 발생시
    1570:	3d da       	rcall	.-2950   	; 0x9ec <Collision>
    1572:	81 30       	cpi	r24, 0x01	; 1
    1574:	09 f0       	breq	.+2      	; 0x1578 <__vector_12+0x86>
    1576:	6c c0       	rjmp	.+216    	; 0x1650 <__vector_12+0x15e>
		 {
			 cur_line--;	//원래 라인으로 복귀
    1578:	d0 92 70 06 	sts	0x0670, r13	; 0x800670 <cur_line>
			 main_board[cur_line] |= temp_line[0];	//현재라인 아래로 이동 후 변화하는 보드에 반영
    157c:	8d 2d       	mov	r24, r13
    157e:	90 e0       	ldi	r25, 0x00	; 0
    1580:	fc 01       	movw	r30, r24
    1582:	ee 0f       	add	r30, r30
    1584:	ff 1f       	adc	r31, r31
    1586:	ee 0f       	add	r30, r30
    1588:	ff 1f       	adc	r31, r31
    158a:	e1 59       	subi	r30, 0x91	; 145
    158c:	fe 4f       	sbci	r31, 0xFE	; 254
    158e:	a3 e7       	ldi	r26, 0x73	; 115
    1590:	b6 e0       	ldi	r27, 0x06	; 6
    1592:	80 80       	ld	r8, Z
    1594:	91 80       	ldd	r9, Z+1	; 0x01
    1596:	a2 80       	ldd	r10, Z+2	; 0x02
    1598:	b3 80       	ldd	r11, Z+3	; 0x03
    159a:	4d 91       	ld	r20, X+
    159c:	5d 91       	ld	r21, X+
    159e:	6d 91       	ld	r22, X+
    15a0:	7c 91       	ld	r23, X
    15a2:	13 97       	sbiw	r26, 0x03	; 3
    15a4:	48 29       	or	r20, r8
    15a6:	59 29       	or	r21, r9
    15a8:	6a 29       	or	r22, r10
    15aa:	7b 29       	or	r23, r11
    15ac:	40 83       	st	Z, r20
    15ae:	51 83       	std	Z+1, r21	; 0x01
    15b0:	62 83       	std	Z+2, r22	; 0x02
    15b2:	73 83       	std	Z+3, r23	; 0x03
			 main_board[cur_line + 1] |= temp_line[1];
    15b4:	fc 01       	movw	r30, r24
    15b6:	ee 0f       	add	r30, r30
    15b8:	ff 1f       	adc	r31, r31
    15ba:	ee 0f       	add	r30, r30
    15bc:	ff 1f       	adc	r31, r31
    15be:	ed 58       	subi	r30, 0x8D	; 141
    15c0:	fe 4f       	sbci	r31, 0xFE	; 254
    15c2:	80 80       	ld	r8, Z
    15c4:	91 80       	ldd	r9, Z+1	; 0x01
    15c6:	a2 80       	ldd	r10, Z+2	; 0x02
    15c8:	b3 80       	ldd	r11, Z+3	; 0x03
    15ca:	14 96       	adiw	r26, 0x04	; 4
    15cc:	4d 91       	ld	r20, X+
    15ce:	5d 91       	ld	r21, X+
    15d0:	6d 91       	ld	r22, X+
    15d2:	7c 91       	ld	r23, X
    15d4:	17 97       	sbiw	r26, 0x07	; 7
    15d6:	48 29       	or	r20, r8
    15d8:	59 29       	or	r21, r9
    15da:	6a 29       	or	r22, r10
    15dc:	7b 29       	or	r23, r11
    15de:	40 83       	st	Z, r20
    15e0:	51 83       	std	Z+1, r21	; 0x01
    15e2:	62 83       	std	Z+2, r22	; 0x02
    15e4:	73 83       	std	Z+3, r23	; 0x03
			 main_board[cur_line + 2] |= temp_line[2];
    15e6:	fc 01       	movw	r30, r24
    15e8:	ee 0f       	add	r30, r30
    15ea:	ff 1f       	adc	r31, r31
    15ec:	ee 0f       	add	r30, r30
    15ee:	ff 1f       	adc	r31, r31
    15f0:	e9 58       	subi	r30, 0x89	; 137
    15f2:	fe 4f       	sbci	r31, 0xFE	; 254
    15f4:	80 80       	ld	r8, Z
    15f6:	91 80       	ldd	r9, Z+1	; 0x01
    15f8:	a2 80       	ldd	r10, Z+2	; 0x02
    15fa:	b3 80       	ldd	r11, Z+3	; 0x03
    15fc:	18 96       	adiw	r26, 0x08	; 8
    15fe:	4d 91       	ld	r20, X+
    1600:	5d 91       	ld	r21, X+
    1602:	6d 91       	ld	r22, X+
    1604:	7c 91       	ld	r23, X
    1606:	1b 97       	sbiw	r26, 0x0b	; 11
    1608:	48 29       	or	r20, r8
    160a:	59 29       	or	r21, r9
    160c:	6a 29       	or	r22, r10
    160e:	7b 29       	or	r23, r11
    1610:	40 83       	st	Z, r20
    1612:	51 83       	std	Z+1, r21	; 0x01
    1614:	62 83       	std	Z+2, r22	; 0x02
    1616:	73 83       	std	Z+3, r23	; 0x03
			 main_board[cur_line + 3] |= temp_line[3];
    1618:	88 0f       	add	r24, r24
    161a:	99 1f       	adc	r25, r25
    161c:	88 0f       	add	r24, r24
    161e:	99 1f       	adc	r25, r25
    1620:	fc 01       	movw	r30, r24
    1622:	e5 58       	subi	r30, 0x85	; 133
    1624:	fe 4f       	sbci	r31, 0xFE	; 254
    1626:	40 81       	ld	r20, Z
    1628:	51 81       	ldd	r21, Z+1	; 0x01
    162a:	62 81       	ldd	r22, Z+2	; 0x02
    162c:	73 81       	ldd	r23, Z+3	; 0x03
    162e:	1c 96       	adiw	r26, 0x0c	; 12
    1630:	8d 91       	ld	r24, X+
    1632:	9d 91       	ld	r25, X+
    1634:	0d 90       	ld	r0, X+
    1636:	bc 91       	ld	r27, X
    1638:	a0 2d       	mov	r26, r0
    163a:	84 2b       	or	r24, r20
    163c:	95 2b       	or	r25, r21
    163e:	a6 2b       	or	r26, r22
    1640:	b7 2b       	or	r27, r23
    1642:	80 83       	st	Z, r24
    1644:	91 83       	std	Z+1, r25	; 0x01
    1646:	a2 83       	std	Z+2, r26	; 0x02
    1648:	b3 83       	std	Z+3, r27	; 0x03

			 new_block = 1;	//새로운 블록 플레그 켜짐
    164a:	81 e0       	ldi	r24, 0x01	; 1
    164c:	80 93 6e 01 	sts	0x016E, r24	; 0x80016e <new_block>
		 }

		 for(int i = 0; i < 64; i++)
		 {
			 game_board[i] = main_board[i];	//굳어진후 저장된 보드를 변화하는 보드로 복사
    1650:	89 91       	ld	r24, Y+
    1652:	99 91       	ld	r25, Y+
    1654:	a9 91       	ld	r26, Y+
    1656:	b9 91       	ld	r27, Y+
    1658:	f8 01       	movw	r30, r16
    165a:	81 93       	st	Z+, r24
    165c:	91 93       	st	Z+, r25
    165e:	a1 93       	st	Z+, r26
    1660:	b1 93       	st	Z+, r27
    1662:	8f 01       	movw	r16, r30
			 main_board[cur_line + 3] |= temp_line[3];

			 new_block = 1;	//새로운 블록 플레그 켜짐
		 }

		 for(int i = 0; i < 64; i++)
    1664:	ce 15       	cp	r28, r14
    1666:	df 05       	cpc	r29, r15
    1668:	99 f7       	brne	.-26     	; 0x1650 <__vector_12+0x15e>
		 {
			 game_board[i] = main_board[i];	//굳어진후 저장된 보드를 변화하는 보드로 복사
		 }

		 game_board[cur_line] |= temp_line[0];	//현재라인 아래로 이동 후 변화하는 보드에 반영
    166a:	80 91 70 06 	lds	r24, 0x0670	; 0x800670 <cur_line>
    166e:	90 e0       	ldi	r25, 0x00	; 0
    1670:	fc 01       	movw	r30, r24
    1672:	ee 0f       	add	r30, r30
    1674:	ff 1f       	adc	r31, r31
    1676:	ee 0f       	add	r30, r30
    1678:	ff 1f       	adc	r31, r31
    167a:	e6 51       	subi	r30, 0x16	; 22
    167c:	f9 4f       	sbci	r31, 0xF9	; 249
    167e:	a3 e7       	ldi	r26, 0x73	; 115
    1680:	b6 e0       	ldi	r27, 0x06	; 6
    1682:	00 81       	ld	r16, Z
    1684:	11 81       	ldd	r17, Z+1	; 0x01
    1686:	22 81       	ldd	r18, Z+2	; 0x02
    1688:	33 81       	ldd	r19, Z+3	; 0x03
    168a:	4d 91       	ld	r20, X+
    168c:	5d 91       	ld	r21, X+
    168e:	6d 91       	ld	r22, X+
    1690:	7c 91       	ld	r23, X
    1692:	13 97       	sbiw	r26, 0x03	; 3
    1694:	40 2b       	or	r20, r16
    1696:	51 2b       	or	r21, r17
    1698:	62 2b       	or	r22, r18
    169a:	73 2b       	or	r23, r19
    169c:	40 83       	st	Z, r20
    169e:	51 83       	std	Z+1, r21	; 0x01
    16a0:	62 83       	std	Z+2, r22	; 0x02
    16a2:	73 83       	std	Z+3, r23	; 0x03
		 game_board[cur_line + 1] |= temp_line[1];
    16a4:	fc 01       	movw	r30, r24
    16a6:	ee 0f       	add	r30, r30
    16a8:	ff 1f       	adc	r31, r31
    16aa:	ee 0f       	add	r30, r30
    16ac:	ff 1f       	adc	r31, r31
    16ae:	e2 51       	subi	r30, 0x12	; 18
    16b0:	f9 4f       	sbci	r31, 0xF9	; 249
    16b2:	00 81       	ld	r16, Z
    16b4:	11 81       	ldd	r17, Z+1	; 0x01
    16b6:	22 81       	ldd	r18, Z+2	; 0x02
    16b8:	33 81       	ldd	r19, Z+3	; 0x03
    16ba:	14 96       	adiw	r26, 0x04	; 4
    16bc:	4d 91       	ld	r20, X+
    16be:	5d 91       	ld	r21, X+
    16c0:	6d 91       	ld	r22, X+
    16c2:	7c 91       	ld	r23, X
    16c4:	17 97       	sbiw	r26, 0x07	; 7
    16c6:	40 2b       	or	r20, r16
    16c8:	51 2b       	or	r21, r17
    16ca:	62 2b       	or	r22, r18
    16cc:	73 2b       	or	r23, r19
    16ce:	40 83       	st	Z, r20
    16d0:	51 83       	std	Z+1, r21	; 0x01
    16d2:	62 83       	std	Z+2, r22	; 0x02
    16d4:	73 83       	std	Z+3, r23	; 0x03
		 game_board[cur_line + 2] |= temp_line[2];
    16d6:	fc 01       	movw	r30, r24
    16d8:	ee 0f       	add	r30, r30
    16da:	ff 1f       	adc	r31, r31
    16dc:	ee 0f       	add	r30, r30
    16de:	ff 1f       	adc	r31, r31
    16e0:	ee 50       	subi	r30, 0x0E	; 14
    16e2:	f9 4f       	sbci	r31, 0xF9	; 249
    16e4:	00 81       	ld	r16, Z
    16e6:	11 81       	ldd	r17, Z+1	; 0x01
    16e8:	22 81       	ldd	r18, Z+2	; 0x02
    16ea:	33 81       	ldd	r19, Z+3	; 0x03
    16ec:	18 96       	adiw	r26, 0x08	; 8
    16ee:	4d 91       	ld	r20, X+
    16f0:	5d 91       	ld	r21, X+
    16f2:	6d 91       	ld	r22, X+
    16f4:	7c 91       	ld	r23, X
    16f6:	1b 97       	sbiw	r26, 0x0b	; 11
    16f8:	40 2b       	or	r20, r16
    16fa:	51 2b       	or	r21, r17
    16fc:	62 2b       	or	r22, r18
    16fe:	73 2b       	or	r23, r19
    1700:	40 83       	st	Z, r20
    1702:	51 83       	std	Z+1, r21	; 0x01
    1704:	62 83       	std	Z+2, r22	; 0x02
    1706:	73 83       	std	Z+3, r23	; 0x03
		 game_board[cur_line + 3] |= temp_line[3];
    1708:	88 0f       	add	r24, r24
    170a:	99 1f       	adc	r25, r25
    170c:	88 0f       	add	r24, r24
    170e:	99 1f       	adc	r25, r25
    1710:	fc 01       	movw	r30, r24
    1712:	ea 50       	subi	r30, 0x0A	; 10
    1714:	f9 4f       	sbci	r31, 0xF9	; 249
    1716:	40 81       	ld	r20, Z
    1718:	51 81       	ldd	r21, Z+1	; 0x01
    171a:	62 81       	ldd	r22, Z+2	; 0x02
    171c:	73 81       	ldd	r23, Z+3	; 0x03
    171e:	1c 96       	adiw	r26, 0x0c	; 12
    1720:	8d 91       	ld	r24, X+
    1722:	9d 91       	ld	r25, X+
    1724:	0d 90       	ld	r0, X+
    1726:	bc 91       	ld	r27, X
    1728:	a0 2d       	mov	r26, r0
    172a:	84 2b       	or	r24, r20
    172c:	95 2b       	or	r25, r21
    172e:	a6 2b       	or	r26, r22
    1730:	b7 2b       	or	r27, r23
    1732:	80 83       	st	Z, r24
    1734:	91 83       	std	Z+1, r25	; 0x01
    1736:	a2 83       	std	Z+2, r26	; 0x02
    1738:	b3 83       	std	Z+3, r27	; 0x03
		 for(int i = 0; i < 12; i++)
		 {
			 game_board[i][31] = 1;
		 }*/
	 }
 }
    173a:	ff 91       	pop	r31
    173c:	ef 91       	pop	r30
    173e:	df 91       	pop	r29
    1740:	cf 91       	pop	r28
    1742:	bf 91       	pop	r27
    1744:	af 91       	pop	r26
    1746:	9f 91       	pop	r25
    1748:	8f 91       	pop	r24
    174a:	7f 91       	pop	r23
    174c:	6f 91       	pop	r22
    174e:	5f 91       	pop	r21
    1750:	4f 91       	pop	r20
    1752:	3f 91       	pop	r19
    1754:	2f 91       	pop	r18
    1756:	1f 91       	pop	r17
    1758:	0f 91       	pop	r16
    175a:	ff 90       	pop	r15
    175c:	ef 90       	pop	r14
    175e:	df 90       	pop	r13
    1760:	bf 90       	pop	r11
    1762:	af 90       	pop	r10
    1764:	9f 90       	pop	r9
    1766:	8f 90       	pop	r8
    1768:	0f 90       	pop	r0
    176a:	0b be       	out	0x3b, r0	; 59
    176c:	0f 90       	pop	r0
    176e:	0f be       	out	0x3f, r0	; 63
    1770:	0f 90       	pop	r0
    1772:	1f 90       	pop	r1
    1774:	18 95       	reti

00001776 <draw_map>:



 void draw_map()
 {
    1776:	4f 92       	push	r4
    1778:	5f 92       	push	r5
    177a:	6f 92       	push	r6
    177c:	7f 92       	push	r7
    177e:	8f 92       	push	r8
    1780:	9f 92       	push	r9
    1782:	af 92       	push	r10
    1784:	bf 92       	push	r11
    1786:	cf 92       	push	r12
    1788:	df 92       	push	r13
    178a:	ef 92       	push	r14
    178c:	ff 92       	push	r15
    178e:	0f 93       	push	r16
    1790:	1f 93       	push	r17
    1792:	cf 93       	push	r28
    1794:	df 93       	push	r29
		 for(int j = 0; j < 64; j++)
		 {
			 if((game_board[j] & ((unsigned long int)1<< i)) != 0)
			 {
				 u8g2_DrawPixel(&u8g2, 2 * j, 16 + 2 * i);
				 u8g2_DrawPixel(&u8g2, 2 * j, 16 + 2 * i + 1);
    1796:	d0 e1       	ldi	r29, 0x10	; 16



 void draw_map()
 {
	 for(int i = 0; i < 24; i++)
    1798:	a1 2c       	mov	r10, r1
    179a:	b1 2c       	mov	r11, r1
    179c:	41 2c       	mov	r4, r1
    179e:	51 2c       	mov	r5, r1
    17a0:	32 01       	movw	r6, r4
    17a2:	43 94       	inc	r4
    17a4:	2e c0       	rjmp	.+92     	; 0x1802 <draw_map+0x8c>
	 {
		 for(int j = 0; j < 64; j++)
		 {
			 if((game_board[j] & ((unsigned long int)1<< i)) != 0)
    17a6:	f8 01       	movw	r30, r16
    17a8:	81 91       	ld	r24, Z+
    17aa:	91 91       	ld	r25, Z+
    17ac:	a1 91       	ld	r26, Z+
    17ae:	b1 91       	ld	r27, Z+
    17b0:	8f 01       	movw	r16, r30
    17b2:	8c 21       	and	r24, r12
    17b4:	9d 21       	and	r25, r13
    17b6:	ae 21       	and	r26, r14
    17b8:	bf 21       	and	r27, r15
    17ba:	89 2b       	or	r24, r25
    17bc:	8a 2b       	or	r24, r26
    17be:	8b 2b       	or	r24, r27
    17c0:	b9 f0       	breq	.+46     	; 0x17f0 <draw_map+0x7a>
			 {
				 u8g2_DrawPixel(&u8g2, 2 * j, 16 + 2 * i);
    17c2:	4d 2f       	mov	r20, r29
    17c4:	6c 2f       	mov	r22, r28
    17c6:	84 e8       	ldi	r24, 0x84	; 132
    17c8:	96 e0       	ldi	r25, 0x06	; 6
    17ca:	b3 d3       	rcall	.+1894   	; 0x1f32 <u8g2_DrawPixel>
				 u8g2_DrawPixel(&u8g2, 2 * j, 16 + 2 * i + 1);
    17cc:	49 2d       	mov	r20, r9
    17ce:	6c 2f       	mov	r22, r28
    17d0:	84 e8       	ldi	r24, 0x84	; 132
    17d2:	96 e0       	ldi	r25, 0x06	; 6
    17d4:	ae d3       	rcall	.+1884   	; 0x1f32 <u8g2_DrawPixel>
				 u8g2_DrawPixel(&u8g2, 2 * j + 1, 16 + 2 * i);
    17d6:	4d 2f       	mov	r20, r29
    17d8:	88 24       	eor	r8, r8
    17da:	83 94       	inc	r8
    17dc:	8c 0e       	add	r8, r28
    17de:	68 2d       	mov	r22, r8
    17e0:	84 e8       	ldi	r24, 0x84	; 132
    17e2:	96 e0       	ldi	r25, 0x06	; 6
    17e4:	a6 d3       	rcall	.+1868   	; 0x1f32 <u8g2_DrawPixel>
				 u8g2_DrawPixel(&u8g2, 2 * j + 1, 16 + 2 * i + 1);
    17e6:	49 2d       	mov	r20, r9
    17e8:	68 2d       	mov	r22, r8
    17ea:	84 e8       	ldi	r24, 0x84	; 132
    17ec:	96 e0       	ldi	r25, 0x06	; 6
    17ee:	a1 d3       	rcall	.+1858   	; 0x1f32 <u8g2_DrawPixel>
    17f0:	ce 5f       	subi	r28, 0xFE	; 254

 void draw_map()
 {
	 for(int i = 0; i < 24; i++)
	 {
		 for(int j = 0; j < 64; j++)
    17f2:	c0 38       	cpi	r28, 0x80	; 128
    17f4:	c1 f6       	brne	.-80     	; 0x17a6 <draw_map+0x30>



 void draw_map()
 {
	 for(int i = 0; i < 24; i++)
    17f6:	ff ef       	ldi	r31, 0xFF	; 255
    17f8:	af 1a       	sub	r10, r31
    17fa:	bf 0a       	sbc	r11, r31
    17fc:	de 5f       	subi	r29, 0xFE	; 254
    17fe:	d0 34       	cpi	r29, 0x40	; 64
    1800:	89 f0       	breq	.+34     	; 0x1824 <draw_map+0xae>
    1802:	73 01       	movw	r14, r6
    1804:	62 01       	movw	r12, r4
    1806:	0a 2c       	mov	r0, r10
    1808:	04 c0       	rjmp	.+8      	; 0x1812 <draw_map+0x9c>
    180a:	cc 0c       	add	r12, r12
    180c:	dd 1c       	adc	r13, r13
    180e:	ee 1c       	adc	r14, r14
    1810:	ff 1c       	adc	r15, r15
    1812:	0a 94       	dec	r0
    1814:	d2 f7       	brpl	.-12     	; 0x180a <draw_map+0x94>
		 for(int j = 0; j < 64; j++)
		 {
			 if((game_board[j] & ((unsigned long int)1<< i)) != 0)
			 {
				 u8g2_DrawPixel(&u8g2, 2 * j, 16 + 2 * i);
				 u8g2_DrawPixel(&u8g2, 2 * j, 16 + 2 * i + 1);
    1816:	99 24       	eor	r9, r9
    1818:	93 94       	inc	r9
    181a:	9d 0e       	add	r9, r29
    181c:	0a ee       	ldi	r16, 0xEA	; 234
    181e:	16 e0       	ldi	r17, 0x06	; 6
    1820:	c0 e0       	ldi	r28, 0x00	; 0
    1822:	c1 cf       	rjmp	.-126    	; 0x17a6 <draw_map+0x30>
				 u8g2_DrawPixel(&u8g2, 2 * j + 1, 16 + 2 * i);
				 u8g2_DrawPixel(&u8g2, 2 * j + 1, 16 + 2 * i + 1);
			 }
		 }
	 }
	 u8g2_DrawPixel(&u8g2, 127, 63);
    1824:	4f e3       	ldi	r20, 0x3F	; 63
    1826:	6f e7       	ldi	r22, 0x7F	; 127
    1828:	84 e8       	ldi	r24, 0x84	; 132
    182a:	96 e0       	ldi	r25, 0x06	; 6
	 u8g2_SendBuffer(&u8g2);
    182c:	82 d3       	rcall	.+1796   	; 0x1f32 <u8g2_DrawPixel>
    182e:	84 e8       	ldi	r24, 0x84	; 132
    1830:	96 e0       	ldi	r25, 0x06	; 6
	 u8g2_ClearBuffer(&u8g2);
    1832:	ee d1       	rcall	.+988    	; 0x1c10 <u8g2_SendBuffer>
    1834:	84 e8       	ldi	r24, 0x84	; 132
    1836:	96 e0       	ldi	r25, 0x06	; 6
    1838:	d6 d1       	rcall	.+940    	; 0x1be6 <u8g2_ClearBuffer>
 }
    183a:	df 91       	pop	r29
    183c:	cf 91       	pop	r28
    183e:	1f 91       	pop	r17
    1840:	0f 91       	pop	r16
    1842:	ff 90       	pop	r15
    1844:	ef 90       	pop	r14
    1846:	df 90       	pop	r13
    1848:	cf 90       	pop	r12
    184a:	bf 90       	pop	r11
    184c:	af 90       	pop	r10
    184e:	9f 90       	pop	r9
    1850:	8f 90       	pop	r8
    1852:	7f 90       	pop	r7
    1854:	6f 90       	pop	r6
    1856:	5f 90       	pop	r5
    1858:	4f 90       	pop	r4
    185a:	08 95       	ret

0000185c <NewTetriminos>:

 void NewTetriminos()
 {
    185c:	4f 92       	push	r4
    185e:	5f 92       	push	r5
    1860:	6f 92       	push	r6
    1862:	7f 92       	push	r7
    1864:	8f 92       	push	r8
    1866:	9f 92       	push	r9
    1868:	af 92       	push	r10
    186a:	bf 92       	push	r11
    186c:	cf 92       	push	r12
    186e:	df 92       	push	r13
    1870:	ef 92       	push	r14
    1872:	ff 92       	push	r15
    1874:	0f 93       	push	r16
    1876:	1f 93       	push	r17
    1878:	cf 93       	push	r28
    187a:	df 93       	push	r29
    187c:	cd b7       	in	r28, 0x3d	; 61
    187e:	de b7       	in	r29, 0x3e	; 62
    1880:	28 97       	sbiw	r28, 0x08	; 8
    1882:	0f b6       	in	r0, 0x3f	; 63
    1884:	f8 94       	cli
    1886:	de bf       	out	0x3e, r29	; 62
    1888:	0f be       	out	0x3f, r0	; 63
    188a:	cd bf       	out	0x3d, r28	; 61
	 new_block = 0;	//새로운 블록 플레그 끄기
    188c:	10 92 6e 01 	sts	0x016E, r1	; 0x80016e <new_block>
	 shape = next_block;
    1890:	e0 91 6c 01 	lds	r30, 0x016C	; 0x80016c <__data_end>
    1894:	e0 93 83 06 	sts	0x0683, r30	; 0x800683 <shape>
	 next_block = TCNT0 % 7;					//다음에 올 테트리미노스 랜덤 출력
    1898:	92 b7       	in	r25, 0x32	; 50
    189a:	85 e2       	ldi	r24, 0x25	; 37
    189c:	98 9f       	mul	r25, r24
    189e:	21 2d       	mov	r18, r1
    18a0:	11 24       	eor	r1, r1
    18a2:	89 2f       	mov	r24, r25
    18a4:	82 1b       	sub	r24, r18
    18a6:	86 95       	lsr	r24
    18a8:	82 0f       	add	r24, r18
    18aa:	86 95       	lsr	r24
    18ac:	86 95       	lsr	r24
    18ae:	28 2f       	mov	r18, r24
    18b0:	22 0f       	add	r18, r18
    18b2:	22 0f       	add	r18, r18
    18b4:	22 0f       	add	r18, r18
    18b6:	28 1b       	sub	r18, r24
    18b8:	92 1b       	sub	r25, r18
    18ba:	90 93 6c 01 	sts	0x016C, r25	; 0x80016c <__data_end>
	 pattern = 0;	//기본 회전모향 설정
    18be:	10 92 72 06 	sts	0x0672, r1	; 0x800672 <pattern>
	 cur_line = 0;                 // 테트리미노스 현재 라인 (최상위 라인)
    18c2:	10 92 70 06 	sts	0x0670, r1	; 0x800670 <cur_line>
	 cur_col = 12;                // 테트리미노스의 현재 칸
    18c6:	8c e0       	ldi	r24, 0x0C	; 12
    18c8:	80 93 71 06 	sts	0x0671, r24	; 0x800671 <cur_col>
	 for(int i = 0; i < 4; i++)	//테트리미노스 라인 임시 저장소 초기화
	 {
		 temp_line[i] = 0;
	 }

	 temp_line[0] = ((unsigned long int)(tetriminos[shape][pattern] & 0xF000) >> 12) << (cur_col - 3);	//이 과정이 필요 없고 뒤에서 한번에 충돌감지 이후 넣어줘도 상관없어 보이지만 충돌 여부 판별하는 함수가 temp_line와 메인보드가 겹치는지 파악하기때문에 temp_line에 변화된 사항을 반영해야 한다.
    18cc:	f0 e0       	ldi	r31, 0x00	; 0
    18ce:	ee 0f       	add	r30, r30
    18d0:	ff 1f       	adc	r31, r31
    18d2:	ee 0f       	add	r30, r30
    18d4:	ff 1f       	adc	r31, r31
    18d6:	ee 0f       	add	r30, r30
    18d8:	ff 1f       	adc	r31, r31
    18da:	e4 57       	subi	r30, 0x74	; 116
    18dc:	ff 4f       	sbci	r31, 0xFF	; 255
    18de:	85 91       	lpm	r24, Z+
    18e0:	95 91       	lpm	r25, Z+
    18e2:	ac 01       	movw	r20, r24
    18e4:	45 2f       	mov	r20, r21
    18e6:	55 27       	eor	r21, r21
    18e8:	42 95       	swap	r20
    18ea:	4f 70       	andi	r20, 0x0F	; 15
    18ec:	60 e0       	ldi	r22, 0x00	; 0
    18ee:	70 e0       	ldi	r23, 0x00	; 0
    18f0:	03 2e       	mov	r0, r19
    18f2:	39 e0       	ldi	r19, 0x09	; 9
    18f4:	44 0f       	add	r20, r20
    18f6:	55 1f       	adc	r21, r21
    18f8:	66 1f       	adc	r22, r22
    18fa:	77 1f       	adc	r23, r23
    18fc:	3a 95       	dec	r19
    18fe:	d1 f7       	brne	.-12     	; 0x18f4 <NewTetriminos+0x98>
    1900:	30 2d       	mov	r19, r0
    1902:	e3 e7       	ldi	r30, 0x73	; 115
    1904:	f6 e0       	ldi	r31, 0x06	; 6
    1906:	40 83       	st	Z, r20
    1908:	51 83       	std	Z+1, r21	; 0x01
    190a:	62 83       	std	Z+2, r22	; 0x02
    190c:	73 83       	std	Z+3, r23	; 0x03
	 temp_line[1] = ((unsigned long int)(tetriminos[shape][pattern] & 0x0F00) >> 8) << (cur_col - 3);
    190e:	6c 01       	movw	r12, r24
    1910:	cc 24       	eor	r12, r12
    1912:	2f e0       	ldi	r18, 0x0F	; 15
    1914:	d2 22       	and	r13, r18
    1916:	e1 2c       	mov	r14, r1
    1918:	f1 2c       	mov	r15, r1
    191a:	cc 0c       	add	r12, r12
    191c:	dd 1c       	adc	r13, r13
    191e:	ee 1c       	adc	r14, r14
    1920:	ff 1c       	adc	r15, r15
    1922:	c4 82       	std	Z+4, r12	; 0x04
    1924:	d5 82       	std	Z+5, r13	; 0x05
    1926:	e6 82       	std	Z+6, r14	; 0x06
    1928:	f7 82       	std	Z+7, r15	; 0x07
	 temp_line[2] = ((unsigned long int)(tetriminos[shape][pattern] & 0x00F0) >> 4) << (cur_col - 3);
    192a:	8c 01       	movw	r16, r24
    192c:	00 7f       	andi	r16, 0xF0	; 240
    192e:	11 27       	eor	r17, r17
    1930:	20 e0       	ldi	r18, 0x00	; 0
    1932:	30 e0       	ldi	r19, 0x00	; 0
    1934:	68 94       	set
    1936:	14 f8       	bld	r1, 4
    1938:	00 0f       	add	r16, r16
    193a:	11 1f       	adc	r17, r17
    193c:	22 1f       	adc	r18, r18
    193e:	33 1f       	adc	r19, r19
    1940:	16 94       	lsr	r1
    1942:	d1 f7       	brne	.-12     	; 0x1938 <NewTetriminos+0xdc>
    1944:	00 87       	std	Z+8, r16	; 0x08
    1946:	11 87       	std	Z+9, r17	; 0x09
    1948:	22 87       	std	Z+10, r18	; 0x0a
    194a:	33 87       	std	Z+11, r19	; 0x0b
	 temp_line[3] = ((unsigned long int)(tetriminos[shape][pattern] & 0x000F)) << (cur_col - 3);
    194c:	8f 70       	andi	r24, 0x0F	; 15
    194e:	99 27       	eor	r25, r25
    1950:	a0 e0       	ldi	r26, 0x00	; 0
    1952:	b0 e0       	ldi	r27, 0x00	; 0
    1954:	07 2e       	mov	r0, r23
    1956:	79 e0       	ldi	r23, 0x09	; 9
    1958:	88 0f       	add	r24, r24
    195a:	99 1f       	adc	r25, r25
    195c:	aa 1f       	adc	r26, r26
    195e:	bb 1f       	adc	r27, r27
    1960:	7a 95       	dec	r23
    1962:	d1 f7       	brne	.-12     	; 0x1958 <NewTetriminos+0xfc>
    1964:	70 2d       	mov	r23, r0
    1966:	84 87       	std	Z+12, r24	; 0x0c
    1968:	95 87       	std	Z+13, r25	; 0x0d
    196a:	a6 87       	std	Z+14, r26	; 0x0e
    196c:	b7 87       	std	Z+15, r27	; 0x0f

	 
	game_over |= game_board[cur_line] & temp_line[0];	//게임보드에 있는 테트리미노스와 임시저장소에 생긴 테트리미노스가 겹치는지 확인하고 겹치면 게임오버 플레그 켜짐
	game_over |= game_board[cur_line + 1] & temp_line[1];	//or 연산으로 어디든 겹치면 플레그 켜진다
    196e:	ea ee       	ldi	r30, 0xEA	; 234
    1970:	f6 e0       	ldi	r31, 0x06	; 6
    1972:	84 80       	ldd	r8, Z+4	; 0x04
    1974:	95 80       	ldd	r9, Z+5	; 0x05
    1976:	a6 80       	ldd	r10, Z+6	; 0x06
    1978:	b7 80       	ldd	r11, Z+7	; 0x07
	game_over |= game_board[cur_line + 2] & temp_line[2];
    197a:	40 84       	ldd	r4, Z+8	; 0x08
    197c:	51 84       	ldd	r5, Z+9	; 0x09
    197e:	62 84       	ldd	r6, Z+10	; 0x0a
    1980:	73 84       	ldd	r7, Z+11	; 0x0b
    1982:	49 82       	std	Y+1, r4	; 0x01
    1984:	5a 82       	std	Y+2, r5	; 0x02
    1986:	6b 82       	std	Y+3, r6	; 0x03
    1988:	7c 82       	std	Y+4, r7	; 0x04
	game_over |= game_board[cur_line + 3] & temp_line[3];
    198a:	44 84       	ldd	r4, Z+12	; 0x0c
    198c:	55 84       	ldd	r5, Z+13	; 0x0d
    198e:	66 84       	ldd	r6, Z+14	; 0x0e
    1990:	77 84       	ldd	r7, Z+15	; 0x0f
    1992:	4d 82       	std	Y+5, r4	; 0x05
    1994:	5e 82       	std	Y+6, r5	; 0x06
    1996:	6f 82       	std	Y+7, r6	; 0x07
    1998:	78 86       	std	Y+8, r7	; 0x08
	

	 game_board[cur_line] |= temp_line[0];	//현재라인 아래로 이동 후 변화하는 보드에 반영
    199a:	40 80       	ld	r4, Z
    199c:	51 80       	ldd	r5, Z+1	; 0x01
    199e:	62 80       	ldd	r6, Z+2	; 0x02
    19a0:	73 80       	ldd	r7, Z+3	; 0x03
    19a2:	44 29       	or	r20, r4
    19a4:	55 29       	or	r21, r5
    19a6:	66 29       	or	r22, r6
    19a8:	77 29       	or	r23, r7
    19aa:	40 83       	st	Z, r20
    19ac:	51 83       	std	Z+1, r21	; 0x01
    19ae:	62 83       	std	Z+2, r22	; 0x02
    19b0:	73 83       	std	Z+3, r23	; 0x03
	 game_board[cur_line + 1] |= temp_line[1];
    19b2:	c8 28       	or	r12, r8
    19b4:	d9 28       	or	r13, r9
    19b6:	ea 28       	or	r14, r10
    19b8:	fb 28       	or	r15, r11
    19ba:	c4 82       	std	Z+4, r12	; 0x04
    19bc:	d5 82       	std	Z+5, r13	; 0x05
    19be:	e6 82       	std	Z+6, r14	; 0x06
    19c0:	f7 82       	std	Z+7, r15	; 0x07
	 game_board[cur_line + 2] |= temp_line[2];
    19c2:	49 81       	ldd	r20, Y+1	; 0x01
    19c4:	5a 81       	ldd	r21, Y+2	; 0x02
    19c6:	6b 81       	ldd	r22, Y+3	; 0x03
    19c8:	7c 81       	ldd	r23, Y+4	; 0x04
    19ca:	04 2b       	or	r16, r20
    19cc:	15 2b       	or	r17, r21
    19ce:	26 2b       	or	r18, r22
    19d0:	37 2b       	or	r19, r23
    19d2:	00 87       	std	Z+8, r16	; 0x08
    19d4:	11 87       	std	Z+9, r17	; 0x09
    19d6:	22 87       	std	Z+10, r18	; 0x0a
    19d8:	33 87       	std	Z+11, r19	; 0x0b
	 game_board[cur_line + 3] |= temp_line[3];
    19da:	4d 80       	ldd	r4, Y+5	; 0x05
    19dc:	5e 80       	ldd	r5, Y+6	; 0x06
    19de:	6f 80       	ldd	r6, Y+7	; 0x07
    19e0:	78 84       	ldd	r7, Y+8	; 0x08
    19e2:	84 29       	or	r24, r4
    19e4:	95 29       	or	r25, r5
    19e6:	a6 29       	or	r26, r6
    19e8:	b7 29       	or	r27, r7
    19ea:	84 87       	std	Z+12, r24	; 0x0c
    19ec:	95 87       	std	Z+13, r25	; 0x0d
    19ee:	a6 87       	std	Z+14, r26	; 0x0e
    19f0:	b7 87       	std	Z+15, r27	; 0x0f

 }
    19f2:	28 96       	adiw	r28, 0x08	; 8
    19f4:	0f b6       	in	r0, 0x3f	; 63
    19f6:	f8 94       	cli
    19f8:	de bf       	out	0x3e, r29	; 62
    19fa:	0f be       	out	0x3f, r0	; 63
    19fc:	cd bf       	out	0x3d, r28	; 61
    19fe:	df 91       	pop	r29
    1a00:	cf 91       	pop	r28
    1a02:	1f 91       	pop	r17
    1a04:	0f 91       	pop	r16
    1a06:	ff 90       	pop	r15
    1a08:	ef 90       	pop	r14
    1a0a:	df 90       	pop	r13
    1a0c:	cf 90       	pop	r12
    1a0e:	bf 90       	pop	r11
    1a10:	af 90       	pop	r10
    1a12:	9f 90       	pop	r9
    1a14:	8f 90       	pop	r8
    1a16:	7f 90       	pop	r7
    1a18:	6f 90       	pop	r6
    1a1a:	5f 90       	pop	r5
    1a1c:	4f 90       	pop	r4
    1a1e:	08 95       	ret

00001a20 <main>:
	
	char cmd;

	//UART_Init();

	TCCR0 = 0x07;	//타이머 카운터 0 1024분주로 켜기
    1a20:	87 e0       	ldi	r24, 0x07	; 7
    1a22:	83 bf       	out	0x33, r24	; 51

	TCCR1A |= (0 << COM1A0) | (0 << WGM10);	//CTC, OC1A핀 차단
    1a24:	8f b5       	in	r24, 0x2f	; 47
    1a26:	8f bd       	out	0x2f, r24	; 47
	TCCR1B |= (1 << WGM12) | (5 << CS10); //CTC, 1024분주
    1a28:	8e b5       	in	r24, 0x2e	; 46
    1a2a:	8d 60       	ori	r24, 0x0D	; 13
    1a2c:	8e bd       	out	0x2e, r24	; 46
	OCR1A = 0x8FF;
    1a2e:	8f ef       	ldi	r24, 0xFF	; 255
    1a30:	98 e0       	ldi	r25, 0x08	; 8
    1a32:	9b bd       	out	0x2b, r25	; 43
    1a34:	8a bd       	out	0x2a, r24	; 42
	TIMSK |= (1 << OCIE1A);	//타이머 카운터 1 출력비교 A 매치 인터럽트 인에이블
    1a36:	87 b7       	in	r24, 0x37	; 55
    1a38:	80 61       	ori	r24, 0x10	; 16
    1a3a:	87 bf       	out	0x37, r24	; 55

	DDRD = 0x00;	//인터럽트 4,5,6,7 켜기위해 포트 입력으로
    1a3c:	11 ba       	out	0x11, r1	; 17
	DDRE = 0x00;	//인터럽트 3 켜기위해 포트 입력으로
    1a3e:	12 b8       	out	0x02, r1	; 2

	EICRB = (2 << ISC40) | (2 << ISC50) | (2 << ISC60) | (2 << ISC70);
    1a40:	8a ea       	ldi	r24, 0xAA	; 170
    1a42:	8a bf       	out	0x3a, r24	; 58
	
	EICRA = (2 << ISC30);
    1a44:	80 e8       	ldi	r24, 0x80	; 128
    1a46:	80 93 6a 00 	sts	0x006A, r24	; 0x80006a <__TEXT_REGION_LENGTH__+0x7e006a>

	EIMSK = (1 << INT3) | (1 << INT4) | (1 << INT5) | (1 << INT6) | (1 << INT7);
    1a4a:	88 ef       	ldi	r24, 0xF8	; 248
    1a4c:	89 bf       	out	0x39, r24	; 57

	sei();
    1a4e:	78 94       	sei

	u8g2_Setup_ssd1306_i2c_128x64_noname_f( &u8g2, U8G2_R0, u8x8_byte_sw_i2c, u8x8_avr_gpio_and_delay );
    1a50:	2c eb       	ldi	r18, 0xBC	; 188
    1a52:	34 e0       	ldi	r19, 0x04	; 4
    1a54:	44 e9       	ldi	r20, 0x94	; 148
    1a56:	51 e1       	ldi	r21, 0x11	; 17
    1a58:	60 e0       	ldi	r22, 0x00	; 0
    1a5a:	71 e0       	ldi	r23, 0x01	; 1
    1a5c:	84 e8       	ldi	r24, 0x84	; 132
    1a5e:	96 e0       	ldi	r25, 0x06	; 6
    1a60:	e6 d0       	rcall	.+460    	; 0x1c2e <u8g2_Setup_ssd1306_i2c_128x64_noname_f>
	u8g2_SetI2CAddress(&u8g2, 0x78);
    1a62:	88 e7       	ldi	r24, 0x78	; 120
    1a64:	80 93 9a 06 	sts	0x069A, r24	; 0x80069a <u8g2+0x16>
	u8g2_InitDisplay(&u8g2);
    1a68:	84 e8       	ldi	r24, 0x84	; 132
    1a6a:	96 e0       	ldi	r25, 0x06	; 6
    1a6c:	46 d6       	rcall	.+3212   	; 0x26fa <u8x8_InitDisplay>
	u8g2_SetPowerSave(&u8g2, 0);
    1a6e:	60 e0       	ldi	r22, 0x00	; 0
    1a70:	84 e8       	ldi	r24, 0x84	; 132
    1a72:	96 e0       	ldi	r25, 0x06	; 6
    1a74:	4d d6       	rcall	.+3226   	; 0x2710 <u8x8_SetPowerSave>
	
	u8g2_prepare();
    1a76:	0e 94 dd 04 	call	0x9ba	; 0x9ba <u8g2_prepare>
    1a7a:	cf e6       	ldi	r28, 0x6F	; 111
    1a7c:	d1 e0       	ldi	r29, 0x01	; 1
    1a7e:	0f 2e       	mov	r0, r31
    1a80:	fb e6       	ldi	r31, 0x6B	; 107
    1a82:	af 2e       	mov	r10, r31
    1a84:	f2 e0       	ldi	r31, 0x02	; 2
    1a86:	bf 2e       	mov	r11, r31
    1a88:	f0 2d       	mov	r31, r0
	while(1)
	{
		game_over = 0;	//게임종료 플레그 끄기


		for (int i = 0; i < 63; i++ ) main_board[i] = 0xF0000F;	//메인보드 초기화
    1a8a:	0f 2e       	mov	r0, r31
    1a8c:	ff e0       	ldi	r31, 0x0F	; 15
    1a8e:	cf 2e       	mov	r12, r31
    1a90:	d1 2c       	mov	r13, r1
    1a92:	f0 ef       	ldi	r31, 0xF0	; 240
    1a94:	ef 2e       	mov	r14, r31
    1a96:	f1 2c       	mov	r15, r1
    1a98:	f0 2d       	mov	r31, r0
		main_board[63] = 0xFFFFFF;
    1a9a:	44 24       	eor	r4, r4
    1a9c:	4a 94       	dec	r4
    1a9e:	54 2c       	mov	r5, r4
    1aa0:	64 2c       	mov	r6, r4
    1aa2:	71 2c       	mov	r7, r1
    1aa4:	0f e6       	ldi	r16, 0x6F	; 111
    1aa6:	12 e0       	ldi	r17, 0x02	; 2
	                              


	while(1)
	{
		game_over = 0;	//게임종료 플레그 끄기
    1aa8:	10 92 6d 01 	sts	0x016D, r1	; 0x80016d <game_over>
    1aac:	ef e6       	ldi	r30, 0x6F	; 111
    1aae:	f1 e0       	ldi	r31, 0x01	; 1


		for (int i = 0; i < 63; i++ ) main_board[i] = 0xF0000F;	//메인보드 초기화
    1ab0:	c1 92       	st	Z+, r12
    1ab2:	d1 92       	st	Z+, r13
    1ab4:	e1 92       	st	Z+, r14
    1ab6:	f1 92       	st	Z+, r15
    1ab8:	ea 15       	cp	r30, r10
    1aba:	fb 05       	cpc	r31, r11
    1abc:	c9 f7       	brne	.-14     	; 0x1ab0 <main+0x90>
		main_board[63] = 0xFFFFFF;
    1abe:	f5 01       	movw	r30, r10
    1ac0:	40 82       	st	Z, r4
    1ac2:	51 82       	std	Z+1, r5	; 0x01
    1ac4:	62 82       	std	Z+2, r6	; 0x02
    1ac6:	73 82       	std	Z+3, r7	; 0x03
    1ac8:	3f c0       	rjmp	.+126    	; 0x1b48 <main+0x128>

		while(game_over == 0)	//게임종료 플레그가 꺼저있을동안 반복
		{
			for(int i = 0; i < 63; i++)
			{
				if(main_board[i] == 0xFFFFFF)
    1aca:	4d 91       	ld	r20, X+
    1acc:	5d 91       	ld	r21, X+
    1ace:	6d 91       	ld	r22, X+
    1ad0:	7c 91       	ld	r23, X
    1ad2:	13 97       	sbiw	r26, 0x03	; 3
    1ad4:	4f 3f       	cpi	r20, 0xFF	; 255
    1ad6:	5f 4f       	sbci	r21, 0xFF	; 255
    1ad8:	6f 4f       	sbci	r22, 0xFF	; 255
    1ada:	71 05       	cpc	r23, r1
    1adc:	a1 f4       	brne	.+40     	; 0x1b06 <main+0xe6>
				//1줄이 모두 완성되어서 깨질 줄이 있는지 확인
				{
					main_board[i] = 0xF0000F;
    1ade:	cd 92       	st	X+, r12
    1ae0:	dd 92       	st	X+, r13
    1ae2:	ed 92       	st	X+, r14
    1ae4:	fc 92       	st	X, r15
    1ae6:	13 97       	sbiw	r26, 0x03	; 3
					for(int k = i; k > 0; k--)
    1ae8:	18 16       	cp	r1, r24
    1aea:	19 06       	cpc	r1, r25
    1aec:	64 f4       	brge	.+24     	; 0x1b06 <main+0xe6>
    1aee:	fd 01       	movw	r30, r26
					{
						main_board[k] = main_board[k - 1];	//깨진 줄의 위에 줄들 아래로 이동(행렬상 열 증가)
    1af0:	72 91       	ld	r23, -Z
    1af2:	62 91       	ld	r22, -Z
    1af4:	52 91       	ld	r21, -Z
    1af6:	42 91       	ld	r20, -Z
    1af8:	44 83       	std	Z+4, r20	; 0x04
    1afa:	55 83       	std	Z+5, r21	; 0x05
    1afc:	66 83       	std	Z+6, r22	; 0x06
    1afe:	77 83       	std	Z+7, r23	; 0x07
			{
				if(main_board[i] == 0xFFFFFF)
				//1줄이 모두 완성되어서 깨질 줄이 있는지 확인
				{
					main_board[i] = 0xF0000F;
					for(int k = i; k > 0; k--)
    1b00:	ce 17       	cp	r28, r30
    1b02:	df 07       	cpc	r29, r31
    1b04:	a9 f7       	brne	.-22     	; 0x1af0 <main+0xd0>



		while(game_over == 0)	//게임종료 플레그가 꺼저있을동안 반복
		{
			for(int i = 0; i < 63; i++)
    1b06:	01 96       	adiw	r24, 0x01	; 1
    1b08:	14 96       	adiw	r26, 0x04	; 4
    1b0a:	8f 33       	cpi	r24, 0x3F	; 63
    1b0c:	91 05       	cpc	r25, r1
    1b0e:	e9 f6       	brne	.-70     	; 0x1aca <main+0xaa>
    1b10:	aa ee       	ldi	r26, 0xEA	; 234
    1b12:	b6 e0       	ldi	r27, 0x06	; 6
    1b14:	fe 01       	movw	r30, r28
				}
			}

			for(int i = 0; i < 64; i++)
			{
				game_board[i] = main_board[i];	//굳어진후 저장된 보드를 변화하는 보드로 복사
    1b16:	41 91       	ld	r20, Z+
    1b18:	51 91       	ld	r21, Z+
    1b1a:	61 91       	ld	r22, Z+
    1b1c:	71 91       	ld	r23, Z+
    1b1e:	4d 93       	st	X+, r20
    1b20:	5d 93       	st	X+, r21
    1b22:	6d 93       	st	X+, r22
    1b24:	7d 93       	st	X+, r23
						main_board[k] = main_board[k - 1];	//깨진 줄의 위에 줄들 아래로 이동(행렬상 열 증가)
					}
				}
			}

			for(int i = 0; i < 64; i++)
    1b26:	0e 17       	cp	r16, r30
    1b28:	1f 07       	cpc	r17, r31
			{
				game_board[i] = main_board[i];	//굳어진후 저장된 보드를 변화하는 보드로 복사
			}
			
			NewTetriminos();	//새로운 테트리미노스 생성
    1b2a:	a9 f7       	brne	.-22     	; 0x1b16 <main+0xf6>
    1b2c:	97 de       	rcall	.-722    	; 0x185c <NewTetriminos>
			while(new_block == 0)	//새로운 블록 프레그 꺼져있는 동안 반복
    1b2e:	80 91 6e 01 	lds	r24, 0x016E	; 0x80016e <new_block>
    1b32:	81 11       	cpse	r24, r1
			{
				draw_map();	//반영된 변화하는 보드 화면으로 출력
    1b34:	05 c0       	rjmp	.+10     	; 0x1b40 <main+0x120>
    1b36:	1f de       	rcall	.-962    	; 0x1776 <draw_map>
			{
				game_board[i] = main_board[i];	//굳어진후 저장된 보드를 변화하는 보드로 복사
			}
			
			NewTetriminos();	//새로운 테트리미노스 생성
			while(new_block == 0)	//새로운 블록 프레그 꺼져있는 동안 반복
    1b38:	80 91 6e 01 	lds	r24, 0x016E	; 0x80016e <new_block>
    1b3c:	88 23       	and	r24, r24
    1b3e:	d9 f3       	breq	.-10     	; 0x1b36 <main+0x116>
		main_board[63] = 0xFFFFFF;




		while(game_over == 0)	//게임종료 플레그가 꺼저있을동안 반복
    1b40:	80 91 6d 01 	lds	r24, 0x016D	; 0x80016d <game_over>
    1b44:	81 11       	cpse	r24, r1
    1b46:	b0 cf       	rjmp	.-160    	; 0x1aa8 <main+0x88>
	                              


	while(1)
	{
		game_over = 0;	//게임종료 플레그 끄기
    1b48:	de 01       	movw	r26, r28
    1b4a:	80 e0       	ldi	r24, 0x00	; 0
    1b4c:	90 e0       	ldi	r25, 0x00	; 0
    1b4e:	bd cf       	rjmp	.-134    	; 0x1aca <main+0xaa>

00001b50 <u8g2_send_buffer>:
  For most displays, this will make the content visible to the user.
  Some displays (like the SSD1606) require a u8x8_RefreshDisplay()
*/
static void u8g2_send_buffer(u8g2_t *u8g2) U8X8_NOINLINE;
static void u8g2_send_buffer(u8g2_t *u8g2)
{
    1b50:	af 92       	push	r10
    1b52:	bf 92       	push	r11
    1b54:	cf 92       	push	r12
    1b56:	df 92       	push	r13
    1b58:	ef 92       	push	r14
    1b5a:	ff 92       	push	r15
    1b5c:	0f 93       	push	r16
    1b5e:	1f 93       	push	r17
    1b60:	cf 93       	push	r28
    1b62:	df 93       	push	r29
    1b64:	7c 01       	movw	r14, r24
  uint8_t src_max;
  uint8_t dest_row;
  uint8_t dest_max;

  src_row = 0;
  src_max = u8g2->tile_buf_height;
    1b66:	dc 01       	movw	r26, r24
    1b68:	95 96       	adiw	r26, 0x25	; 37
    1b6a:	bc 90       	ld	r11, X
    1b6c:	95 97       	sbiw	r26, 0x25	; 37
  dest_row = u8g2->tile_curr_row;
    1b6e:	96 96       	adiw	r26, 0x26	; 38
    1b70:	dc 91       	ld	r29, X
    1b72:	96 97       	sbiw	r26, 0x26	; 38
  dest_max = u8g2_GetU8x8(u8g2)->display_info->tile_height;
    1b74:	ed 91       	ld	r30, X+
    1b76:	fc 91       	ld	r31, X
    1b78:	a1 88       	ldd	r10, Z+17	; 0x11
  uint8_t dest_row;
  uint8_t dest_max;

  src_row = 0;
  src_max = u8g2->tile_buf_height;
  dest_row = u8g2->tile_curr_row;
    1b7a:	cd 2f       	mov	r28, r29
  dest_max = u8g2_GetU8x8(u8g2)->display_info->tile_height;
    1b7c:	c1 2c       	mov	r12, r1
    1b7e:	d1 2c       	mov	r13, r1
{
  uint8_t *ptr;
  uint16_t offset;
  uint8_t w;
  
  w = u8g2_GetU8x8(u8g2)->display_info->tile_width;
    1b80:	d7 01       	movw	r26, r14
    1b82:	ed 91       	ld	r30, X+
    1b84:	fc 91       	ld	r31, X
    1b86:	11 97       	sbiw	r26, 0x01	; 1
    1b88:	20 89       	ldd	r18, Z+16	; 0x10
  offset = src_tile_row;
  ptr = u8g2->tile_buf_ptr;
    1b8a:	93 96       	adiw	r26, 0x23	; 35
    1b8c:	0d 91       	ld	r16, X+
    1b8e:	1c 91       	ld	r17, X
    1b90:	94 97       	sbiw	r26, 0x24	; 36
  offset *= w;
  offset *= 8;
  ptr += offset;
  u8x8_DrawTile(u8g2_GetU8x8(u8g2), 0, dest_tile_row, w, ptr);
    1b92:	42 2f       	mov	r20, r18
    1b94:	50 e0       	ldi	r21, 0x00	; 0
    1b96:	44 0f       	add	r20, r20
    1b98:	55 1f       	adc	r21, r21
    1b9a:	44 0f       	add	r20, r20
    1b9c:	55 1f       	adc	r21, r21
    1b9e:	44 0f       	add	r20, r20
    1ba0:	55 1f       	adc	r21, r21
    1ba2:	4c 9d       	mul	r20, r12
    1ba4:	c0 01       	movw	r24, r0
    1ba6:	4d 9d       	mul	r20, r13
    1ba8:	90 0d       	add	r25, r0
    1baa:	5c 9d       	mul	r21, r12
    1bac:	90 0d       	add	r25, r0
    1bae:	11 24       	eor	r1, r1
    1bb0:	08 0f       	add	r16, r24
    1bb2:	19 1f       	adc	r17, r25
    1bb4:	4c 2f       	mov	r20, r28
    1bb6:	60 e0       	ldi	r22, 0x00	; 0
    1bb8:	c7 01       	movw	r24, r14
    1bba:	71 d5       	rcall	.+2786   	; 0x269e <u8x8_DrawTile>
  
  do
  {
    u8g2_send_tile_row(u8g2, src_row, dest_row);
    src_row++;
    dest_row++;
    1bbc:	cf 5f       	subi	r28, 0xFF	; 255
  } while( src_row < src_max && dest_row < dest_max );
    1bbe:	8c 2f       	mov	r24, r28
    1bc0:	8d 1b       	sub	r24, r29
    1bc2:	8b 15       	cp	r24, r11
    1bc4:	28 f4       	brcc	.+10     	; 0x1bd0 <u8g2_send_buffer+0x80>
    1bc6:	bf ef       	ldi	r27, 0xFF	; 255
    1bc8:	cb 1a       	sub	r12, r27
    1bca:	db 0a       	sbc	r13, r27
    1bcc:	ca 15       	cp	r28, r10
    1bce:	c0 f2       	brcs	.-80     	; 0x1b80 <u8g2_send_buffer+0x30>
}
    1bd0:	df 91       	pop	r29
    1bd2:	cf 91       	pop	r28
    1bd4:	1f 91       	pop	r17
    1bd6:	0f 91       	pop	r16
    1bd8:	ff 90       	pop	r15
    1bda:	ef 90       	pop	r14
    1bdc:	df 90       	pop	r13
    1bde:	cf 90       	pop	r12
    1be0:	bf 90       	pop	r11
    1be2:	af 90       	pop	r10
    1be4:	08 95       	ret

00001be6 <u8g2_ClearBuffer>:
#include "u8g2.h"
#include <string.h>

/*============================================*/
void u8g2_ClearBuffer(u8g2_t *u8g2)
{
    1be6:	fc 01       	movw	r30, r24
  size_t cnt;
  cnt = u8g2_GetU8x8(u8g2)->display_info->tile_width;
    1be8:	a0 81       	ld	r26, Z
    1bea:	b1 81       	ldd	r27, Z+1	; 0x01
    1bec:	50 96       	adiw	r26, 0x10	; 16
    1bee:	9c 91       	ld	r25, X
  cnt *= u8g2->tile_buf_height;
    1bf0:	45 a1       	ldd	r20, Z+37	; 0x25
    1bf2:	94 9f       	mul	r25, r20
    1bf4:	a0 01       	movw	r20, r0
    1bf6:	11 24       	eor	r1, r1
  cnt *= 8;
  memset(u8g2->tile_buf_ptr, 0, cnt);
    1bf8:	44 0f       	add	r20, r20
    1bfa:	55 1f       	adc	r21, r21
    1bfc:	44 0f       	add	r20, r20
    1bfe:	55 1f       	adc	r21, r21
    1c00:	44 0f       	add	r20, r20
    1c02:	55 1f       	adc	r21, r21
    1c04:	60 e0       	ldi	r22, 0x00	; 0
    1c06:	70 e0       	ldi	r23, 0x00	; 0
    1c08:	83 a1       	ldd	r24, Z+35	; 0x23
    1c0a:	94 a1       	ldd	r25, Z+36	; 0x24
    1c0c:	a8 c6       	rjmp	.+3408   	; 0x295e <memset>
    1c0e:	08 95       	ret

00001c10 <u8g2_SendBuffer>:
  } while( src_row < src_max && dest_row < dest_max );
}

/* same as u8g2_send_buffer but also send the DISPLAY_REFRESH message (used by SSD1606) */
void u8g2_SendBuffer(u8g2_t *u8g2)
{
    1c10:	cf 93       	push	r28
    1c12:	df 93       	push	r29
    1c14:	ec 01       	movw	r28, r24
  u8g2_send_buffer(u8g2);
    1c16:	9c df       	rcall	.-200    	; 0x1b50 <u8g2_send_buffer>
  u8x8_RefreshDisplay( u8g2_GetU8x8(u8g2) );  
    1c18:	ce 01       	movw	r24, r28
    1c1a:	85 d5       	rcall	.+2826   	; 0x2726 <u8x8_RefreshDisplay>
}
    1c1c:	df 91       	pop	r29
    1c1e:	cf 91       	pop	r28
    1c20:	08 95       	ret

00001c22 <u8g2_m_16_8_f>:
  #ifdef U8G2_USE_DYNAMIC_ALLOC
  *page_cnt = 8;
  return 0;
  #else
  static uint8_t buf[1024];
  *page_cnt = 8;
    1c22:	28 e0       	ldi	r18, 0x08	; 8
    1c24:	fc 01       	movw	r30, r24
    1c26:	20 83       	st	Z, r18
  return buf;
  #endif
}
    1c28:	8f e6       	ldi	r24, 0x6F	; 111
    1c2a:	92 e0       	ldi	r25, 0x02	; 2
    1c2c:	08 95       	ret

00001c2e <u8g2_Setup_ssd1306_i2c_128x64_noname_f>:
  buf = u8g2_m_16_8_2(&tile_buf_height);
  u8g2_SetupBuffer(u8g2, buf, tile_buf_height, u8g2_ll_hvline_vertical_top_lsb, rotation);
}
/* ssd1306 f */
void u8g2_Setup_ssd1306_i2c_128x64_noname_f(u8g2_t *u8g2, const u8g2_cb_t *rotation, u8x8_msg_cb byte_cb, u8x8_msg_cb gpio_and_delay_cb)
{
    1c2e:	cf 92       	push	r12
    1c30:	df 92       	push	r13
    1c32:	ef 92       	push	r14
    1c34:	ff 92       	push	r15
    1c36:	0f 93       	push	r16
    1c38:	1f 93       	push	r17
    1c3a:	cf 93       	push	r28
    1c3c:	df 93       	push	r29
    1c3e:	1f 92       	push	r1
    1c40:	cd b7       	in	r28, 0x3d	; 61
    1c42:	de b7       	in	r29, 0x3e	; 62
    1c44:	7c 01       	movw	r14, r24
    1c46:	6b 01       	movw	r12, r22
  uint8_t tile_buf_height;
  uint8_t *buf;
  u8g2_SetupDisplay(u8g2, u8x8_d_ssd1306_128x64_noname, u8x8_cad_ssd13xx_fast_i2c, byte_cb, gpio_and_delay_cb);
    1c48:	89 01       	movw	r16, r18
    1c4a:	9a 01       	movw	r18, r20
    1c4c:	43 ea       	ldi	r20, 0xA3	; 163
    1c4e:	52 e1       	ldi	r21, 0x12	; 18
    1c50:	68 e1       	ldi	r22, 0x18	; 24
    1c52:	74 e1       	ldi	r23, 0x14	; 20
    1c54:	2f d6       	rcall	.+3166   	; 0x28b4 <u8x8_Setup>
  buf = u8g2_m_16_8_f(&tile_buf_height);
    1c56:	ce 01       	movw	r24, r28
    1c58:	01 96       	adiw	r24, 0x01	; 1
    1c5a:	e3 df       	rcall	.-58     	; 0x1c22 <u8g2_m_16_8_f>
  u8g2_SetupBuffer(u8g2, buf, tile_buf_height, u8g2_ll_hvline_vertical_top_lsb, rotation);
    1c5c:	86 01       	movw	r16, r12
    1c5e:	27 ee       	ldi	r18, 0xE7	; 231
    1c60:	3f e0       	ldi	r19, 0x0F	; 15
    1c62:	49 81       	ldd	r20, Y+1	; 0x01
    1c64:	bc 01       	movw	r22, r24
    1c66:	c7 01       	movw	r24, r14
    1c68:	a5 d2       	rcall	.+1354   	; 0x21b4 <u8g2_SetupBuffer>
}
    1c6a:	0f 90       	pop	r0
    1c6c:	df 91       	pop	r29
    1c6e:	cf 91       	pop	r28
    1c70:	1f 91       	pop	r17
    1c72:	0f 91       	pop	r16
    1c74:	ff 90       	pop	r15
    1c76:	ef 90       	pop	r14
    1c78:	df 90       	pop	r13
    1c7a:	cf 90       	pop	r12
    1c7c:	08 95       	ret

00001c7e <u8g2_font_get_word>:
*/
u8g2_uint_t u8g2_GetUTF8Width(u8g2_t *u8g2, const char *str)
{
  u8g2->u8x8.next_cb = u8x8_utf8_next;
  return u8g2_string_width(u8g2, str);
}
    1c7e:	fc 01       	movw	r30, r24
    1c80:	e6 0f       	add	r30, r22
    1c82:	f1 1d       	adc	r31, r1
    1c84:	84 91       	lpm	r24, Z
    1c86:	90 e0       	ldi	r25, 0x00	; 0
    1c88:	98 2f       	mov	r25, r24
    1c8a:	88 27       	eor	r24, r24
    1c8c:	31 96       	adiw	r30, 0x01	; 1
    1c8e:	e4 91       	lpm	r30, Z
    1c90:	8e 0f       	add	r24, r30
    1c92:	91 1d       	adc	r25, r1
    1c94:	08 95       	ret

00001c96 <u8g2_font_calc_vref_font>:
    1c96:	80 e0       	ldi	r24, 0x00	; 0
    1c98:	08 95       	ret

00001c9a <u8g2_font_calc_vref_top>:
    1c9a:	80 5a       	subi	r24, 0xA0	; 160
    1c9c:	9f 4f       	sbci	r25, 0xFF	; 255
    1c9e:	fc 01       	movw	r30, r24
    1ca0:	80 81       	ld	r24, Z
    1ca2:	8f 5f       	subi	r24, 0xFF	; 255
    1ca4:	08 95       	ret

00001ca6 <u8g2_read_font_info>:
    1ca6:	0f 93       	push	r16
    1ca8:	1f 93       	push	r17
    1caa:	cf 93       	push	r28
    1cac:	df 93       	push	r29
    1cae:	ec 01       	movw	r28, r24
    1cb0:	8b 01       	movw	r16, r22
    1cb2:	fb 01       	movw	r30, r22
    1cb4:	84 91       	lpm	r24, Z
    1cb6:	88 83       	st	Y, r24
    1cb8:	31 96       	adiw	r30, 0x01	; 1
    1cba:	e4 91       	lpm	r30, Z
    1cbc:	e9 83       	std	Y+1, r30	; 0x01
    1cbe:	fb 01       	movw	r30, r22
    1cc0:	32 96       	adiw	r30, 0x02	; 2
    1cc2:	e4 91       	lpm	r30, Z
    1cc4:	ea 83       	std	Y+2, r30	; 0x02
    1cc6:	fb 01       	movw	r30, r22
    1cc8:	33 96       	adiw	r30, 0x03	; 3
    1cca:	e4 91       	lpm	r30, Z
    1ccc:	eb 83       	std	Y+3, r30	; 0x03
    1cce:	fb 01       	movw	r30, r22
    1cd0:	34 96       	adiw	r30, 0x04	; 4
    1cd2:	e4 91       	lpm	r30, Z
    1cd4:	ec 83       	std	Y+4, r30	; 0x04
    1cd6:	fb 01       	movw	r30, r22
    1cd8:	35 96       	adiw	r30, 0x05	; 5
    1cda:	e4 91       	lpm	r30, Z
    1cdc:	ed 83       	std	Y+5, r30	; 0x05
    1cde:	fb 01       	movw	r30, r22
    1ce0:	36 96       	adiw	r30, 0x06	; 6
    1ce2:	e4 91       	lpm	r30, Z
    1ce4:	ee 83       	std	Y+6, r30	; 0x06
    1ce6:	fb 01       	movw	r30, r22
    1ce8:	37 96       	adiw	r30, 0x07	; 7
    1cea:	e4 91       	lpm	r30, Z
    1cec:	ef 83       	std	Y+7, r30	; 0x07
    1cee:	fb 01       	movw	r30, r22
    1cf0:	38 96       	adiw	r30, 0x08	; 8
    1cf2:	e4 91       	lpm	r30, Z
    1cf4:	e8 87       	std	Y+8, r30	; 0x08
    1cf6:	fb 01       	movw	r30, r22
    1cf8:	39 96       	adiw	r30, 0x09	; 9
    1cfa:	e4 91       	lpm	r30, Z
    1cfc:	e9 87       	std	Y+9, r30	; 0x09
    1cfe:	fb 01       	movw	r30, r22
    1d00:	3a 96       	adiw	r30, 0x0a	; 10
    1d02:	e4 91       	lpm	r30, Z
    1d04:	ea 87       	std	Y+10, r30	; 0x0a
    1d06:	fb 01       	movw	r30, r22
    1d08:	3b 96       	adiw	r30, 0x0b	; 11
    1d0a:	e4 91       	lpm	r30, Z
    1d0c:	eb 87       	std	Y+11, r30	; 0x0b
    1d0e:	fb 01       	movw	r30, r22
    1d10:	3c 96       	adiw	r30, 0x0c	; 12
    1d12:	e4 91       	lpm	r30, Z
    1d14:	ec 87       	std	Y+12, r30	; 0x0c
    1d16:	fb 01       	movw	r30, r22
    1d18:	3d 96       	adiw	r30, 0x0d	; 13
    1d1a:	e4 91       	lpm	r30, Z
    1d1c:	ed 87       	std	Y+13, r30	; 0x0d
    1d1e:	fb 01       	movw	r30, r22
    1d20:	3e 96       	adiw	r30, 0x0e	; 14
    1d22:	e4 91       	lpm	r30, Z
    1d24:	ee 87       	std	Y+14, r30	; 0x0e
    1d26:	fb 01       	movw	r30, r22
    1d28:	3f 96       	adiw	r30, 0x0f	; 15
    1d2a:	e4 91       	lpm	r30, Z
    1d2c:	ef 87       	std	Y+15, r30	; 0x0f
    1d2e:	fb 01       	movw	r30, r22
    1d30:	70 96       	adiw	r30, 0x10	; 16
    1d32:	e4 91       	lpm	r30, Z
    1d34:	e8 8b       	std	Y+16, r30	; 0x10
    1d36:	61 e1       	ldi	r22, 0x11	; 17
    1d38:	c8 01       	movw	r24, r16
    1d3a:	a1 df       	rcall	.-190    	; 0x1c7e <u8g2_font_get_word>
    1d3c:	9a 8b       	std	Y+18, r25	; 0x12
    1d3e:	89 8b       	std	Y+17, r24	; 0x11
    1d40:	63 e1       	ldi	r22, 0x13	; 19
    1d42:	c8 01       	movw	r24, r16
    1d44:	9c df       	rcall	.-200    	; 0x1c7e <u8g2_font_get_word>
    1d46:	9c 8b       	std	Y+20, r25	; 0x14
    1d48:	8b 8b       	std	Y+19, r24	; 0x13
    1d4a:	65 e1       	ldi	r22, 0x15	; 21
    1d4c:	c8 01       	movw	r24, r16
    1d4e:	97 df       	rcall	.-210    	; 0x1c7e <u8g2_font_get_word>
    1d50:	9e 8b       	std	Y+22, r25	; 0x16
    1d52:	8d 8b       	std	Y+21, r24	; 0x15
    1d54:	df 91       	pop	r29
    1d56:	cf 91       	pop	r28
    1d58:	1f 91       	pop	r17
    1d5a:	0f 91       	pop	r16
    1d5c:	08 95       	ret

00001d5e <u8g2_UpdateRefHeight>:
    1d5e:	fc 01       	movw	r30, r24
    1d60:	26 a9       	ldd	r18, Z+54	; 0x36
    1d62:	37 a9       	ldd	r19, Z+55	; 0x37
    1d64:	23 2b       	or	r18, r19
    1d66:	e9 f1       	breq	.+122    	; 0x1de2 <u8g2_UpdateRefHeight+0x84>
    1d68:	ec 5a       	subi	r30, 0xAC	; 172
    1d6a:	ff 4f       	sbci	r31, 0xFF	; 255
    1d6c:	20 81       	ld	r18, Z
    1d6e:	3c 96       	adiw	r30, 0x0c	; 12
    1d70:	20 83       	st	Z, r18
    1d72:	3b 97       	sbiw	r30, 0x0b	; 11
    1d74:	40 81       	ld	r20, Z
    1d76:	3c 96       	adiw	r30, 0x0c	; 12
    1d78:	40 83       	st	Z, r20
    1d7a:	32 97       	sbiw	r30, 0x02	; 2
    1d7c:	30 81       	ld	r19, Z
    1d7e:	33 23       	and	r19, r19
    1d80:	81 f1       	breq	.+96     	; 0x1de2 <u8g2_UpdateRefHeight+0x84>
    1d82:	31 30       	cpi	r19, 0x01	; 1
    1d84:	79 f4       	brne	.+30     	; 0x1da4 <u8g2_UpdateRefHeight+0x46>
    1d86:	39 97       	sbiw	r30, 0x09	; 9
    1d88:	30 81       	ld	r19, Z
    1d8a:	23 17       	cp	r18, r19
    1d8c:	14 f4       	brge	.+4      	; 0x1d92 <u8g2_UpdateRefHeight+0x34>
    1d8e:	3a 96       	adiw	r30, 0x0a	; 10
    1d90:	30 83       	st	Z, r19
    1d92:	fc 01       	movw	r30, r24
    1d94:	e9 5a       	subi	r30, 0xA9	; 169
    1d96:	ff 4f       	sbci	r31, 0xFF	; 255
    1d98:	20 81       	ld	r18, Z
    1d9a:	24 17       	cp	r18, r20
    1d9c:	14 f5       	brge	.+68     	; 0x1de2 <u8g2_UpdateRefHeight+0x84>
    1d9e:	3a 96       	adiw	r30, 0x0a	; 10
    1da0:	20 83       	st	Z, r18
    1da2:	08 95       	ret
    1da4:	fc 01       	movw	r30, r24
    1da6:	ef 5a       	subi	r30, 0xAF	; 175
    1da8:	ff 4f       	sbci	r31, 0xFF	; 255
    1daa:	e0 81       	ld	r30, Z
    1dac:	dc 01       	movw	r26, r24
    1dae:	ad 5a       	subi	r26, 0xAD	; 173
    1db0:	bf 4f       	sbci	r27, 0xFF	; 255
    1db2:	5c 91       	ld	r21, X
    1db4:	02 2e       	mov	r0, r18
    1db6:	00 0c       	add	r0, r0
    1db8:	33 0b       	sbc	r19, r19
    1dba:	65 2f       	mov	r22, r21
    1dbc:	05 2e       	mov	r0, r21
    1dbe:	00 0c       	add	r0, r0
    1dc0:	77 0b       	sbc	r23, r23
    1dc2:	6e 0f       	add	r22, r30
    1dc4:	71 1d       	adc	r23, r1
    1dc6:	e7 fd       	sbrc	r30, 7
    1dc8:	7a 95       	dec	r23
    1dca:	26 17       	cp	r18, r22
    1dcc:	37 07       	cpc	r19, r23
    1dce:	1c f4       	brge	.+6      	; 0x1dd6 <u8g2_UpdateRefHeight+0x78>
    1dd0:	1d 96       	adiw	r26, 0x0d	; 13
    1dd2:	e5 0f       	add	r30, r21
    1dd4:	ec 93       	st	X, r30
    1dd6:	54 17       	cp	r21, r20
    1dd8:	24 f4       	brge	.+8      	; 0x1de2 <u8g2_UpdateRefHeight+0x84>
    1dda:	fc 01       	movw	r30, r24
    1ddc:	ef 59       	subi	r30, 0x9F	; 159
    1dde:	ff 4f       	sbci	r31, 0xFF	; 255
    1de0:	50 83       	st	Z, r21
    1de2:	08 95       	ret

00001de4 <u8g2_SetFontRefHeightExtendedText>:
    1de4:	fc 01       	movw	r30, r24
    1de6:	e1 5a       	subi	r30, 0xA1	; 161
    1de8:	ff 4f       	sbci	r31, 0xFF	; 255
    1dea:	21 e0       	ldi	r18, 0x01	; 1
    1dec:	20 83       	st	Z, r18
    1dee:	b7 cf       	rjmp	.-146    	; 0x1d5e <u8g2_UpdateRefHeight>
    1df0:	08 95       	ret

00001df2 <u8g2_SetFontPosBaseline>:
    1df2:	2b e4       	ldi	r18, 0x4B	; 75
    1df4:	3e e0       	ldi	r19, 0x0E	; 14
    1df6:	fc 01       	movw	r30, r24
    1df8:	31 af       	std	Z+57, r19	; 0x39
    1dfa:	20 af       	std	Z+56, r18	; 0x38
    1dfc:	08 95       	ret

00001dfe <u8g2_SetFontPosTop>:
    1dfe:	2d e4       	ldi	r18, 0x4D	; 77
    1e00:	3e e0       	ldi	r19, 0x0E	; 14
    1e02:	fc 01       	movw	r30, r24
    1e04:	31 af       	std	Z+57, r19	; 0x39
    1e06:	20 af       	std	Z+56, r18	; 0x38
    1e08:	08 95       	ret

00001e0a <u8g2_SetFont>:
    1e0a:	cf 93       	push	r28
    1e0c:	df 93       	push	r29
    1e0e:	fc 01       	movw	r30, r24
    1e10:	26 a9       	ldd	r18, Z+54	; 0x36
    1e12:	37 a9       	ldd	r19, Z+55	; 0x37
    1e14:	26 17       	cp	r18, r22
    1e16:	37 07       	cpc	r19, r23
    1e18:	41 f0       	breq	.+16     	; 0x1e2a <u8g2_SetFont+0x20>
    1e1a:	ec 01       	movw	r28, r24
    1e1c:	77 ab       	std	Z+55, r23	; 0x37
    1e1e:	66 ab       	std	Z+54, r22	; 0x36
    1e20:	89 5b       	subi	r24, 0xB9	; 185
    1e22:	9f 4f       	sbci	r25, 0xFF	; 255
    1e24:	40 df       	rcall	.-384    	; 0x1ca6 <u8g2_read_font_info>
    1e26:	ce 01       	movw	r24, r28
    1e28:	9a df       	rcall	.-204    	; 0x1d5e <u8g2_UpdateRefHeight>
    1e2a:	df 91       	pop	r29
    1e2c:	cf 91       	pop	r28
    1e2e:	08 95       	ret

00001e30 <u8g2_SetFontDirection>:


void u8g2_SetFontDirection(u8g2_t *u8g2, uint8_t dir)
{
#ifdef U8G2_WITH_FONT_ROTATION  
  u8g2->font_decode.dir = dir;
    1e30:	8a 5b       	subi	r24, 0xBA	; 186
    1e32:	9f 4f       	sbci	r25, 0xFF	; 255
    1e34:	fc 01       	movw	r30, r24
    1e36:	60 83       	st	Z, r22
    1e38:	08 95       	ret

00001e3a <u8g2_draw_hv_line_2dir>:
// #ifdef U8G2_WITH_INTERSECTION
//   if ( u8g2_IsIntersection(u8g2, x, y, x+1, y+len) == 0 ) 
//     return;
// #endif /* U8G2_WITH_INTERSECTION */
  u8g2_DrawHVLine(u8g2, x, y, len, 1);
}
    1e3a:	0f 93       	push	r16
    1e3c:	dc 01       	movw	r26, r24
    1e3e:	99 96       	adiw	r26, 0x29	; 41
    1e40:	3c 91       	ld	r19, X
    1e42:	99 97       	sbiw	r26, 0x29	; 41
    1e44:	43 1b       	sub	r20, r19
    1e46:	5f 96       	adiw	r26, 0x1f	; 31
    1e48:	ed 91       	ld	r30, X+
    1e4a:	fc 91       	ld	r31, X
    1e4c:	90 97       	sbiw	r26, 0x20	; 32
    1e4e:	09 95       	icall
    1e50:	0f 91       	pop	r16
    1e52:	08 95       	ret

00001e54 <u8g2_DrawHVLine>:
    1e54:	0f 93       	push	r16
    1e56:	fc 01       	movw	r30, r24
    1e58:	e2 5a       	subi	r30, 0xA2	; 162
    1e5a:	ff 4f       	sbci	r31, 0xFF	; 255
    1e5c:	30 81       	ld	r19, Z
    1e5e:	33 23       	and	r19, r19
    1e60:	09 f4       	brne	.+2      	; 0x1e64 <u8g2_DrawHVLine+0x10>
    1e62:	65 c0       	rjmp	.+202    	; 0x1f2e <u8g2_DrawHVLine+0xda>
    1e64:	22 23       	and	r18, r18
    1e66:	09 f4       	brne	.+2      	; 0x1e6a <u8g2_DrawHVLine+0x16>
    1e68:	62 c0       	rjmp	.+196    	; 0x1f2e <u8g2_DrawHVLine+0xda>
    1e6a:	22 30       	cpi	r18, 0x02	; 2
    1e6c:	58 f0       	brcs	.+22     	; 0x1e84 <u8g2_DrawHVLine+0x30>
    1e6e:	02 30       	cpi	r16, 0x02	; 2
    1e70:	19 f4       	brne	.+6      	; 0x1e78 <u8g2_DrawHVLine+0x24>
    1e72:	6f 5f       	subi	r22, 0xFF	; 255
    1e74:	62 1b       	sub	r22, r18
    1e76:	0a c0       	rjmp	.+20     	; 0x1e8c <u8g2_DrawHVLine+0x38>
    1e78:	03 30       	cpi	r16, 0x03	; 3
    1e7a:	21 f4       	brne	.+8      	; 0x1e84 <u8g2_DrawHVLine+0x30>
    1e7c:	4f 5f       	subi	r20, 0xFF	; 255
    1e7e:	42 1b       	sub	r20, r18
    1e80:	51 e0       	ldi	r21, 0x01	; 1
    1e82:	2d c0       	rjmp	.+90     	; 0x1ede <u8g2_DrawHVLine+0x8a>
    1e84:	50 2f       	mov	r21, r16
    1e86:	51 70       	andi	r21, 0x01	; 1
    1e88:	00 fd       	sbrc	r16, 0
    1e8a:	29 c0       	rjmp	.+82     	; 0x1ede <u8g2_DrawHVLine+0x8a>
    1e8c:	dc 01       	movw	r26, r24
    1e8e:	d0 96       	adiw	r26, 0x30	; 48
    1e90:	3c 91       	ld	r19, X
    1e92:	d0 97       	sbiw	r26, 0x30	; 48
    1e94:	43 17       	cp	r20, r19
    1e96:	08 f4       	brcc	.+2      	; 0x1e9a <u8g2_DrawHVLine+0x46>
    1e98:	4a c0       	rjmp	.+148    	; 0x1f2e <u8g2_DrawHVLine+0xda>
    1e9a:	d1 96       	adiw	r26, 0x31	; 49
    1e9c:	3c 91       	ld	r19, X
    1e9e:	d1 97       	sbiw	r26, 0x31	; 49
    1ea0:	43 17       	cp	r20, r19
    1ea2:	08 f0       	brcs	.+2      	; 0x1ea6 <u8g2_DrawHVLine+0x52>
    1ea4:	44 c0       	rjmp	.+136    	; 0x1f2e <u8g2_DrawHVLine+0xda>
    1ea6:	9f 96       	adiw	r26, 0x2f	; 47
    1ea8:	3c 91       	ld	r19, X
    1eaa:	9f 97       	sbiw	r26, 0x2f	; 47
    1eac:	9e 96       	adiw	r26, 0x2e	; 46
    1eae:	5c 91       	ld	r21, X
    1eb0:	26 0f       	add	r18, r22
    1eb2:	26 17       	cp	r18, r22
    1eb4:	30 f4       	brcc	.+12     	; 0x1ec2 <u8g2_DrawHVLine+0x6e>
    1eb6:	63 17       	cp	r22, r19
    1eb8:	18 f4       	brcc	.+6      	; 0x1ec0 <u8g2_DrawHVLine+0x6c>
    1eba:	2f ef       	ldi	r18, 0xFF	; 255
    1ebc:	23 0f       	add	r18, r19
    1ebe:	03 c0       	rjmp	.+6      	; 0x1ec6 <u8g2_DrawHVLine+0x72>
    1ec0:	65 2f       	mov	r22, r21
    1ec2:	63 17       	cp	r22, r19
    1ec4:	a0 f5       	brcc	.+104    	; 0x1f2e <u8g2_DrawHVLine+0xda>
    1ec6:	52 17       	cp	r21, r18
    1ec8:	90 f5       	brcc	.+100    	; 0x1f2e <u8g2_DrawHVLine+0xda>
    1eca:	65 17       	cp	r22, r21
    1ecc:	08 f4       	brcc	.+2      	; 0x1ed0 <u8g2_DrawHVLine+0x7c>
    1ece:	65 2f       	mov	r22, r21
    1ed0:	23 17       	cp	r18, r19
    1ed2:	08 f4       	brcc	.+2      	; 0x1ed6 <u8g2_DrawHVLine+0x82>
    1ed4:	32 2f       	mov	r19, r18
    1ed6:	23 2f       	mov	r18, r19
    1ed8:	26 1b       	sub	r18, r22
    1eda:	50 e0       	ldi	r21, 0x00	; 0
    1edc:	1e c0       	rjmp	.+60     	; 0x1f1a <u8g2_DrawHVLine+0xc6>
    1ede:	fc 01       	movw	r30, r24
    1ee0:	36 a5       	ldd	r19, Z+46	; 0x2e
    1ee2:	63 17       	cp	r22, r19
    1ee4:	20 f1       	brcs	.+72     	; 0x1f2e <u8g2_DrawHVLine+0xda>
    1ee6:	37 a5       	ldd	r19, Z+47	; 0x2f
    1ee8:	63 17       	cp	r22, r19
    1eea:	08 f5       	brcc	.+66     	; 0x1f2e <u8g2_DrawHVLine+0xda>
    1eec:	31 a9       	ldd	r19, Z+49	; 0x31
    1eee:	70 a9       	ldd	r23, Z+48	; 0x30
    1ef0:	24 0f       	add	r18, r20
    1ef2:	24 17       	cp	r18, r20
    1ef4:	30 f4       	brcc	.+12     	; 0x1f02 <u8g2_DrawHVLine+0xae>
    1ef6:	43 17       	cp	r20, r19
    1ef8:	18 f4       	brcc	.+6      	; 0x1f00 <u8g2_DrawHVLine+0xac>
    1efa:	2f ef       	ldi	r18, 0xFF	; 255
    1efc:	23 0f       	add	r18, r19
    1efe:	03 c0       	rjmp	.+6      	; 0x1f06 <u8g2_DrawHVLine+0xb2>
    1f00:	47 2f       	mov	r20, r23
    1f02:	43 17       	cp	r20, r19
    1f04:	a0 f4       	brcc	.+40     	; 0x1f2e <u8g2_DrawHVLine+0xda>
    1f06:	72 17       	cp	r23, r18
    1f08:	90 f4       	brcc	.+36     	; 0x1f2e <u8g2_DrawHVLine+0xda>
    1f0a:	47 17       	cp	r20, r23
    1f0c:	08 f4       	brcc	.+2      	; 0x1f10 <u8g2_DrawHVLine+0xbc>
    1f0e:	47 2f       	mov	r20, r23
    1f10:	23 17       	cp	r18, r19
    1f12:	08 f4       	brcc	.+2      	; 0x1f16 <u8g2_DrawHVLine+0xc2>
    1f14:	32 2f       	mov	r19, r18
    1f16:	23 2f       	mov	r18, r19
    1f18:	24 1b       	sub	r18, r20
    1f1a:	dc 01       	movw	r26, r24
    1f1c:	91 96       	adiw	r26, 0x21	; 33
    1f1e:	ed 91       	ld	r30, X+
    1f20:	fc 91       	ld	r31, X
    1f22:	92 97       	sbiw	r26, 0x22	; 34
    1f24:	04 80       	ldd	r0, Z+4	; 0x04
    1f26:	f5 81       	ldd	r31, Z+5	; 0x05
    1f28:	e0 2d       	mov	r30, r0
    1f2a:	05 2f       	mov	r16, r21
    1f2c:	09 95       	icall
    1f2e:	0f 91       	pop	r16
    1f30:	08 95       	ret

00001f32 <u8g2_DrawPixel>:

void u8g2_DrawPixel(u8g2_t *u8g2, u8g2_uint_t x, u8g2_uint_t y)
{
    1f32:	0f 93       	push	r16
    1f34:	fc 01       	movw	r30, r24
#ifdef U8G2_WITH_INTERSECTION
  if ( y < u8g2->user_y0 )
    1f36:	80 a9       	ldd	r24, Z+48	; 0x30
    1f38:	48 17       	cp	r20, r24
    1f3a:	68 f0       	brcs	.+26     	; 0x1f56 <u8g2_DrawPixel+0x24>
    return;
  if ( y >= u8g2->user_y1 )
    1f3c:	81 a9       	ldd	r24, Z+49	; 0x31
    1f3e:	48 17       	cp	r20, r24
    1f40:	50 f4       	brcc	.+20     	; 0x1f56 <u8g2_DrawPixel+0x24>
    return;
  if ( x < u8g2->user_x0 )
    1f42:	86 a5       	ldd	r24, Z+46	; 0x2e
    1f44:	68 17       	cp	r22, r24
    1f46:	38 f0       	brcs	.+14     	; 0x1f56 <u8g2_DrawPixel+0x24>
    return;
  if ( x >= u8g2->user_x1 )
    1f48:	87 a5       	ldd	r24, Z+47	; 0x2f
    1f4a:	68 17       	cp	r22, r24
    1f4c:	20 f4       	brcc	.+8      	; 0x1f56 <u8g2_DrawPixel+0x24>
    1f4e:	cf 01       	movw	r24, r30
    return;
#endif /* U8G2_WITH_INTERSECTION */
  u8g2_DrawHVLine(u8g2, x, y, 1, 0);
    1f50:	00 e0       	ldi	r16, 0x00	; 0
    1f52:	21 e0       	ldi	r18, 0x01	; 1
    1f54:	7f df       	rcall	.-258    	; 0x1e54 <u8g2_DrawHVLine>
}
    1f56:	0f 91       	pop	r16
    1f58:	08 95       	ret

00001f5a <u8g2_SetDrawColor>:
  
*/
void u8g2_SetDrawColor(u8g2_t *u8g2, uint8_t color)
{
  u8g2->draw_color = color;	/* u8g2_SetDrawColor: just assign the argument */ 
  if ( color >= 3 )
    1f5a:	63 30       	cpi	r22, 0x03	; 3
    1f5c:	28 f4       	brcc	.+10     	; 0x1f68 <u8g2_SetDrawColor+0xe>
  7 Jan 2017: Allow color value 2 for XOR operation.
  
*/
void u8g2_SetDrawColor(u8g2_t *u8g2, uint8_t color)
{
  u8g2->draw_color = color;	/* u8g2_SetDrawColor: just assign the argument */ 
    1f5e:	fc 01       	movw	r30, r24
    1f60:	ec 59       	subi	r30, 0x9C	; 156
    1f62:	ff 4f       	sbci	r31, 0xFF	; 255
    1f64:	60 83       	st	Z, r22
    1f66:	08 95       	ret
  if ( color >= 3 )
    u8g2->draw_color = 1;	/* u8g2_SetDrawColor: make color as one if arg is invalid */
    1f68:	fc 01       	movw	r30, r24
    1f6a:	ec 59       	subi	r30, 0x9C	; 156
    1f6c:	ff 4f       	sbci	r31, 0xFF	; 255
    1f6e:	21 e0       	ldi	r18, 0x01	; 1
    1f70:	20 83       	st	Z, r18
    1f72:	08 95       	ret

00001f74 <u8g2_is_intersection_decision_tree>:
  a1 and v1 are excluded
  v0 == v1 is not support end return 1
*/
uint8_t u8g2_is_intersection_decision_tree(u8g2_uint_t a0, u8g2_uint_t a1, u8g2_uint_t v0, u8g2_uint_t v1)
{
  if ( v0 < a1 )		// v0 <= a1
    1f74:	46 17       	cp	r20, r22
    1f76:	38 f4       	brcc	.+14     	; 0x1f86 <u8g2_is_intersection_decision_tree+0x12>
  {
    if ( v1 > a0 )	// v1 >= a0
    1f78:	82 17       	cp	r24, r18
    1f7a:	60 f0       	brcs	.+24     	; 0x1f94 <u8g2_is_intersection_decision_tree+0x20>
    {
      return 1;
    1f7c:	81 e0       	ldi	r24, 0x01	; 1
    1f7e:	24 17       	cp	r18, r20
    1f80:	60 f0       	brcs	.+24     	; 0x1f9a <u8g2_is_intersection_decision_tree+0x26>
    1f82:	80 e0       	ldi	r24, 0x00	; 0
    1f84:	08 95       	ret
      }
    }
  }
  else
  {
    if ( v1 > a0 )	// v1 >= a0
    1f86:	82 17       	cp	r24, r18
    1f88:	38 f4       	brcc	.+14     	; 0x1f98 <u8g2_is_intersection_decision_tree+0x24>
{
  if ( v0 < a1 )		// v0 <= a1
  {
    if ( v1 > a0 )	// v1 >= a0
    {
      return 1;
    1f8a:	81 e0       	ldi	r24, 0x01	; 1
    1f8c:	24 17       	cp	r18, r20
    1f8e:	28 f0       	brcs	.+10     	; 0x1f9a <u8g2_is_intersection_decision_tree+0x26>
    1f90:	80 e0       	ldi	r24, 0x00	; 0
    1f92:	08 95       	ret
    1f94:	81 e0       	ldi	r24, 0x01	; 1
    1f96:	08 95       	ret
	return 0;
      }
    }
    else
    {
      return 0;
    1f98:	80 e0       	ldi	r24, 0x00	; 0
    }
  }
}
    1f9a:	08 95       	ret

00001f9c <u8g2_IsIntersection>:



/* upper limits are not included (asymetric boundaries) */
uint8_t u8g2_IsIntersection(u8g2_t *u8g2, u8g2_uint_t x0, u8g2_uint_t y0, u8g2_uint_t x1, u8g2_uint_t y1)
{
    1f9c:	ff 92       	push	r15
    1f9e:	0f 93       	push	r16
    1fa0:	1f 93       	push	r17
    1fa2:	cf 93       	push	r28
    1fa4:	df 93       	push	r29
    1fa6:	ec 01       	movw	r28, r24
    1fa8:	16 2f       	mov	r17, r22
    1faa:	f2 2e       	mov	r15, r18
    1fac:	20 2f       	mov	r18, r16
  if ( u8g2_is_intersection_decision_tree(u8g2->user_y0, u8g2->user_y1, y0, y1) == 0 )
    1fae:	69 a9       	ldd	r22, Y+49	; 0x31
    1fb0:	88 a9       	ldd	r24, Y+48	; 0x30
    1fb2:	e0 df       	rcall	.-64     	; 0x1f74 <u8g2_is_intersection_decision_tree>
    1fb4:	88 23       	and	r24, r24
    1fb6:	29 f0       	breq	.+10     	; 0x1fc2 <u8g2_IsIntersection+0x26>
    return 0; 
  
  return u8g2_is_intersection_decision_tree(u8g2->user_x0, u8g2->user_x1, x0, x1);
    1fb8:	2f 2d       	mov	r18, r15
    1fba:	41 2f       	mov	r20, r17
    1fbc:	6f a5       	ldd	r22, Y+47	; 0x2f
    1fbe:	8e a5       	ldd	r24, Y+46	; 0x2e
    1fc0:	d9 df       	rcall	.-78     	; 0x1f74 <u8g2_is_intersection_decision_tree>
}
    1fc2:	df 91       	pop	r29
    1fc4:	cf 91       	pop	r28
    1fc6:	1f 91       	pop	r17
    1fc8:	0f 91       	pop	r16
    1fca:	ff 90       	pop	r15
    1fcc:	08 95       	ret

00001fce <u8g2_ll_hvline_vertical_top_lsb>:
		1: vertical line (top to bottom)
  asumption: 
    all clipping done
*/
void u8g2_ll_hvline_vertical_top_lsb(u8g2_t *u8g2, u8g2_uint_t x, u8g2_uint_t y, u8g2_uint_t len, uint8_t dir)
{
    1fce:	ef 92       	push	r14
    1fd0:	ff 92       	push	r15
    1fd2:	0f 93       	push	r16
    1fd4:	cf 93       	push	r28
    1fd6:	df 93       	push	r29
    1fd8:	7c 01       	movw	r14, r24
  //assert(y >= u8g2->buf_y0);
  //assert(y < u8g2_GetU8x8(u8g2)->display_info->tile_height*8);
  
  /* bytes are vertical, lsb on top (y=0), msb at bottom (y=7) */
  bit_pos = y;		/* overflow truncate is ok here... */
  bit_pos &= 7; 	/* ... because only the lowest 3 bits are needed */
    1fda:	34 2f       	mov	r19, r20
    1fdc:	37 70       	andi	r19, 0x07	; 7
  mask = 1;
  mask <<= bit_pos;
    1fde:	81 e0       	ldi	r24, 0x01	; 1
    1fe0:	90 e0       	ldi	r25, 0x00	; 0
    1fe2:	03 2e       	mov	r0, r19
    1fe4:	02 c0       	rjmp	.+4      	; 0x1fea <u8g2_ll_hvline_vertical_top_lsb+0x1c>
    1fe6:	88 0f       	add	r24, r24
    1fe8:	99 1f       	adc	r25, r25
    1fea:	0a 94       	dec	r0
    1fec:	e2 f7       	brpl	.-8      	; 0x1fe6 <u8g2_ll_hvline_vertical_top_lsb+0x18>
    1fee:	c8 2f       	mov	r28, r24

  or_mask = 0;
  xor_mask = 0;
  if ( u8g2->draw_color <= 1 )
    1ff0:	f7 01       	movw	r30, r14
    1ff2:	ec 59       	subi	r30, 0x9C	; 156
    1ff4:	ff 4f       	sbci	r31, 0xFF	; 255
    1ff6:	50 81       	ld	r21, Z
    1ff8:	52 30       	cpi	r21, 0x02	; 2
    1ffa:	20 f4       	brcc	.+8      	; 0x2004 <u8g2_ll_hvline_vertical_top_lsb+0x36>
    or_mask  = mask;
  if ( u8g2->draw_color != 1 )
    1ffc:	51 30       	cpi	r21, 0x01	; 1
    1ffe:	21 f0       	breq	.+8      	; 0x2008 <u8g2_ll_hvline_vertical_top_lsb+0x3a>
  mask <<= bit_pos;

  or_mask = 0;
  xor_mask = 0;
  if ( u8g2->draw_color <= 1 )
    or_mask  = mask;
    2000:	78 2f       	mov	r23, r24
    2002:	04 c0       	rjmp	.+8      	; 0x200c <u8g2_ll_hvline_vertical_top_lsb+0x3e>
  bit_pos = y;		/* overflow truncate is ok here... */
  bit_pos &= 7; 	/* ... because only the lowest 3 bits are needed */
  mask = 1;
  mask <<= bit_pos;

  or_mask = 0;
    2004:	70 e0       	ldi	r23, 0x00	; 0
    2006:	02 c0       	rjmp	.+4      	; 0x200c <u8g2_ll_hvline_vertical_top_lsb+0x3e>
  xor_mask = 0;
  if ( u8g2->draw_color <= 1 )
    or_mask  = mask;
    2008:	78 2f       	mov	r23, r24
  bit_pos &= 7; 	/* ... because only the lowest 3 bits are needed */
  mask = 1;
  mask <<= bit_pos;

  or_mask = 0;
  xor_mask = 0;
    200a:	c0 e0       	ldi	r28, 0x00	; 0
    or_mask  = mask;
  if ( u8g2->draw_color != 1 )
    xor_mask = mask;


  offset = y;		/* y might be 8 or 16 bit, but we need 16 bit, so use a 16 bit variable */
    200c:	50 e0       	ldi	r21, 0x00	; 0
  offset &= ~7;
    200e:	48 7f       	andi	r20, 0xF8	; 248
  offset *= u8g2_GetU8x8(u8g2)->display_info->tile_width;
  ptr = u8g2->tile_buf_ptr;
    2010:	d7 01       	movw	r26, r14
    2012:	93 96       	adiw	r26, 0x23	; 35
    2014:	8d 91       	ld	r24, X+
    2016:	9c 91       	ld	r25, X
    2018:	94 97       	sbiw	r26, 0x24	; 36
    xor_mask = mask;


  offset = y;		/* y might be 8 or 16 bit, but we need 16 bit, so use a 16 bit variable */
  offset &= ~7;
  offset *= u8g2_GetU8x8(u8g2)->display_info->tile_width;
    201a:	ed 91       	ld	r30, X+
    201c:	fc 91       	ld	r31, X
  ptr = u8g2->tile_buf_ptr;
  ptr += offset;
  ptr += x;
    201e:	d0 89       	ldd	r29, Z+16	; 0x10
    2020:	d4 9f       	mul	r29, r20
    2022:	f0 01       	movw	r30, r0
    2024:	d5 9f       	mul	r29, r21
    2026:	f0 0d       	add	r31, r0
    2028:	11 24       	eor	r1, r1
    202a:	e6 0f       	add	r30, r22
    202c:	f1 1d       	adc	r31, r1
    202e:	e8 0f       	add	r30, r24
    2030:	f9 1f       	adc	r31, r25
  
  if ( dir == 0 )
    2032:	01 11       	cpse	r16, r1
    2034:	07 c0       	rjmp	.+14     	; 0x2044 <u8g2_ll_hvline_vertical_top_lsb+0x76>
      {
#ifdef __unix
	assert(ptr < max_ptr);
#endif
	*ptr |= or_mask;
	*ptr ^= xor_mask;
    2036:	80 81       	ld	r24, Z
    2038:	87 2b       	or	r24, r23
    203a:	8c 27       	eor	r24, r28
    203c:	81 93       	st	Z+, r24
	ptr++;
	len--;
    203e:	21 50       	subi	r18, 0x01	; 1
      } while( len != 0 );
    2040:	d1 f7       	brne	.-12     	; 0x2036 <u8g2_ll_hvline_vertical_top_lsb+0x68>
    2042:	22 c0       	rjmp	.+68     	; 0x2088 <u8g2_ll_hvline_vertical_top_lsb+0xba>

      if ( bit_pos == 0 )
      {
	ptr+=u8g2->pixel_buf_width;	/* 6 Jan 17: Changed u8g2->width to u8g2->pixel_buf_width, issue #148 */
		
	if ( u8g2->draw_color <= 1 )
    2044:	a7 01       	movw	r20, r14
    2046:	4c 59       	subi	r20, 0x9C	; 156
    2048:	5f 4f       	sbci	r21, 0xFF	; 255
    {
#ifdef __unix
      assert(ptr < max_ptr);
#endif
      *ptr |= or_mask;
      *ptr ^= xor_mask;
    204a:	90 81       	ld	r25, Z
    204c:	97 2b       	or	r25, r23
    204e:	9c 27       	eor	r25, r28
    2050:	90 83       	st	Z, r25
      
      bit_pos++;
    2052:	3f 5f       	subi	r19, 0xFF	; 255
      bit_pos &= 7;
    2054:	37 70       	andi	r19, 0x07	; 7

      len--;
    2056:	21 50       	subi	r18, 0x01	; 1

      if ( bit_pos == 0 )
    2058:	31 11       	cpse	r19, r1
    205a:	0e c0       	rjmp	.+28     	; 0x2078 <u8g2_ll_hvline_vertical_top_lsb+0xaa>
      {
	ptr+=u8g2->pixel_buf_width;	/* 6 Jan 17: Changed u8g2->width to u8g2->pixel_buf_width, issue #148 */
    205c:	d7 01       	movw	r26, r14
    205e:	97 96       	adiw	r26, 0x27	; 39
    2060:	8c 91       	ld	r24, X
    2062:	e8 0f       	add	r30, r24
    2064:	f1 1d       	adc	r31, r1
		
	if ( u8g2->draw_color <= 1 )
    2066:	da 01       	movw	r26, r20
    2068:	8c 91       	ld	r24, X
    206a:	82 30       	cpi	r24, 0x02	; 2
    206c:	40 f4       	brcc	.+16     	; 0x207e <u8g2_ll_hvline_vertical_top_lsb+0xb0>
	  or_mask  = 1;
	if ( u8g2->draw_color != 1 )
    206e:	81 30       	cpi	r24, 0x01	; 1
    2070:	41 f0       	breq	.+16     	; 0x2082 <u8g2_ll_hvline_vertical_top_lsb+0xb4>
	  xor_mask = 1;
    2072:	c1 e0       	ldi	r28, 0x01	; 1
      if ( bit_pos == 0 )
      {
	ptr+=u8g2->pixel_buf_width;	/* 6 Jan 17: Changed u8g2->width to u8g2->pixel_buf_width, issue #148 */
		
	if ( u8g2->draw_color <= 1 )
	  or_mask  = 1;
    2074:	71 e0       	ldi	r23, 0x01	; 1
    2076:	06 c0       	rjmp	.+12     	; 0x2084 <u8g2_ll_hvline_vertical_top_lsb+0xb6>
	if ( u8g2->draw_color != 1 )
	  xor_mask = 1;
      }
      else
      {
	or_mask <<= 1;
    2078:	77 0f       	add	r23, r23
	xor_mask <<= 1;
    207a:	cc 0f       	add	r28, r28
    207c:	03 c0       	rjmp	.+6      	; 0x2084 <u8g2_ll_hvline_vertical_top_lsb+0xb6>
	ptr+=u8g2->pixel_buf_width;	/* 6 Jan 17: Changed u8g2->width to u8g2->pixel_buf_width, issue #148 */
		
	if ( u8g2->draw_color <= 1 )
	  or_mask  = 1;
	if ( u8g2->draw_color != 1 )
	  xor_mask = 1;
    207e:	c1 e0       	ldi	r28, 0x01	; 1
    2080:	01 c0       	rjmp	.+2      	; 0x2084 <u8g2_ll_hvline_vertical_top_lsb+0xb6>
      if ( bit_pos == 0 )
      {
	ptr+=u8g2->pixel_buf_width;	/* 6 Jan 17: Changed u8g2->width to u8g2->pixel_buf_width, issue #148 */
		
	if ( u8g2->draw_color <= 1 )
	  or_mask  = 1;
    2082:	71 e0       	ldi	r23, 0x01	; 1
      else
      {
	or_mask <<= 1;
	xor_mask <<= 1;
      }
    } while( len != 0 );
    2084:	21 11       	cpse	r18, r1
    2086:	e1 cf       	rjmp	.-62     	; 0x204a <u8g2_ll_hvline_vertical_top_lsb+0x7c>
  }
}
    2088:	df 91       	pop	r29
    208a:	cf 91       	pop	r28
    208c:	0f 91       	pop	r16
    208e:	ff 90       	pop	r15
    2090:	ef 90       	pop	r14
    2092:	08 95       	ret

00002094 <u8g2_update_dimension_common>:
  u8g2->clip_x0 = clip_x0;
  u8g2->clip_y0 = clip_y0;
  u8g2->clip_x1 = clip_x1;
  u8g2->clip_y1 = clip_y1;
  u8g2->cb->update_page_win(u8g2);
}
    2094:	fc 01       	movw	r30, r24
    2096:	a0 81       	ld	r26, Z
    2098:	b1 81       	ldd	r27, Z+1	; 0x01
    209a:	85 a1       	ldd	r24, Z+37	; 0x25
    209c:	98 2f       	mov	r25, r24
    209e:	99 0f       	add	r25, r25
    20a0:	99 0f       	add	r25, r25
    20a2:	99 0f       	add	r25, r25
    20a4:	90 a7       	std	Z+40, r25	; 0x28
    20a6:	50 96       	adiw	r26, 0x10	; 16
    20a8:	9c 91       	ld	r25, X
    20aa:	50 97       	sbiw	r26, 0x10	; 16
    20ac:	90 32       	cpi	r25, 0x20	; 32
    20ae:	08 f0       	brcs	.+2      	; 0x20b2 <u8g2_update_dimension_common+0x1e>
    20b0:	9f e1       	ldi	r25, 0x1F	; 31
    20b2:	99 0f       	add	r25, r25
    20b4:	99 0f       	add	r25, r25
    20b6:	99 0f       	add	r25, r25
    20b8:	97 a3       	std	Z+39, r25	; 0x27
    20ba:	46 a1       	ldd	r20, Z+38	; 0x26
    20bc:	94 2f       	mov	r25, r20
    20be:	99 0f       	add	r25, r25
    20c0:	99 0f       	add	r25, r25
    20c2:	99 0f       	add	r25, r25
    20c4:	91 a7       	std	Z+41, r25	; 0x29
    20c6:	51 96       	adiw	r26, 0x11	; 17
    20c8:	5c 91       	ld	r21, X
    20ca:	51 97       	sbiw	r26, 0x11	; 17
    20cc:	24 2f       	mov	r18, r20
    20ce:	30 e0       	ldi	r19, 0x00	; 0
    20d0:	28 0f       	add	r18, r24
    20d2:	31 1d       	adc	r19, r1
    20d4:	65 2f       	mov	r22, r21
    20d6:	70 e0       	ldi	r23, 0x00	; 0
    20d8:	62 17       	cp	r22, r18
    20da:	73 07       	cpc	r23, r19
    20dc:	14 f4       	brge	.+4      	; 0x20e2 <u8g2_update_dimension_common+0x4e>
    20de:	85 2f       	mov	r24, r21
    20e0:	84 1b       	sub	r24, r20
    20e2:	92 a7       	std	Z+42, r25	; 0x2a
    20e4:	88 0f       	add	r24, r24
    20e6:	88 0f       	add	r24, r24
    20e8:	88 0f       	add	r24, r24
    20ea:	89 0f       	add	r24, r25
    20ec:	83 a7       	std	Z+43, r24	; 0x2b
    20ee:	80 ef       	ldi	r24, 0xF0	; 240
    20f0:	84 a7       	std	Z+44, r24	; 0x2c
    20f2:	54 96       	adiw	r26, 0x14	; 20
    20f4:	8d 91       	ld	r24, X+
    20f6:	9c 91       	ld	r25, X
    20f8:	55 97       	sbiw	r26, 0x15	; 21
    20fa:	81 3f       	cpi	r24, 0xF1	; 241
    20fc:	91 05       	cpc	r25, r1
    20fe:	08 f4       	brcc	.+2      	; 0x2102 <u8g2_update_dimension_common+0x6e>
    2100:	84 a7       	std	Z+44, r24	; 0x2c
    2102:	56 96       	adiw	r26, 0x16	; 22
    2104:	8c 91       	ld	r24, X
    2106:	85 a7       	std	Z+45, r24	; 0x2d
    2108:	08 95       	ret

0000210a <u8g2_update_dimension_r0>:
    210a:	c4 cf       	rjmp	.-120    	; 0x2094 <u8g2_update_dimension_common>
    210c:	08 95       	ret

0000210e <u8g2_apply_clip_window>:
    210e:	0f 93       	push	r16
    2110:	cf 93       	push	r28
    2112:	df 93       	push	r29
    2114:	ec 01       	movw	r28, r24
    2116:	0d a9       	ldd	r16, Y+53	; 0x35
    2118:	2b a9       	ldd	r18, Y+51	; 0x33
    211a:	4c a9       	ldd	r20, Y+52	; 0x34
    211c:	6a a9       	ldd	r22, Y+50	; 0x32
    211e:	3e df       	rcall	.-388    	; 0x1f9c <u8g2_IsIntersection>
    2120:	81 11       	cpse	r24, r1
    2122:	04 c0       	rjmp	.+8      	; 0x212c <u8g2_apply_clip_window+0x1e>
    2124:	c2 5a       	subi	r28, 0xA2	; 162
    2126:	df 4f       	sbci	r29, 0xFF	; 255
    2128:	18 82       	st	Y, r1
    212a:	19 c0       	rjmp	.+50     	; 0x215e <u8g2_apply_clip_window+0x50>
    212c:	81 e0       	ldi	r24, 0x01	; 1
    212e:	fe 01       	movw	r30, r28
    2130:	e2 5a       	subi	r30, 0xA2	; 162
    2132:	ff 4f       	sbci	r31, 0xFF	; 255
    2134:	80 83       	st	Z, r24
    2136:	8a a9       	ldd	r24, Y+50	; 0x32
    2138:	9e a5       	ldd	r25, Y+46	; 0x2e
    213a:	98 17       	cp	r25, r24
    213c:	08 f4       	brcc	.+2      	; 0x2140 <u8g2_apply_clip_window+0x32>
    213e:	8e a7       	std	Y+46, r24	; 0x2e
    2140:	8b a9       	ldd	r24, Y+51	; 0x33
    2142:	9f a5       	ldd	r25, Y+47	; 0x2f
    2144:	89 17       	cp	r24, r25
    2146:	08 f4       	brcc	.+2      	; 0x214a <u8g2_apply_clip_window+0x3c>
    2148:	8f a7       	std	Y+47, r24	; 0x2f
    214a:	8c a9       	ldd	r24, Y+52	; 0x34
    214c:	98 a9       	ldd	r25, Y+48	; 0x30
    214e:	98 17       	cp	r25, r24
    2150:	08 f4       	brcc	.+2      	; 0x2154 <u8g2_apply_clip_window+0x46>
    2152:	88 ab       	std	Y+48, r24	; 0x30
    2154:	8d a9       	ldd	r24, Y+53	; 0x35
    2156:	99 a9       	ldd	r25, Y+49	; 0x31
    2158:	89 17       	cp	r24, r25
    215a:	08 f4       	brcc	.+2      	; 0x215e <u8g2_apply_clip_window+0x50>
    215c:	89 ab       	std	Y+49, r24	; 0x31
    215e:	df 91       	pop	r29
    2160:	cf 91       	pop	r28
    2162:	0f 91       	pop	r16
    2164:	08 95       	ret

00002166 <u8g2_update_page_win_r0>:
    2166:	fc 01       	movw	r30, r24
    2168:	16 a6       	std	Z+46, r1	; 0x2e
    216a:	84 a5       	ldd	r24, Z+44	; 0x2c
    216c:	87 a7       	std	Z+47, r24	; 0x2f
    216e:	82 a5       	ldd	r24, Z+42	; 0x2a
    2170:	80 ab       	std	Z+48, r24	; 0x30
    2172:	83 a5       	ldd	r24, Z+43	; 0x2b
    2174:	81 ab       	std	Z+49, r24	; 0x31
    2176:	cf 01       	movw	r24, r30
    2178:	ca cf       	rjmp	.-108    	; 0x210e <u8g2_apply_clip_window>
    217a:	08 95       	ret

0000217c <u8g2_draw_l90_r0>:
    217c:	0f 93       	push	r16
    217e:	5d de       	rcall	.-838    	; 0x1e3a <u8g2_draw_hv_line_2dir>
    2180:	0f 91       	pop	r16
    2182:	08 95       	ret

00002184 <u8g2_SetMaxClipWindow>:
    2184:	dc 01       	movw	r26, r24
    2186:	d2 96       	adiw	r26, 0x32	; 50
    2188:	1c 92       	st	X, r1
    218a:	d2 97       	sbiw	r26, 0x32	; 50
    218c:	d4 96       	adiw	r26, 0x34	; 52
    218e:	1c 92       	st	X, r1
    2190:	d4 97       	sbiw	r26, 0x34	; 52
    2192:	8f ef       	ldi	r24, 0xFF	; 255
    2194:	d3 96       	adiw	r26, 0x33	; 51
    2196:	8c 93       	st	X, r24
    2198:	d3 97       	sbiw	r26, 0x33	; 51
    219a:	d5 96       	adiw	r26, 0x35	; 53
    219c:	8c 93       	st	X, r24
    219e:	d5 97       	sbiw	r26, 0x35	; 53
    21a0:	91 96       	adiw	r26, 0x21	; 33
    21a2:	ed 91       	ld	r30, X+
    21a4:	fc 91       	ld	r31, X
    21a6:	92 97       	sbiw	r26, 0x22	; 34
    21a8:	02 80       	ldd	r0, Z+2	; 0x02
    21aa:	f3 81       	ldd	r31, Z+3	; 0x03
    21ac:	e0 2d       	mov	r30, r0
    21ae:	cd 01       	movw	r24, r26
    21b0:	09 95       	icall
    21b2:	08 95       	ret

000021b4 <u8g2_SetupBuffer>:
/*
  This procedure is called after setting up the display (u8x8 structure).
  --> This is the central init procedure for u8g2 object
*/
void u8g2_SetupBuffer(u8g2_t *u8g2, uint8_t *buf, uint8_t tile_buf_height, u8g2_draw_ll_hvline_cb ll_hvline_cb, const u8g2_cb_t *u8g2_cb)
{
    21b4:	0f 93       	push	r16
    21b6:	1f 93       	push	r17
    21b8:	cf 93       	push	r28
    21ba:	df 93       	push	r29
    21bc:	ec 01       	movw	r28, r24
  u8g2->font = NULL;
    21be:	1f aa       	std	Y+55, r1	; 0x37
    21c0:	1e aa       	std	Y+54, r1	; 0x36
  //u8g2->kerning = NULL;
  //u8g2->get_kerning_cb = u8g2_GetNullKerning;
  
  //u8g2->ll_hvline = u8g2_ll_hvline_vertical_top_lsb;
  u8g2->ll_hvline = ll_hvline_cb;
    21c2:	38 a3       	std	Y+32, r19	; 0x20
    21c4:	2f 8f       	std	Y+31, r18	; 0x1f
  
  u8g2->tile_buf_ptr = buf;
    21c6:	7c a3       	std	Y+36, r23	; 0x24
    21c8:	6b a3       	std	Y+35, r22	; 0x23
  u8g2->tile_buf_height = tile_buf_height;
    21ca:	4d a3       	std	Y+37, r20	; 0x25
  
  u8g2->tile_curr_row = 0;
    21cc:	1e a2       	std	Y+38, r1	; 0x26
  
  u8g2->font_decode.is_transparent = 0; /* issue 443 */
    21ce:	fc 01       	movw	r30, r24
    21d0:	ed 5b       	subi	r30, 0xBD	; 189
    21d2:	ff 4f       	sbci	r31, 0xFF	; 255
    21d4:	10 82       	st	Z, r1
  u8g2->bitmap_transparency = 0;
    21d6:	b0 96       	adiw	r30, 0x20	; 32
    21d8:	10 82       	st	Z, r1
  
  u8g2->draw_color = 1;
    21da:	31 96       	adiw	r30, 0x01	; 1
    21dc:	81 e0       	ldi	r24, 0x01	; 1
    21de:	80 83       	st	Z, r24
  u8g2->is_auto_page_clear = 1;
    21e0:	31 96       	adiw	r30, 0x01	; 1
    21e2:	80 83       	st	Z, r24
  
  u8g2->cb = u8g2_cb;
    21e4:	1a a3       	std	Y+34, r17	; 0x22
    21e6:	09 a3       	std	Y+33, r16	; 0x21
  u8g2->cb->update_dimension(u8g2);
    21e8:	d8 01       	movw	r26, r16
    21ea:	ed 91       	ld	r30, X+
    21ec:	fc 91       	ld	r31, X
    21ee:	ce 01       	movw	r24, r28
    21f0:	09 95       	icall
#ifdef U8G2_WITH_CLIP_WINDOW_SUPPORT
  u8g2_SetMaxClipWindow(u8g2);		/* assign a clip window and call the update() procedure */
    21f2:	ce 01       	movw	r24, r28
    21f4:	c7 df       	rcall	.-114    	; 0x2184 <u8g2_SetMaxClipWindow>
#else
  u8g2->cb->update_page_win(u8g2);
#endif

  u8g2_SetFontPosBaseline(u8g2);  /* issue 195 */
    21f6:	ce 01       	movw	r24, r28
    21f8:	fc dd       	rcall	.-1032   	; 0x1df2 <u8g2_SetFontPosBaseline>
  
#ifdef U8G2_WITH_FONT_ROTATION  
  u8g2->font_decode.dir = 0;
    21fa:	ca 5b       	subi	r28, 0xBA	; 186
    21fc:	df 4f       	sbci	r29, 0xFF	; 255
    21fe:	18 82       	st	Y, r1
#endif
}
    2200:	df 91       	pop	r29
    2202:	cf 91       	pop	r28
    2204:	1f 91       	pop	r17
    2206:	0f 91       	pop	r16
    2208:	08 95       	ret

0000220a <i2c_delay>:
      break;
    default:
      return 0;
  }
  return 1;
}
    220a:	dc 01       	movw	r26, r24
    220c:	ed 91       	ld	r30, X+
    220e:	fc 91       	ld	r31, X
    2210:	45 85       	ldd	r20, Z+13	; 0x0d
    2212:	6d e2       	ldi	r22, 0x2D	; 45
    2214:	2c c3       	rjmp	.+1624   	; 0x286e <u8x8_gpio_call>
    2216:	08 95       	ret

00002218 <i2c_read_scl_and_delay>:
    2218:	cf 93       	push	r28
    221a:	df 93       	push	r29
    221c:	ec 01       	movw	r28, r24
    221e:	41 e0       	ldi	r20, 0x01	; 1
    2220:	6c e4       	ldi	r22, 0x4C	; 76
    2222:	25 d3       	rcall	.+1610   	; 0x286e <u8x8_gpio_call>
    2224:	ce 01       	movw	r24, r28
    2226:	f1 df       	rcall	.-30     	; 0x220a <i2c_delay>
    2228:	df 91       	pop	r29
    222a:	cf 91       	pop	r28
    222c:	08 95       	ret

0000222e <i2c_read_sda>:
    222e:	41 e0       	ldi	r20, 0x01	; 1
    2230:	6d e4       	ldi	r22, 0x4D	; 77
    2232:	1d c3       	rjmp	.+1594   	; 0x286e <u8x8_gpio_call>
    2234:	08 95       	ret

00002236 <i2c_write_bit>:
    2236:	cf 93       	push	r28
    2238:	df 93       	push	r29
    223a:	ec 01       	movw	r28, r24
    223c:	66 23       	and	r22, r22
    223e:	11 f0       	breq	.+4      	; 0x2244 <i2c_write_bit+0xe>
    2240:	f6 df       	rcall	.-20     	; 0x222e <i2c_read_sda>
    2242:	03 c0       	rjmp	.+6      	; 0x224a <i2c_write_bit+0x14>
    2244:	40 e0       	ldi	r20, 0x00	; 0
    2246:	6d e4       	ldi	r22, 0x4D	; 77
    2248:	12 d3       	rcall	.+1572   	; 0x286e <u8x8_gpio_call>
    224a:	ce 01       	movw	r24, r28
    224c:	de df       	rcall	.-68     	; 0x220a <i2c_delay>
    224e:	ce 01       	movw	r24, r28
    2250:	e3 df       	rcall	.-58     	; 0x2218 <i2c_read_scl_and_delay>
    2252:	40 e0       	ldi	r20, 0x00	; 0
    2254:	6c e4       	ldi	r22, 0x4C	; 76
    2256:	ce 01       	movw	r24, r28
    2258:	0a d3       	rcall	.+1556   	; 0x286e <u8x8_gpio_call>
    225a:	df 91       	pop	r29
    225c:	cf 91       	pop	r28
    225e:	08 95       	ret

00002260 <i2c_write_byte>:
    2260:	1f 93       	push	r17
    2262:	cf 93       	push	r28
    2264:	df 93       	push	r29
    2266:	ec 01       	movw	r28, r24
    2268:	16 2f       	mov	r17, r22
    226a:	60 78       	andi	r22, 0x80	; 128
    226c:	e4 df       	rcall	.-56     	; 0x2236 <i2c_write_bit>
    226e:	61 2f       	mov	r22, r17
    2270:	60 74       	andi	r22, 0x40	; 64
    2272:	ce 01       	movw	r24, r28
    2274:	e0 df       	rcall	.-64     	; 0x2236 <i2c_write_bit>
    2276:	61 2f       	mov	r22, r17
    2278:	60 72       	andi	r22, 0x20	; 32
    227a:	ce 01       	movw	r24, r28
    227c:	dc df       	rcall	.-72     	; 0x2236 <i2c_write_bit>
    227e:	61 2f       	mov	r22, r17
    2280:	60 71       	andi	r22, 0x10	; 16
    2282:	ce 01       	movw	r24, r28
    2284:	d8 df       	rcall	.-80     	; 0x2236 <i2c_write_bit>
    2286:	61 2f       	mov	r22, r17
    2288:	68 70       	andi	r22, 0x08	; 8
    228a:	ce 01       	movw	r24, r28
    228c:	d4 df       	rcall	.-88     	; 0x2236 <i2c_write_bit>
    228e:	61 2f       	mov	r22, r17
    2290:	64 70       	andi	r22, 0x04	; 4
    2292:	ce 01       	movw	r24, r28
    2294:	d0 df       	rcall	.-96     	; 0x2236 <i2c_write_bit>
    2296:	61 2f       	mov	r22, r17
    2298:	62 70       	andi	r22, 0x02	; 2
    229a:	ce 01       	movw	r24, r28
    229c:	cc df       	rcall	.-104    	; 0x2236 <i2c_write_bit>
    229e:	61 2f       	mov	r22, r17
    22a0:	61 70       	andi	r22, 0x01	; 1
    22a2:	ce 01       	movw	r24, r28
    22a4:	c8 df       	rcall	.-112    	; 0x2236 <i2c_write_bit>
    22a6:	ce 01       	movw	r24, r28
    22a8:	c2 df       	rcall	.-124    	; 0x222e <i2c_read_sda>
    22aa:	ce 01       	movw	r24, r28
    22ac:	ae df       	rcall	.-164    	; 0x220a <i2c_delay>
    22ae:	ce 01       	movw	r24, r28
    22b0:	b3 df       	rcall	.-154    	; 0x2218 <i2c_read_scl_and_delay>
    22b2:	ce 01       	movw	r24, r28
    22b4:	bc df       	rcall	.-136    	; 0x222e <i2c_read_sda>
    22b6:	ce 01       	movw	r24, r28
    22b8:	a8 df       	rcall	.-176    	; 0x220a <i2c_delay>
    22ba:	40 e0       	ldi	r20, 0x00	; 0
    22bc:	6c e4       	ldi	r22, 0x4C	; 76
    22be:	ce 01       	movw	r24, r28
    22c0:	d6 d2       	rcall	.+1452   	; 0x286e <u8x8_gpio_call>
    22c2:	df 91       	pop	r29
    22c4:	cf 91       	pop	r28
    22c6:	1f 91       	pop	r17
    22c8:	08 95       	ret

000022ca <u8x8_byte_SendBytes>:
    22ca:	9a 01       	movw	r18, r20
    22cc:	dc 01       	movw	r26, r24
    22ce:	18 96       	adiw	r26, 0x08	; 8
    22d0:	ed 91       	ld	r30, X+
    22d2:	fc 91       	ld	r31, X
    22d4:	19 97       	sbiw	r26, 0x09	; 9
    22d6:	46 2f       	mov	r20, r22
    22d8:	67 e1       	ldi	r22, 0x17	; 23
    22da:	09 95       	icall
    22dc:	08 95       	ret

000022de <u8x8_byte_SendByte>:
    22de:	cf 93       	push	r28
    22e0:	df 93       	push	r29
    22e2:	1f 92       	push	r1
    22e4:	cd b7       	in	r28, 0x3d	; 61
    22e6:	de b7       	in	r29, 0x3e	; 62
    22e8:	69 83       	std	Y+1, r22	; 0x01
    22ea:	ae 01       	movw	r20, r28
    22ec:	4f 5f       	subi	r20, 0xFF	; 255
    22ee:	5f 4f       	sbci	r21, 0xFF	; 255
    22f0:	61 e0       	ldi	r22, 0x01	; 1
    22f2:	eb df       	rcall	.-42     	; 0x22ca <u8x8_byte_SendBytes>
    22f4:	0f 90       	pop	r0
    22f6:	df 91       	pop	r29
    22f8:	cf 91       	pop	r28
    22fa:	08 95       	ret

000022fc <u8x8_byte_StartTransfer>:
    22fc:	dc 01       	movw	r26, r24
    22fe:	18 96       	adiw	r26, 0x08	; 8
    2300:	ed 91       	ld	r30, X+
    2302:	fc 91       	ld	r31, X
    2304:	19 97       	sbiw	r26, 0x09	; 9
    2306:	20 e0       	ldi	r18, 0x00	; 0
    2308:	30 e0       	ldi	r19, 0x00	; 0
    230a:	40 e0       	ldi	r20, 0x00	; 0
    230c:	68 e1       	ldi	r22, 0x18	; 24
    230e:	09 95       	icall
    2310:	08 95       	ret

00002312 <u8x8_byte_EndTransfer>:
    2312:	dc 01       	movw	r26, r24
    2314:	18 96       	adiw	r26, 0x08	; 8
    2316:	ed 91       	ld	r30, X+
    2318:	fc 91       	ld	r31, X
    231a:	19 97       	sbiw	r26, 0x09	; 9
    231c:	20 e0       	ldi	r18, 0x00	; 0
    231e:	30 e0       	ldi	r19, 0x00	; 0
    2320:	40 e0       	ldi	r20, 0x00	; 0
    2322:	69 e1       	ldi	r22, 0x19	; 25
    2324:	09 95       	icall
    2326:	08 95       	ret

00002328 <u8x8_byte_sw_i2c>:
  /* 1: nothing happend during ack cycle */  
  i2c_read_bit(u8x8);
}

uint8_t u8x8_byte_sw_i2c(u8x8_t *u8x8, uint8_t msg, uint8_t arg_int, void *arg_ptr)
{
    2328:	ef 92       	push	r14
    232a:	ff 92       	push	r15
    232c:	0f 93       	push	r16
    232e:	1f 93       	push	r17
    2330:	cf 93       	push	r28
    2332:	df 93       	push	r29
    2334:	8c 01       	movw	r16, r24
    2336:	e9 01       	movw	r28, r18
  uint8_t *data;

  switch(msg)
    2338:	68 31       	cpi	r22, 0x18	; 24
    233a:	61 f1       	breq	.+88     	; 0x2394 <u8x8_byte_sw_i2c+0x6c>
    233c:	28 f4       	brcc	.+10     	; 0x2348 <u8x8_byte_sw_i2c+0x20>
    233e:	64 31       	cpi	r22, 0x14	; 20
    2340:	f1 f0       	breq	.+60     	; 0x237e <u8x8_byte_sw_i2c+0x56>
    2342:	67 31       	cpi	r22, 0x17	; 23
    2344:	49 f0       	breq	.+18     	; 0x2358 <u8x8_byte_sw_i2c+0x30>
    2346:	53 c0       	rjmp	.+166    	; 0x23ee <u8x8_byte_sw_i2c+0xc6>
    2348:	69 31       	cpi	r22, 0x19	; 25
    234a:	09 f4       	brne	.+2      	; 0x234e <u8x8_byte_sw_i2c+0x26>
    234c:	41 c0       	rjmp	.+130    	; 0x23d0 <u8x8_byte_sw_i2c+0xa8>
    234e:	60 32       	cpi	r22, 0x20	; 32
    2350:	09 f0       	breq	.+2      	; 0x2354 <u8x8_byte_sw_i2c+0x2c>
    2352:	4d c0       	rjmp	.+154    	; 0x23ee <u8x8_byte_sw_i2c+0xc6>
      i2c_stop(u8x8);
      break;
    default:
      return 0;
  }
  return 1;
    2354:	81 e0       	ldi	r24, 0x01	; 1
    2356:	4e c0       	rjmp	.+156    	; 0x23f4 <u8x8_byte_sw_i2c+0xcc>
  switch(msg)
  {
    case U8X8_MSG_BYTE_SEND:
      data = (uint8_t *)arg_ptr;
    
      while( arg_int > 0 )
    2358:	44 23       	and	r20, r20
    235a:	09 f4       	brne	.+2      	; 0x235e <u8x8_byte_sw_i2c+0x36>
    235c:	4a c0       	rjmp	.+148    	; 0x23f2 <u8x8_byte_sw_i2c+0xca>
    235e:	41 50       	subi	r20, 0x01	; 1
    2360:	e4 2e       	mov	r14, r20
    2362:	f1 2c       	mov	r15, r1
    2364:	8f ef       	ldi	r24, 0xFF	; 255
    2366:	e8 1a       	sub	r14, r24
    2368:	f8 0a       	sbc	r15, r24
    236a:	e2 0e       	add	r14, r18
    236c:	f3 1e       	adc	r15, r19
      {
	i2c_write_byte(u8x8, *data);
    236e:	69 91       	ld	r22, Y+
    2370:	c8 01       	movw	r24, r16
    2372:	76 df       	rcall	.-276    	; 0x2260 <i2c_write_byte>
  switch(msg)
  {
    case U8X8_MSG_BYTE_SEND:
      data = (uint8_t *)arg_ptr;
    
      while( arg_int > 0 )
    2374:	ec 16       	cp	r14, r28
    2376:	fd 06       	cpc	r15, r29
    2378:	d1 f7       	brne	.-12     	; 0x236e <u8x8_byte_sw_i2c+0x46>
      i2c_stop(u8x8);
      break;
    default:
      return 0;
  }
  return 1;
    237a:	81 e0       	ldi	r24, 0x01	; 1
    237c:	3b c0       	rjmp	.+118    	; 0x23f4 <u8x8_byte_sw_i2c+0xcc>
  u8x8_gpio_Delay(u8x8, U8X8_MSG_DELAY_I2C, u8x8->display_info->i2c_bus_clock_100kHz);
}

static void i2c_init(u8x8_t *u8x8)
{
  u8x8_gpio_SetI2CClock(u8x8, 1);
    237e:	41 e0       	ldi	r20, 0x01	; 1
    2380:	6c e4       	ldi	r22, 0x4C	; 76
    2382:	75 d2       	rcall	.+1258   	; 0x286e <u8x8_gpio_call>
  u8x8_gpio_SetI2CData(u8x8, 1);
    2384:	41 e0       	ldi	r20, 0x01	; 1
    2386:	6d e4       	ldi	r22, 0x4D	; 77
    2388:	c8 01       	movw	r24, r16
  
  i2c_delay(u8x8);
    238a:	71 d2       	rcall	.+1250   	; 0x286e <u8x8_gpio_call>
    238c:	c8 01       	movw	r24, r16
    238e:	3d df       	rcall	.-390    	; 0x220a <i2c_delay>
      i2c_stop(u8x8);
      break;
    default:
      return 0;
  }
  return 1;
    2390:	81 e0       	ldi	r24, 0x01	; 1
    2392:	30 c0       	rjmp	.+96     	; 0x23f4 <u8x8_byte_sw_i2c+0xcc>
  u8x8_gpio_SetI2CData(u8x8, 0);
}

static void i2c_start(u8x8_t *u8x8)
{
  if ( u8x8->i2c_started != 0 )
    2394:	fc 01       	movw	r30, r24
    2396:	87 89       	ldd	r24, Z+23	; 0x17
    2398:	88 23       	and	r24, r24
  {
    /* if already started: do restart */
    i2c_read_sda(u8x8);     /* SDA = 1 */
    239a:	31 f0       	breq	.+12     	; 0x23a8 <u8x8_byte_sw_i2c+0x80>
    239c:	c8 01       	movw	r24, r16
    i2c_delay(u8x8);
    239e:	47 df       	rcall	.-370    	; 0x222e <i2c_read_sda>
    23a0:	c8 01       	movw	r24, r16
    i2c_read_scl_and_delay(u8x8);
    23a2:	33 df       	rcall	.-410    	; 0x220a <i2c_delay>
    23a4:	c8 01       	movw	r24, r16
  }
  i2c_read_sda(u8x8);
    23a6:	38 df       	rcall	.-400    	; 0x2218 <i2c_read_scl_and_delay>
    23a8:	c8 01       	movw	r24, r16
}

static void i2c_clear_sda(u8x8_t *u8x8)
{
  /* set open collector and drive low */
  u8x8_gpio_SetI2CData(u8x8, 0);
    23aa:	41 df       	rcall	.-382    	; 0x222e <i2c_read_sda>
    23ac:	40 e0       	ldi	r20, 0x00	; 0
    23ae:	6d e4       	ldi	r22, 0x4D	; 77
    23b0:	c8 01       	movw	r24, r16
    i2c_read_scl_and_delay(u8x8);
  }
  i2c_read_sda(u8x8);
  /* send the start condition, both lines go from 1 to 0 */
  i2c_clear_sda(u8x8);
  i2c_delay(u8x8);
    23b2:	5d d2       	rcall	.+1210   	; 0x286e <u8x8_gpio_call>
    23b4:	c8 01       	movw	r24, r16
  i2c_delay(u8x8);
}

static void i2c_clear_scl(u8x8_t *u8x8)
{
  u8x8_gpio_SetI2CClock(u8x8, 0);
    23b6:	29 df       	rcall	.-430    	; 0x220a <i2c_delay>
    23b8:	40 e0       	ldi	r20, 0x00	; 0
    23ba:	6c e4       	ldi	r22, 0x4C	; 76
    23bc:	c8 01       	movw	r24, r16
  i2c_read_sda(u8x8);
  /* send the start condition, both lines go from 1 to 0 */
  i2c_clear_sda(u8x8);
  i2c_delay(u8x8);
  i2c_clear_scl(u8x8);
  u8x8->i2c_started = 1;
    23be:	57 d2       	rcall	.+1198   	; 0x286e <u8x8_gpio_call>
    23c0:	81 e0       	ldi	r24, 0x01	; 1
      break;
    case U8X8_MSG_BYTE_SET_DC:
      break;
    case U8X8_MSG_BYTE_START_TRANSFER:
      i2c_start(u8x8);
      i2c_write_byte(u8x8, u8x8_GetI2CAddress(u8x8));
    23c2:	f8 01       	movw	r30, r16
    23c4:	87 8b       	std	Z+23, r24	; 0x17
      //i2c_write_byte(u8x8, 0x078);
      break;
    23c6:	66 89       	ldd	r22, Z+22	; 0x16
}

static void i2c_clear_sda(u8x8_t *u8x8)
{
  /* set open collector and drive low */
  u8x8_gpio_SetI2CData(u8x8, 0);
    23c8:	c8 01       	movw	r24, r16
    23ca:	4a df       	rcall	.-364    	; 0x2260 <i2c_write_byte>
    23cc:	81 e0       	ldi	r24, 0x01	; 1
    23ce:	12 c0       	rjmp	.+36     	; 0x23f4 <u8x8_byte_sw_i2c+0xcc>

static void i2c_stop(u8x8_t *u8x8)
{
  /* set SDA to 0 */
  i2c_clear_sda(u8x8);  
  i2c_delay(u8x8);
    23d0:	40 e0       	ldi	r20, 0x00	; 0
    23d2:	6d e4       	ldi	r22, 0x4D	; 77
    23d4:	4c d2       	rcall	.+1176   	; 0x286e <u8x8_gpio_call>
 
  /* now release all lines */
  i2c_read_scl_and_delay(u8x8);
    23d6:	c8 01       	movw	r24, r16
    23d8:	18 df       	rcall	.-464    	; 0x220a <i2c_delay>
    23da:	c8 01       	movw	r24, r16
 
  /* set SDA to 1 */
  i2c_read_sda(u8x8);
    23dc:	1d df       	rcall	.-454    	; 0x2218 <i2c_read_scl_and_delay>
    23de:	c8 01       	movw	r24, r16
    23e0:	26 df       	rcall	.-436    	; 0x222e <i2c_read_sda>
  i2c_delay(u8x8);
    23e2:	c8 01       	movw	r24, r16
    23e4:	12 df       	rcall	.-476    	; 0x220a <i2c_delay>
    23e6:	f8 01       	movw	r30, r16
  u8x8->i2c_started = 0;
    23e8:	17 8a       	std	Z+23, r1	; 0x17
    23ea:	81 e0       	ldi	r24, 0x01	; 1
      i2c_stop(u8x8);
      break;
    default:
      return 0;
  }
  return 1;
    23ec:	03 c0       	rjmp	.+6      	; 0x23f4 <u8x8_byte_sw_i2c+0xcc>
    23ee:	80 e0       	ldi	r24, 0x00	; 0
      break;
    case U8X8_MSG_BYTE_END_TRANSFER:
      i2c_stop(u8x8);
      break;
    default:
      return 0;
    23f0:	01 c0       	rjmp	.+2      	; 0x23f4 <u8x8_byte_sw_i2c+0xcc>
    23f2:	81 e0       	ldi	r24, 0x01	; 1
  }
  return 1;
    23f4:	df 91       	pop	r29
}
    23f6:	cf 91       	pop	r28
    23f8:	1f 91       	pop	r17
    23fa:	0f 91       	pop	r16
    23fc:	ff 90       	pop	r15
    23fe:	ef 90       	pop	r14
    2400:	08 95       	ret

00002402 <u8x8_i2c_data_transfer>:
    2402:	ef 92       	push	r14
      break;
    default:
      return 0;
  }
  return 1;
}
    2404:	ff 92       	push	r15
    2406:	1f 93       	push	r17
    2408:	cf 93       	push	r28
    240a:	df 93       	push	r29
    240c:	ec 01       	movw	r28, r24
    240e:	16 2f       	mov	r17, r22
    2410:	7a 01       	movw	r14, r20
    2412:	74 df       	rcall	.-280    	; 0x22fc <u8x8_byte_StartTransfer>
    2414:	60 e4       	ldi	r22, 0x40	; 64
    2416:	ce 01       	movw	r24, r28
    2418:	62 df       	rcall	.-316    	; 0x22de <u8x8_byte_SendByte>
    241a:	e8 85       	ldd	r30, Y+8	; 0x08
    241c:	f9 85       	ldd	r31, Y+9	; 0x09
    241e:	97 01       	movw	r18, r14
    2420:	41 2f       	mov	r20, r17
    2422:	67 e1       	ldi	r22, 0x17	; 23
    2424:	ce 01       	movw	r24, r28
    2426:	09 95       	icall
    2428:	ce 01       	movw	r24, r28
    242a:	73 df       	rcall	.-282    	; 0x2312 <u8x8_byte_EndTransfer>
    242c:	df 91       	pop	r29
    242e:	cf 91       	pop	r28
    2430:	1f 91       	pop	r17
    2432:	ff 90       	pop	r15
    2434:	ef 90       	pop	r14
    2436:	08 95       	ret

00002438 <u8x8_cad_SendCmd>:
    2438:	46 2f       	mov	r20, r22
    243a:	dc 01       	movw	r26, r24
    243c:	16 96       	adiw	r26, 0x06	; 6
    243e:	ed 91       	ld	r30, X+
    2440:	fc 91       	ld	r31, X
    2442:	17 97       	sbiw	r26, 0x07	; 7
    2444:	20 e0       	ldi	r18, 0x00	; 0
    2446:	30 e0       	ldi	r19, 0x00	; 0
    2448:	65 e1       	ldi	r22, 0x15	; 21
    244a:	09 95       	icall
    244c:	08 95       	ret

0000244e <u8x8_cad_SendArg>:
    244e:	46 2f       	mov	r20, r22
    2450:	dc 01       	movw	r26, r24
    2452:	16 96       	adiw	r26, 0x06	; 6
    2454:	ed 91       	ld	r30, X+
    2456:	fc 91       	ld	r31, X
    2458:	17 97       	sbiw	r26, 0x07	; 7
    245a:	20 e0       	ldi	r18, 0x00	; 0
    245c:	30 e0       	ldi	r19, 0x00	; 0
    245e:	66 e1       	ldi	r22, 0x16	; 22
    2460:	09 95       	icall
    2462:	08 95       	ret

00002464 <u8x8_cad_SendData>:
    2464:	9a 01       	movw	r18, r20
    2466:	dc 01       	movw	r26, r24
    2468:	16 96       	adiw	r26, 0x06	; 6
    246a:	ed 91       	ld	r30, X+
    246c:	fc 91       	ld	r31, X
    246e:	17 97       	sbiw	r26, 0x07	; 7
    2470:	46 2f       	mov	r20, r22
    2472:	67 e1       	ldi	r22, 0x17	; 23
    2474:	09 95       	icall
    2476:	08 95       	ret

00002478 <u8x8_cad_StartTransfer>:
    2478:	dc 01       	movw	r26, r24
    247a:	16 96       	adiw	r26, 0x06	; 6
    247c:	ed 91       	ld	r30, X+
    247e:	fc 91       	ld	r31, X
    2480:	17 97       	sbiw	r26, 0x07	; 7
    2482:	20 e0       	ldi	r18, 0x00	; 0
    2484:	30 e0       	ldi	r19, 0x00	; 0
    2486:	40 e0       	ldi	r20, 0x00	; 0
    2488:	68 e1       	ldi	r22, 0x18	; 24
    248a:	09 95       	icall
    248c:	08 95       	ret

0000248e <u8x8_cad_EndTransfer>:
    248e:	dc 01       	movw	r26, r24
    2490:	16 96       	adiw	r26, 0x06	; 6
    2492:	ed 91       	ld	r30, X+
    2494:	fc 91       	ld	r31, X
    2496:	17 97       	sbiw	r26, 0x07	; 7
    2498:	20 e0       	ldi	r18, 0x00	; 0
    249a:	30 e0       	ldi	r19, 0x00	; 0
    249c:	40 e0       	ldi	r20, 0x00	; 0
    249e:	69 e1       	ldi	r22, 0x19	; 25
    24a0:	09 95       	icall
    24a2:	08 95       	ret

000024a4 <u8x8_cad_SendSequence>:
    24a4:	ef 92       	push	r14
    24a6:	ff 92       	push	r15
    24a8:	0f 93       	push	r16
    24aa:	1f 93       	push	r17
    24ac:	cf 93       	push	r28
    24ae:	df 93       	push	r29
    24b0:	1f 92       	push	r1
    24b2:	cd b7       	in	r28, 0x3d	; 61
    24b4:	de b7       	in	r29, 0x3e	; 62
    24b6:	7c 01       	movw	r14, r24
    24b8:	8b 01       	movw	r16, r22
    24ba:	d8 01       	movw	r26, r16
    24bc:	6c 91       	ld	r22, X
    24be:	67 31       	cpi	r22, 0x17	; 23
    24c0:	c1 f0       	breq	.+48     	; 0x24f2 <u8x8_cad_SendSequence+0x4e>
    24c2:	18 f4       	brcc	.+6      	; 0x24ca <u8x8_cad_SendSequence+0x26>
    24c4:	65 31       	cpi	r22, 0x15	; 21
    24c6:	30 f4       	brcc	.+12     	; 0x24d4 <u8x8_cad_SendSequence+0x30>
    24c8:	36 c0       	rjmp	.+108    	; 0x2536 <u8x8_cad_SendSequence+0x92>
    24ca:	6a 31       	cpi	r22, 0x1A	; 26
    24cc:	f0 f0       	brcs	.+60     	; 0x250a <u8x8_cad_SendSequence+0x66>
    24ce:	6e 3f       	cpi	r22, 0xFE	; 254
    24d0:	49 f1       	breq	.+82     	; 0x2524 <u8x8_cad_SendSequence+0x80>
    24d2:	31 c0       	rjmp	.+98     	; 0x2536 <u8x8_cad_SendSequence+0x92>
    24d4:	f8 01       	movw	r30, r16
    24d6:	41 81       	ldd	r20, Z+1	; 0x01
    24d8:	49 83       	std	Y+1, r20	; 0x01
    24da:	d7 01       	movw	r26, r14
    24dc:	16 96       	adiw	r26, 0x06	; 6
    24de:	ed 91       	ld	r30, X+
    24e0:	fc 91       	ld	r31, X
    24e2:	17 97       	sbiw	r26, 0x07	; 7
    24e4:	20 e0       	ldi	r18, 0x00	; 0
    24e6:	30 e0       	ldi	r19, 0x00	; 0
    24e8:	c7 01       	movw	r24, r14
    24ea:	09 95       	icall
    24ec:	0e 5f       	subi	r16, 0xFE	; 254
    24ee:	1f 4f       	sbci	r17, 0xFF	; 255
    24f0:	e4 cf       	rjmp	.-56     	; 0x24ba <u8x8_cad_SendSequence+0x16>
    24f2:	f8 01       	movw	r30, r16
    24f4:	81 81       	ldd	r24, Z+1	; 0x01
    24f6:	89 83       	std	Y+1, r24	; 0x01
    24f8:	ae 01       	movw	r20, r28
    24fa:	4f 5f       	subi	r20, 0xFF	; 255
    24fc:	5f 4f       	sbci	r21, 0xFF	; 255
    24fe:	61 e0       	ldi	r22, 0x01	; 1
    2500:	c7 01       	movw	r24, r14
    2502:	b0 df       	rcall	.-160    	; 0x2464 <u8x8_cad_SendData>
    2504:	0e 5f       	subi	r16, 0xFE	; 254
    2506:	1f 4f       	sbci	r17, 0xFF	; 255
    2508:	d8 cf       	rjmp	.-80     	; 0x24ba <u8x8_cad_SendSequence+0x16>
    250a:	0f 5f       	subi	r16, 0xFF	; 255
    250c:	1f 4f       	sbci	r17, 0xFF	; 255
    250e:	d7 01       	movw	r26, r14
    2510:	16 96       	adiw	r26, 0x06	; 6
    2512:	ed 91       	ld	r30, X+
    2514:	fc 91       	ld	r31, X
    2516:	17 97       	sbiw	r26, 0x07	; 7
    2518:	20 e0       	ldi	r18, 0x00	; 0
    251a:	30 e0       	ldi	r19, 0x00	; 0
    251c:	40 e0       	ldi	r20, 0x00	; 0
    251e:	c7 01       	movw	r24, r14
    2520:	09 95       	icall
    2522:	cb cf       	rjmp	.-106    	; 0x24ba <u8x8_cad_SendSequence+0x16>
    2524:	f8 01       	movw	r30, r16
    2526:	41 81       	ldd	r20, Z+1	; 0x01
    2528:	49 83       	std	Y+1, r20	; 0x01
    252a:	69 e2       	ldi	r22, 0x29	; 41
    252c:	c7 01       	movw	r24, r14
    252e:	9f d1       	rcall	.+830    	; 0x286e <u8x8_gpio_call>
    2530:	0e 5f       	subi	r16, 0xFE	; 254
    2532:	1f 4f       	sbci	r17, 0xFF	; 255
    2534:	c2 cf       	rjmp	.-124    	; 0x24ba <u8x8_cad_SendSequence+0x16>
    2536:	0f 90       	pop	r0
    2538:	df 91       	pop	r29
    253a:	cf 91       	pop	r28
    253c:	1f 91       	pop	r17
    253e:	0f 91       	pop	r16
    2540:	ff 90       	pop	r15
    2542:	ef 90       	pop	r14
    2544:	08 95       	ret

00002546 <u8x8_cad_ssd13xx_fast_i2c>:


/* fast version with reduced data start/stops, issue 735 */
uint8_t u8x8_cad_ssd13xx_fast_i2c(u8x8_t *u8x8, uint8_t msg, uint8_t arg_int, void *arg_ptr)
{
    2546:	ef 92       	push	r14
    2548:	ff 92       	push	r15
    254a:	0f 93       	push	r16
    254c:	1f 93       	push	r17
    254e:	cf 93       	push	r28
    2550:	7c 01       	movw	r14, r24
    2552:	c4 2f       	mov	r28, r20
    2554:	89 01       	movw	r16, r18
  static uint8_t in_transfer = 0;
  uint8_t *p;
  switch(msg)
    2556:	66 31       	cpi	r22, 0x16	; 22
    2558:	09 f1       	breq	.+66     	; 0x259c <u8x8_cad_ssd13xx_fast_i2c+0x56>
    255a:	30 f4       	brcc	.+12     	; 0x2568 <u8x8_cad_ssd13xx_fast_i2c+0x22>
    255c:	64 31       	cpi	r22, 0x14	; 20
    255e:	09 f4       	brne	.+2      	; 0x2562 <u8x8_cad_ssd13xx_fast_i2c+0x1c>
    2560:	3a c0       	rjmp	.+116    	; 0x25d6 <u8x8_cad_ssd13xx_fast_i2c+0x90>
    2562:	65 31       	cpi	r22, 0x15	; 21
    2564:	49 f0       	breq	.+18     	; 0x2578 <u8x8_cad_ssd13xx_fast_i2c+0x32>
    2566:	59 c0       	rjmp	.+178    	; 0x261a <u8x8_cad_ssd13xx_fast_i2c+0xd4>
    2568:	68 31       	cpi	r22, 0x18	; 24
    256a:	09 f4       	brne	.+2      	; 0x256e <u8x8_cad_ssd13xx_fast_i2c+0x28>
    256c:	48 c0       	rjmp	.+144    	; 0x25fe <u8x8_cad_ssd13xx_fast_i2c+0xb8>
    256e:	d0 f0       	brcs	.+52     	; 0x25a4 <u8x8_cad_ssd13xx_fast_i2c+0x5e>
    2570:	69 31       	cpi	r22, 0x19	; 25
    2572:	09 f4       	brne	.+2      	; 0x2576 <u8x8_cad_ssd13xx_fast_i2c+0x30>
    2574:	48 c0       	rjmp	.+144    	; 0x2606 <u8x8_cad_ssd13xx_fast_i2c+0xc0>
    2576:	51 c0       	rjmp	.+162    	; 0x261a <u8x8_cad_ssd13xx_fast_i2c+0xd4>
  {
    case U8X8_MSG_CAD_SEND_CMD:
      /* improved version, takeover from ld7032 */
      /* assumes, that the args of a command is not longer than 31 bytes */
      /* speed improvement is about 4% compared to the classic version */
      if ( in_transfer != 0 )
    2578:	80 91 6f 06 	lds	r24, 0x066F	; 0x80066f <in_transfer.3254>
    257c:	88 23       	and	r24, r24
    257e:	11 f0       	breq	.+4      	; 0x2584 <u8x8_cad_ssd13xx_fast_i2c+0x3e>
	 u8x8_byte_EndTransfer(u8x8); 
    2580:	c7 01       	movw	r24, r14
    2582:	c7 de       	rcall	.-626    	; 0x2312 <u8x8_byte_EndTransfer>
      
      u8x8_byte_StartTransfer(u8x8);
    2584:	c7 01       	movw	r24, r14
    2586:	ba de       	rcall	.-652    	; 0x22fc <u8x8_byte_StartTransfer>
      u8x8_byte_SendByte(u8x8, 0x000);	/* cmd byte for ssd13xx controller */
    2588:	60 e0       	ldi	r22, 0x00	; 0
    258a:	c7 01       	movw	r24, r14
    258c:	a8 de       	rcall	.-688    	; 0x22de <u8x8_byte_SendByte>
      u8x8_byte_SendByte(u8x8, arg_int);
    258e:	6c 2f       	mov	r22, r28
    2590:	c7 01       	movw	r24, r14
    2592:	a5 de       	rcall	.-694    	; 0x22de <u8x8_byte_SendByte>
    2594:	81 e0       	ldi	r24, 0x01	; 1
      in_transfer = 1;
    2596:	80 93 6f 06 	sts	0x066F, r24	; 0x80066f <in_transfer.3254>
	//   u8x8_byte_StartTransfer(u8x8);
	//   u8x8_byte_SendByte(u8x8, 0x000);	/* cmd byte for ssd13xx controller */
	//   in_transfer = 1;
	// }
	//u8x8_byte_SendByte(u8x8, arg_int);
      break;
    259a:	40 c0       	rjmp	.+128    	; 0x261c <u8x8_cad_ssd13xx_fast_i2c+0xd6>
    case U8X8_MSG_CAD_SEND_ARG:
      u8x8_byte_SendByte(u8x8, arg_int);
    259c:	64 2f       	mov	r22, r20
    259e:	9f de       	rcall	.-706    	; 0x22de <u8x8_byte_SendByte>
    25a0:	81 e0       	ldi	r24, 0x01	; 1
      in_transfer = 0;
      break;
    default:
      return 0;
  }
  return 1;
    25a2:	3c c0       	rjmp	.+120    	; 0x261c <u8x8_cad_ssd13xx_fast_i2c+0xd6>
	// }
	//u8x8_byte_SendByte(u8x8, arg_int);
      break;
    case U8X8_MSG_CAD_SEND_ARG:
      u8x8_byte_SendByte(u8x8, arg_int);
      break;      
    25a4:	80 91 6f 06 	lds	r24, 0x066F	; 0x80066f <in_transfer.3254>
    case U8X8_MSG_CAD_SEND_DATA:
      if ( in_transfer != 0 )
    25a8:	88 23       	and	r24, r24
    25aa:	11 f0       	breq	.+4      	; 0x25b0 <u8x8_cad_ssd13xx_fast_i2c+0x6a>
	u8x8_byte_EndTransfer(u8x8); 
    25ac:	c7 01       	movw	r24, r14
    25ae:	b1 de       	rcall	.-670    	; 0x2312 <u8x8_byte_EndTransfer>
      /* I guess this is related to the size of the Wire buffers in Arduino */
      /* Unfortunately, this can not be handled in the byte level drivers, */
      /* so this is done here. Even further, only 24 bytes will be sent, */
      /* because there will be another byte (DC) required during the transfer */
      p = arg_ptr;
       while( arg_int > 24 )
    25b0:	c9 31       	cpi	r28, 0x19	; 25
    25b2:	48 f0       	brcs	.+18     	; 0x25c6 <u8x8_cad_ssd13xx_fast_i2c+0x80>
      {
	u8x8_i2c_data_transfer(u8x8, 24, p);
    25b4:	a8 01       	movw	r20, r16
    25b6:	68 e1       	ldi	r22, 0x18	; 24
    25b8:	c7 01       	movw	r24, r14
    25ba:	23 df       	rcall	.-442    	; 0x2402 <u8x8_i2c_data_transfer>
    25bc:	c8 51       	subi	r28, 0x18	; 24
	arg_int-=24;
    25be:	08 5e       	subi	r16, 0xE8	; 232
	p+=24;
    25c0:	1f 4f       	sbci	r17, 0xFF	; 255
      /* I guess this is related to the size of the Wire buffers in Arduino */
      /* Unfortunately, this can not be handled in the byte level drivers, */
      /* so this is done here. Even further, only 24 bytes will be sent, */
      /* because there will be another byte (DC) required during the transfer */
      p = arg_ptr;
       while( arg_int > 24 )
    25c2:	c9 31       	cpi	r28, 0x19	; 25
    25c4:	b8 f7       	brcc	.-18     	; 0x25b4 <u8x8_cad_ssd13xx_fast_i2c+0x6e>
      {
	u8x8_i2c_data_transfer(u8x8, 24, p);
	arg_int-=24;
	p+=24;
      }
      u8x8_i2c_data_transfer(u8x8, arg_int, p);
    25c6:	a8 01       	movw	r20, r16
    25c8:	6c 2f       	mov	r22, r28
    25ca:	c7 01       	movw	r24, r14
    25cc:	1a df       	rcall	.-460    	; 0x2402 <u8x8_i2c_data_transfer>
    25ce:	10 92 6f 06 	sts	0x066F, r1	; 0x80066f <in_transfer.3254>
      in_transfer = 0;
    25d2:	81 e0       	ldi	r24, 0x01	; 1
      in_transfer = 0;
      break;
    default:
      return 0;
  }
  return 1;
    25d4:	23 c0       	rjmp	.+70     	; 0x261c <u8x8_cad_ssd13xx_fast_i2c+0xd6>
	arg_int-=24;
	p+=24;
      }
      u8x8_i2c_data_transfer(u8x8, arg_int, p);
      in_transfer = 0;
      break;
    25d6:	dc 01       	movw	r26, r24
    case U8X8_MSG_CAD_INIT:
      /* apply default i2c adr if required so that the start transfer msg can use this */
      if ( u8x8->i2c_address == 255 )
    25d8:	56 96       	adiw	r26, 0x16	; 22
    25da:	8c 91       	ld	r24, X
    25dc:	56 97       	sbiw	r26, 0x16	; 22
    25de:	8f 3f       	cpi	r24, 0xFF	; 255
    25e0:	19 f4       	brne	.+6      	; 0x25e8 <u8x8_cad_ssd13xx_fast_i2c+0xa2>
    25e2:	88 e7       	ldi	r24, 0x78	; 120
	u8x8->i2c_address = 0x078;
    25e4:	56 96       	adiw	r26, 0x16	; 22
    25e6:	8c 93       	st	X, r24
    25e8:	d7 01       	movw	r26, r14
      return u8x8->byte_cb(u8x8, msg, arg_int, arg_ptr);
    25ea:	18 96       	adiw	r26, 0x08	; 8
    25ec:	ed 91       	ld	r30, X+
    25ee:	fc 91       	ld	r31, X
    25f0:	19 97       	sbiw	r26, 0x09	; 9
    25f2:	98 01       	movw	r18, r16
    25f4:	4c 2f       	mov	r20, r28
    25f6:	64 e1       	ldi	r22, 0x14	; 20
    25f8:	c7 01       	movw	r24, r14
    25fa:	09 95       	icall
    25fc:	0f c0       	rjmp	.+30     	; 0x261c <u8x8_cad_ssd13xx_fast_i2c+0xd6>
    25fe:	10 92 6f 06 	sts	0x066F, r1	; 0x80066f <in_transfer.3254>
      in_transfer = 0;
      break;
    default:
      return 0;
  }
  return 1;
    2602:	81 e0       	ldi	r24, 0x01	; 1
      if ( u8x8->i2c_address == 255 )
	u8x8->i2c_address = 0x078;
      return u8x8->byte_cb(u8x8, msg, arg_int, arg_ptr);
    case U8X8_MSG_CAD_START_TRANSFER:
      in_transfer = 0;
      break;
    2604:	0b c0       	rjmp	.+22     	; 0x261c <u8x8_cad_ssd13xx_fast_i2c+0xd6>
    case U8X8_MSG_CAD_END_TRANSFER:
      if ( in_transfer != 0 )
    2606:	80 91 6f 06 	lds	r24, 0x066F	; 0x80066f <in_transfer.3254>
    260a:	88 23       	and	r24, r24
    260c:	11 f0       	breq	.+4      	; 0x2612 <u8x8_cad_ssd13xx_fast_i2c+0xcc>
	u8x8_byte_EndTransfer(u8x8); 
    260e:	c7 01       	movw	r24, r14
    2610:	80 de       	rcall	.-768    	; 0x2312 <u8x8_byte_EndTransfer>
    2612:	10 92 6f 06 	sts	0x066F, r1	; 0x80066f <in_transfer.3254>
      in_transfer = 0;
    2616:	81 e0       	ldi	r24, 0x01	; 1
      break;
    default:
      return 0;
  }
  return 1;
    2618:	01 c0       	rjmp	.+2      	; 0x261c <u8x8_cad_ssd13xx_fast_i2c+0xd6>
      break;
    case U8X8_MSG_CAD_END_TRANSFER:
      if ( in_transfer != 0 )
	u8x8_byte_EndTransfer(u8x8); 
      in_transfer = 0;
      break;
    261a:	80 e0       	ldi	r24, 0x00	; 0
    default:
      return 0;
    261c:	cf 91       	pop	r28
  }
  return 1;
}
    261e:	1f 91       	pop	r17
    2620:	0f 91       	pop	r16
    2622:	ff 90       	pop	r15
    2624:	ef 90       	pop	r14
    2626:	08 95       	ret

00002628 <u8x8_d_helper_display_setup_memory>:
    2628:	fc 01       	movw	r30, r24
  u8x8->display_cb(u8x8, U8X8_MSG_DISPLAY_SET_FLIP_MODE, mode, NULL);  
}

void u8x8_SetContrast(u8x8_t *u8x8, uint8_t value)
{
  u8x8->display_cb(u8x8, U8X8_MSG_DISPLAY_SET_CONTRAST, value, NULL);  
    262a:	71 83       	std	Z+1, r23	; 0x01
    262c:	60 83       	st	Z, r22
    262e:	fb 01       	movw	r30, r22
    2630:	22 89       	ldd	r18, Z+18	; 0x12
    2632:	fc 01       	movw	r30, r24
    2634:	24 8b       	std	Z+20, r18	; 0x14
    2636:	08 95       	ret

00002638 <u8x8_d_helper_display_init>:
    2638:	cf 93       	push	r28
    263a:	df 93       	push	r29
    263c:	ec 01       	movw	r28, r24
    263e:	ea 85       	ldd	r30, Y+10	; 0x0a
    2640:	fb 85       	ldd	r31, Y+11	; 0x0b
    2642:	20 e0       	ldi	r18, 0x00	; 0
    2644:	30 e0       	ldi	r19, 0x00	; 0
    2646:	40 e0       	ldi	r20, 0x00	; 0
    2648:	68 e2       	ldi	r22, 0x28	; 40
    264a:	09 95       	icall
    264c:	ee 81       	ldd	r30, Y+6	; 0x06
    264e:	ff 81       	ldd	r31, Y+7	; 0x07
    2650:	20 e0       	ldi	r18, 0x00	; 0
    2652:	30 e0       	ldi	r19, 0x00	; 0
    2654:	40 e0       	ldi	r20, 0x00	; 0
    2656:	64 e1       	ldi	r22, 0x14	; 20
    2658:	ce 01       	movw	r24, r28
    265a:	09 95       	icall
    265c:	41 e0       	ldi	r20, 0x01	; 1
    265e:	6b e4       	ldi	r22, 0x4B	; 75
    2660:	ce 01       	movw	r24, r28
    2662:	05 d1       	rcall	.+522    	; 0x286e <u8x8_gpio_call>
    2664:	e8 81       	ld	r30, Y
    2666:	f9 81       	ldd	r31, Y+1	; 0x01
    2668:	44 81       	ldd	r20, Z+4	; 0x04
    266a:	69 e2       	ldi	r22, 0x29	; 41
    266c:	ce 01       	movw	r24, r28
    266e:	ff d0       	rcall	.+510    	; 0x286e <u8x8_gpio_call>
    2670:	40 e0       	ldi	r20, 0x00	; 0
    2672:	6b e4       	ldi	r22, 0x4B	; 75
    2674:	ce 01       	movw	r24, r28
    2676:	fb d0       	rcall	.+502    	; 0x286e <u8x8_gpio_call>
    2678:	e8 81       	ld	r30, Y
    267a:	f9 81       	ldd	r31, Y+1	; 0x01
    267c:	44 81       	ldd	r20, Z+4	; 0x04
    267e:	69 e2       	ldi	r22, 0x29	; 41
    2680:	ce 01       	movw	r24, r28
    2682:	f5 d0       	rcall	.+490    	; 0x286e <u8x8_gpio_call>
    2684:	41 e0       	ldi	r20, 0x01	; 1
    2686:	6b e4       	ldi	r22, 0x4B	; 75
    2688:	ce 01       	movw	r24, r28
    268a:	f1 d0       	rcall	.+482    	; 0x286e <u8x8_gpio_call>
    268c:	e8 81       	ld	r30, Y
    268e:	f9 81       	ldd	r31, Y+1	; 0x01
    2690:	45 81       	ldd	r20, Z+5	; 0x05
    2692:	69 e2       	ldi	r22, 0x29	; 41
    2694:	ce 01       	movw	r24, r28
    2696:	eb d0       	rcall	.+470    	; 0x286e <u8x8_gpio_call>
    2698:	df 91       	pop	r29
    269a:	cf 91       	pop	r28
    269c:	08 95       	ret

0000269e <u8x8_DrawTile>:
    269e:	0f 93       	push	r16
    26a0:	1f 93       	push	r17
    26a2:	cf 93       	push	r28
    26a4:	df 93       	push	r29
    26a6:	00 d0       	rcall	.+0      	; 0x26a8 <u8x8_DrawTile+0xa>
    26a8:	00 d0       	rcall	.+0      	; 0x26aa <u8x8_DrawTile+0xc>
    26aa:	1f 92       	push	r1
    26ac:	cd b7       	in	r28, 0x3d	; 61
    26ae:	de b7       	in	r29, 0x3e	; 62
    26b0:	6c 83       	std	Y+4, r22	; 0x04
    26b2:	4d 83       	std	Y+5, r20	; 0x05
    26b4:	2b 83       	std	Y+3, r18	; 0x03
    26b6:	1a 83       	std	Y+2, r17	; 0x02
    26b8:	09 83       	std	Y+1, r16	; 0x01
    26ba:	dc 01       	movw	r26, r24
    26bc:	14 96       	adiw	r26, 0x04	; 4
    26be:	ed 91       	ld	r30, X+
    26c0:	fc 91       	ld	r31, X
    26c2:	15 97       	sbiw	r26, 0x05	; 5
    26c4:	9e 01       	movw	r18, r28
    26c6:	2f 5f       	subi	r18, 0xFF	; 255
    26c8:	3f 4f       	sbci	r19, 0xFF	; 255
    26ca:	41 e0       	ldi	r20, 0x01	; 1
    26cc:	6f e0       	ldi	r22, 0x0F	; 15
    26ce:	09 95       	icall
    26d0:	0f 90       	pop	r0
    26d2:	0f 90       	pop	r0
    26d4:	0f 90       	pop	r0
    26d6:	0f 90       	pop	r0
    26d8:	0f 90       	pop	r0
    26da:	df 91       	pop	r29
    26dc:	cf 91       	pop	r28
    26de:	1f 91       	pop	r17
    26e0:	0f 91       	pop	r16
    26e2:	08 95       	ret

000026e4 <u8x8_SetupMemory>:
    26e4:	dc 01       	movw	r26, r24
    26e6:	14 96       	adiw	r26, 0x04	; 4
    26e8:	ed 91       	ld	r30, X+
    26ea:	fc 91       	ld	r31, X
    26ec:	15 97       	sbiw	r26, 0x05	; 5
    26ee:	20 e0       	ldi	r18, 0x00	; 0
    26f0:	30 e0       	ldi	r19, 0x00	; 0
    26f2:	40 e0       	ldi	r20, 0x00	; 0
    26f4:	69 e0       	ldi	r22, 0x09	; 9
    26f6:	09 95       	icall
    26f8:	08 95       	ret

000026fa <u8x8_InitDisplay>:
    26fa:	dc 01       	movw	r26, r24
    26fc:	14 96       	adiw	r26, 0x04	; 4
    26fe:	ed 91       	ld	r30, X+
    2700:	fc 91       	ld	r31, X
    2702:	15 97       	sbiw	r26, 0x05	; 5
    2704:	20 e0       	ldi	r18, 0x00	; 0
    2706:	30 e0       	ldi	r19, 0x00	; 0
    2708:	40 e0       	ldi	r20, 0x00	; 0
    270a:	6a e0       	ldi	r22, 0x0A	; 10
    270c:	09 95       	icall
    270e:	08 95       	ret

00002710 <u8x8_SetPowerSave>:
    2710:	46 2f       	mov	r20, r22
    2712:	dc 01       	movw	r26, r24
    2714:	14 96       	adiw	r26, 0x04	; 4
    2716:	ed 91       	ld	r30, X+
    2718:	fc 91       	ld	r31, X
    271a:	15 97       	sbiw	r26, 0x05	; 5
    271c:	20 e0       	ldi	r18, 0x00	; 0
    271e:	30 e0       	ldi	r19, 0x00	; 0
    2720:	6b e0       	ldi	r22, 0x0B	; 11
    2722:	09 95       	icall
    2724:	08 95       	ret

00002726 <u8x8_RefreshDisplay>:
}

void u8x8_RefreshDisplay(u8x8_t *u8x8)
{
  u8x8->display_cb(u8x8, U8X8_MSG_DISPLAY_REFRESH, 0, NULL);  
    2726:	dc 01       	movw	r26, r24
    2728:	14 96       	adiw	r26, 0x04	; 4
    272a:	ed 91       	ld	r30, X+
    272c:	fc 91       	ld	r31, X
    272e:	15 97       	sbiw	r26, 0x05	; 5
    2730:	20 e0       	ldi	r18, 0x00	; 0
    2732:	30 e0       	ldi	r19, 0x00	; 0
    2734:	40 e0       	ldi	r20, 0x00	; 0
    2736:	60 e1       	ldi	r22, 0x10	; 16
    2738:	09 95       	icall
    273a:	08 95       	ret

0000273c <u8x8_d_ssd1306_sh1106_generic>:
  U8X8_END()             			/* end of sequence */
};


static uint8_t u8x8_d_ssd1306_sh1106_generic(u8x8_t *u8x8, uint8_t msg, uint8_t arg_int, void *arg_ptr)
{
    273c:	ef 92       	push	r14
    273e:	ff 92       	push	r15
    2740:	0f 93       	push	r16
    2742:	1f 93       	push	r17
    2744:	cf 93       	push	r28
    2746:	df 93       	push	r29
    2748:	8c 01       	movw	r16, r24
    274a:	c4 2f       	mov	r28, r20
    274c:	79 01       	movw	r14, r18
  uint8_t x, c;
  uint8_t *ptr;
  switch(msg)
    274e:	6d 30       	cpi	r22, 0x0D	; 13
    2750:	a9 f0       	breq	.+42     	; 0x277c <u8x8_d_ssd1306_sh1106_generic+0x40>
    2752:	18 f4       	brcc	.+6      	; 0x275a <u8x8_d_ssd1306_sh1106_generic+0x1e>
    2754:	6b 30       	cpi	r22, 0x0B	; 11
    2756:	31 f0       	breq	.+12     	; 0x2764 <u8x8_d_ssd1306_sh1106_generic+0x28>
    2758:	63 c0       	rjmp	.+198    	; 0x2820 <u8x8_d_ssd1306_sh1106_generic+0xe4>
    275a:	6e 30       	cpi	r22, 0x0E	; 14
    275c:	49 f1       	breq	.+82     	; 0x27b0 <u8x8_d_ssd1306_sh1106_generic+0x74>
    275e:	6f 30       	cpi	r22, 0x0F	; 15
    2760:	91 f1       	breq	.+100    	; 0x27c6 <u8x8_d_ssd1306_sh1106_generic+0x8a>
    2762:	5e c0       	rjmp	.+188    	; 0x2820 <u8x8_d_ssd1306_sh1106_generic+0xe4>
      u8x8_d_helper_display_init(u8x8);
      u8x8_cad_SendSequence(u8x8, u8x8_d_ssd1306_128x64_noname_init_seq);    
      break;
    */
    case U8X8_MSG_DISPLAY_SET_POWER_SAVE:
      if ( arg_int == 0 )
    2764:	41 11       	cpse	r20, r1
    2766:	05 c0       	rjmp	.+10     	; 0x2772 <u8x8_d_ssd1306_sh1106_generic+0x36>
	u8x8_cad_SendSequence(u8x8, u8x8_d_ssd1306_128x64_noname_powersave0_seq);
    2768:	61 e3       	ldi	r22, 0x31	; 49
    276a:	71 e0       	ldi	r23, 0x01	; 1
    276c:	9b de       	rcall	.-714    	; 0x24a4 <u8x8_cad_SendSequence>
      u8x8_cad_EndTransfer(u8x8);
      break;
    default:
      return 0;
  }
  return 1;
    276e:	81 e0       	ldi	r24, 0x01	; 1
    2770:	58 c0       	rjmp	.+176    	; 0x2822 <u8x8_d_ssd1306_sh1106_generic+0xe6>
    */
    case U8X8_MSG_DISPLAY_SET_POWER_SAVE:
      if ( arg_int == 0 )
	u8x8_cad_SendSequence(u8x8, u8x8_d_ssd1306_128x64_noname_powersave0_seq);
      else
	u8x8_cad_SendSequence(u8x8, u8x8_d_ssd1306_128x64_noname_powersave1_seq);
    2772:	6c e2       	ldi	r22, 0x2C	; 44
    2774:	71 e0       	ldi	r23, 0x01	; 1
    2776:	96 de       	rcall	.-724    	; 0x24a4 <u8x8_cad_SendSequence>
      u8x8_cad_EndTransfer(u8x8);
      break;
    default:
      return 0;
  }
  return 1;
    2778:	81 e0       	ldi	r24, 0x01	; 1
    277a:	53 c0       	rjmp	.+166    	; 0x2822 <u8x8_d_ssd1306_sh1106_generic+0xe6>
	u8x8_cad_SendSequence(u8x8, u8x8_d_ssd1306_128x64_noname_powersave0_seq);
      else
	u8x8_cad_SendSequence(u8x8, u8x8_d_ssd1306_128x64_noname_powersave1_seq);
      break;
    case U8X8_MSG_DISPLAY_SET_FLIP_MODE:
      if ( arg_int == 0 )
    277c:	41 11       	cpse	r20, r1
    277e:	0c c0       	rjmp	.+24     	; 0x2798 <u8x8_d_ssd1306_sh1106_generic+0x5c>
      {
	u8x8_cad_SendSequence(u8x8, u8x8_d_ssd1306_128x64_noname_flip0_seq);
    2780:	65 e2       	ldi	r22, 0x25	; 37
    2782:	71 e0       	ldi	r23, 0x01	; 1
    2784:	8f de       	rcall	.-738    	; 0x24a4 <u8x8_cad_SendSequence>
	u8x8->x_offset = u8x8->display_info->default_x_offset;
    2786:	d8 01       	movw	r26, r16
    2788:	ed 91       	ld	r30, X+
    278a:	fc 91       	ld	r31, X
    278c:	11 97       	sbiw	r26, 0x01	; 1
    278e:	82 89       	ldd	r24, Z+18	; 0x12
    2790:	54 96       	adiw	r26, 0x14	; 20
    2792:	8c 93       	st	X, r24
      u8x8_cad_EndTransfer(u8x8);
      break;
    default:
      return 0;
  }
  return 1;
    2794:	81 e0       	ldi	r24, 0x01	; 1
	u8x8_cad_SendSequence(u8x8, u8x8_d_ssd1306_128x64_noname_flip0_seq);
	u8x8->x_offset = u8x8->display_info->default_x_offset;
      }
      else
      {
	u8x8_cad_SendSequence(u8x8, u8x8_d_ssd1306_128x64_noname_flip1_seq);
    2796:	45 c0       	rjmp	.+138    	; 0x2822 <u8x8_d_ssd1306_sh1106_generic+0xe6>
    2798:	6e e1       	ldi	r22, 0x1E	; 30
    279a:	71 e0       	ldi	r23, 0x01	; 1
    279c:	83 de       	rcall	.-762    	; 0x24a4 <u8x8_cad_SendSequence>
	u8x8->x_offset = u8x8->display_info->flipmode_x_offset;
    279e:	d8 01       	movw	r26, r16
    27a0:	ed 91       	ld	r30, X+
    27a2:	fc 91       	ld	r31, X
    27a4:	11 97       	sbiw	r26, 0x01	; 1
    27a6:	83 89       	ldd	r24, Z+19	; 0x13
    27a8:	54 96       	adiw	r26, 0x14	; 20
      u8x8_cad_EndTransfer(u8x8);
      break;
    default:
      return 0;
  }
  return 1;
    27aa:	8c 93       	st	X, r24
	u8x8->x_offset = u8x8->display_info->flipmode_x_offset;
      }
      break;
#ifdef U8X8_WITH_SET_CONTRAST
    case U8X8_MSG_DISPLAY_SET_CONTRAST:
      u8x8_cad_StartTransfer(u8x8);
    27ac:	81 e0       	ldi	r24, 0x01	; 1
    27ae:	39 c0       	rjmp	.+114    	; 0x2822 <u8x8_d_ssd1306_sh1106_generic+0xe6>
      u8x8_cad_SendCmd(u8x8, 0x081 );
    27b0:	63 de       	rcall	.-826    	; 0x2478 <u8x8_cad_StartTransfer>
    27b2:	61 e8       	ldi	r22, 0x81	; 129
      u8x8_cad_SendArg(u8x8, arg_int );	/* ssd1306 has range from 0 to 255 */
    27b4:	c8 01       	movw	r24, r16
    27b6:	40 de       	rcall	.-896    	; 0x2438 <u8x8_cad_SendCmd>
    27b8:	6c 2f       	mov	r22, r28
      u8x8_cad_EndTransfer(u8x8);
    27ba:	c8 01       	movw	r24, r16
    27bc:	48 de       	rcall	.-880    	; 0x244e <u8x8_cad_SendArg>
    27be:	c8 01       	movw	r24, r16
      u8x8_cad_EndTransfer(u8x8);
      break;
    default:
      return 0;
  }
  return 1;
    27c0:	66 de       	rcall	.-820    	; 0x248e <u8x8_cad_EndTransfer>
    case U8X8_MSG_DISPLAY_SET_CONTRAST:
      u8x8_cad_StartTransfer(u8x8);
      u8x8_cad_SendCmd(u8x8, 0x081 );
      u8x8_cad_SendArg(u8x8, arg_int );	/* ssd1306 has range from 0 to 255 */
      u8x8_cad_EndTransfer(u8x8);
      break;
    27c2:	81 e0       	ldi	r24, 0x01	; 1
#endif
    case U8X8_MSG_DISPLAY_DRAW_TILE:
      u8x8_cad_StartTransfer(u8x8);
    27c4:	2e c0       	rjmp	.+92     	; 0x2822 <u8x8_d_ssd1306_sh1106_generic+0xe6>
    27c6:	58 de       	rcall	.-848    	; 0x2478 <u8x8_cad_StartTransfer>
      x = ((u8x8_tile_t *)arg_ptr)->x_pos;    
    27c8:	f7 01       	movw	r30, r14
    27ca:	d3 81       	ldd	r29, Z+3	; 0x03
      x *= 8;
    27cc:	dd 0f       	add	r29, r29
    27ce:	dd 0f       	add	r29, r29
      x += u8x8->x_offset;
    27d0:	dd 0f       	add	r29, r29
    27d2:	d8 01       	movw	r26, r16
    27d4:	54 96       	adiw	r26, 0x14	; 20
    
      u8x8_cad_SendCmd(u8x8, 0x040 );	/* set line offset to 0 */
    27d6:	8c 91       	ld	r24, X
    27d8:	d8 0f       	add	r29, r24
    27da:	60 e4       	ldi	r22, 0x40	; 64
    
      u8x8_cad_SendCmd(u8x8, 0x010 | (x>>4) );
    27dc:	c8 01       	movw	r24, r16
    27de:	2c de       	rcall	.-936    	; 0x2438 <u8x8_cad_SendCmd>
    27e0:	6d 2f       	mov	r22, r29
    27e2:	62 95       	swap	r22
    27e4:	6f 70       	andi	r22, 0x0F	; 15
    27e6:	60 61       	ori	r22, 0x10	; 16
      u8x8_cad_SendArg(u8x8, 0x000 | ((x&15)));					/* probably wrong, should be SendCmd */
    27e8:	c8 01       	movw	r24, r16
    27ea:	26 de       	rcall	.-948    	; 0x2438 <u8x8_cad_SendCmd>
    27ec:	6d 2f       	mov	r22, r29
    27ee:	6f 70       	andi	r22, 0x0F	; 15
    27f0:	c8 01       	movw	r24, r16
      u8x8_cad_SendArg(u8x8, 0x0b0 | (((u8x8_tile_t *)arg_ptr)->y_pos));	/* probably wrong, should be SendCmd */
    27f2:	2d de       	rcall	.-934    	; 0x244e <u8x8_cad_SendArg>
    27f4:	f7 01       	movw	r30, r14
    27f6:	64 81       	ldd	r22, Z+4	; 0x04
    27f8:	60 6b       	ori	r22, 0xB0	; 176
    27fa:	c8 01       	movw	r24, r16
    
      do
      {
	c = ((u8x8_tile_t *)arg_ptr)->cnt;
	ptr = ((u8x8_tile_t *)arg_ptr)->tile_ptr;
	u8x8_cad_SendData(u8x8, c*8, ptr); 	/* note: SendData can not handle more than 255 bytes */
    27fc:	28 de       	rcall	.-944    	; 0x244e <u8x8_cad_SendArg>
    27fe:	d7 01       	movw	r26, r14
    2800:	4d 91       	ld	r20, X+
    2802:	5c 91       	ld	r21, X
    2804:	11 97       	sbiw	r26, 0x01	; 1
    2806:	12 96       	adiw	r26, 0x02	; 2
    2808:	6c 91       	ld	r22, X
    280a:	66 0f       	add	r22, r22
    280c:	66 0f       	add	r22, r22
    280e:	66 0f       	add	r22, r22
    2810:	c8 01       	movw	r24, r16
	  u8x8_cad_SendData(u8x8, 8, ptr);
	  ptr += 8;
	  c--;
	} while( c > 0 );
	*/
	arg_int--;
    2812:	28 de       	rcall	.-944    	; 0x2464 <u8x8_cad_SendData>
      } while( arg_int > 0 );
    2814:	c1 50       	subi	r28, 0x01	; 1
      
      u8x8_cad_EndTransfer(u8x8);
    2816:	99 f7       	brne	.-26     	; 0x27fe <u8x8_d_ssd1306_sh1106_generic+0xc2>
    2818:	c8 01       	movw	r24, r16
    281a:	39 de       	rcall	.-910    	; 0x248e <u8x8_cad_EndTransfer>
      break;
    default:
      return 0;
  }
  return 1;
    281c:	81 e0       	ldi	r24, 0x01	; 1
	*/
	arg_int--;
      } while( arg_int > 0 );
      
      u8x8_cad_EndTransfer(u8x8);
      break;
    281e:	01 c0       	rjmp	.+2      	; 0x2822 <u8x8_d_ssd1306_sh1106_generic+0xe6>
    default:
      return 0;
    2820:	80 e0       	ldi	r24, 0x00	; 0
  }
  return 1;
}
    2822:	df 91       	pop	r29
    2824:	cf 91       	pop	r28
    2826:	1f 91       	pop	r17
    2828:	0f 91       	pop	r16
    282a:	ff 90       	pop	r15
    282c:	ef 90       	pop	r14
    282e:	08 95       	ret

00002830 <u8x8_d_ssd1306_128x64_noname>:
  /* pixel_width = */ 128,
  /* pixel_height = */ 64
};

uint8_t u8x8_d_ssd1306_128x64_noname(u8x8_t *u8x8, uint8_t msg, uint8_t arg_int, void *arg_ptr)
{
    2830:	0f 93       	push	r16
    2832:	1f 93       	push	r17
    2834:	cf 93       	push	r28
    2836:	8c 01       	movw	r16, r24
    2838:	c6 2f       	mov	r28, r22
    
  if ( u8x8_d_ssd1306_sh1106_generic(u8x8, msg, arg_int, arg_ptr) != 0 )
    283a:	80 df       	rcall	.-256    	; 0x273c <u8x8_d_ssd1306_sh1106_generic>
    283c:	81 11       	cpse	r24, r1
    283e:	12 c0       	rjmp	.+36     	; 0x2864 <u8x8_d_ssd1306_128x64_noname+0x34>
    return 1;
  
  switch(msg)
    2840:	c9 30       	cpi	r28, 0x09	; 9
    2842:	51 f0       	breq	.+20     	; 0x2858 <u8x8_d_ssd1306_128x64_noname+0x28>
    2844:	ca 30       	cpi	r28, 0x0A	; 10
    2846:	79 f4       	brne	.+30     	; 0x2866 <u8x8_d_ssd1306_128x64_noname+0x36>
  {
    case U8X8_MSG_DISPLAY_INIT:
      u8x8_d_helper_display_init(u8x8);
    2848:	c8 01       	movw	r24, r16
    284a:	f6 de       	rcall	.-532    	; 0x2638 <u8x8_d_helper_display_init>
      u8x8_cad_SendSequence(u8x8, u8x8_d_ssd1306_128x64_noname_init_seq);    
    284c:	66 e3       	ldi	r22, 0x36	; 54
    284e:	71 e0       	ldi	r23, 0x01	; 1
    2850:	c8 01       	movw	r24, r16
    2852:	28 de       	rcall	.-944    	; 0x24a4 <u8x8_cad_SendSequence>
      u8x8_d_helper_display_setup_memory(u8x8, &u8x8_ssd1306_128x64_noname_display_info);
      break;
    default:
      return 0;
  }
  return 1;
    2854:	81 e0       	ldi	r24, 0x01	; 1
  switch(msg)
  {
    case U8X8_MSG_DISPLAY_INIT:
      u8x8_d_helper_display_init(u8x8);
      u8x8_cad_SendSequence(u8x8, u8x8_d_ssd1306_128x64_noname_init_seq);    
      break;
    2856:	07 c0       	rjmp	.+14     	; 0x2866 <u8x8_d_ssd1306_128x64_noname+0x36>
    case U8X8_MSG_DISPLAY_SETUP_MEMORY:
      u8x8_d_helper_display_setup_memory(u8x8, &u8x8_ssd1306_128x64_noname_display_info);
    2858:	66 e0       	ldi	r22, 0x06	; 6
    285a:	71 e0       	ldi	r23, 0x01	; 1
    285c:	c8 01       	movw	r24, r16
    285e:	e4 de       	rcall	.-568    	; 0x2628 <u8x8_d_helper_display_setup_memory>
      break;
    default:
      return 0;
  }
  return 1;
    2860:	81 e0       	ldi	r24, 0x01	; 1
      u8x8_d_helper_display_init(u8x8);
      u8x8_cad_SendSequence(u8x8, u8x8_d_ssd1306_128x64_noname_init_seq);    
      break;
    case U8X8_MSG_DISPLAY_SETUP_MEMORY:
      u8x8_d_helper_display_setup_memory(u8x8, &u8x8_ssd1306_128x64_noname_display_info);
      break;
    2862:	01 c0       	rjmp	.+2      	; 0x2866 <u8x8_d_ssd1306_128x64_noname+0x36>

uint8_t u8x8_d_ssd1306_128x64_noname(u8x8_t *u8x8, uint8_t msg, uint8_t arg_int, void *arg_ptr)
{
    
  if ( u8x8_d_ssd1306_sh1106_generic(u8x8, msg, arg_int, arg_ptr) != 0 )
    return 1;
    2864:	81 e0       	ldi	r24, 0x01	; 1
      break;
    default:
      return 0;
  }
  return 1;
}
    2866:	cf 91       	pop	r28
    2868:	1f 91       	pop	r17
    286a:	0f 91       	pop	r16
    286c:	08 95       	ret

0000286e <u8x8_gpio_call>:
#include "u8x8.h"


void u8x8_gpio_call(u8x8_t *u8x8, uint8_t msg, uint8_t arg)
{
  u8x8->gpio_and_delay_cb(u8x8, msg, arg, NULL);
    286e:	dc 01       	movw	r26, r24
    2870:	1a 96       	adiw	r26, 0x0a	; 10
    2872:	ed 91       	ld	r30, X+
    2874:	fc 91       	ld	r31, X
    2876:	1b 97       	sbiw	r26, 0x0b	; 11
    2878:	20 e0       	ldi	r18, 0x00	; 0
    287a:	30 e0       	ldi	r19, 0x00	; 0
    287c:	09 95       	icall
    287e:	08 95       	ret

00002880 <u8x8_dummy_cb>:
      u8x8_d_helper_display_init(u8x8);
      break;
  }
  /* the null device callback will succeed for all messages */
  return 1;
}
    2880:	80 e0       	ldi	r24, 0x00	; 0
    2882:	08 95       	ret

00002884 <u8x8_SetupDefaults>:
    Setup u8x8
  Args:
    u8x8	An empty u8x8 structure
*/
void u8x8_SetupDefaults(u8x8_t *u8x8)
{
    2884:	fc 01       	movw	r30, r24
    u8x8->display_info = NULL;
    2886:	11 82       	std	Z+1, r1	; 0x01
    2888:	10 82       	st	Z, r1
    u8x8->display_cb = u8x8_dummy_cb;
    288a:	80 e4       	ldi	r24, 0x40	; 64
    288c:	94 e1       	ldi	r25, 0x14	; 20
    288e:	95 83       	std	Z+5, r25	; 0x05
    2890:	84 83       	std	Z+4, r24	; 0x04
    u8x8->cad_cb = u8x8_dummy_cb;
    2892:	97 83       	std	Z+7, r25	; 0x07
    2894:	86 83       	std	Z+6, r24	; 0x06
    u8x8->byte_cb = u8x8_dummy_cb;
    2896:	91 87       	std	Z+9, r25	; 0x09
    2898:	80 87       	std	Z+8, r24	; 0x08
    u8x8->gpio_and_delay_cb = u8x8_dummy_cb;
    289a:	93 87       	std	Z+11, r25	; 0x0b
    289c:	82 87       	std	Z+10, r24	; 0x0a
    u8x8->is_font_inverse_mode = 0;
    289e:	15 8a       	std	Z+21, r1	; 0x15
    u8x8->device_address = 0;
    28a0:	10 8e       	std	Z+24, r1	; 0x18
    u8x8->utf8_state = 0;		/* also reset by u8x8_utf8_init */
    28a2:	11 8e       	std	Z+25, r1	; 0x19
    u8x8->bus_clock = 0;		/* issue 769 */
    28a4:	14 86       	std	Z+12, r1	; 0x0c
    28a6:	15 86       	std	Z+13, r1	; 0x0d
    28a8:	16 86       	std	Z+14, r1	; 0x0e
    28aa:	17 86       	std	Z+15, r1	; 0x0f
    u8x8->i2c_address = 255;
    28ac:	8f ef       	ldi	r24, 0xFF	; 255
    28ae:	86 8b       	std	Z+22, r24	; 0x16
    u8x8->debounce_default_pin_state = 255;	/* assume all low active buttons */
    28b0:	83 8f       	std	Z+27, r24	; 0x1b
    28b2:	08 95       	ret

000028b4 <u8x8_Setup>:
    byte_cb			Display controller/communication specific callback funtion
    gpio_and_delay_cb	Environment specific callback function

*/
void u8x8_Setup(u8x8_t *u8x8, u8x8_msg_cb display_cb, u8x8_msg_cb cad_cb, u8x8_msg_cb byte_cb, u8x8_msg_cb gpio_and_delay_cb)
{
    28b4:	af 92       	push	r10
    28b6:	bf 92       	push	r11
    28b8:	cf 92       	push	r12
    28ba:	df 92       	push	r13
    28bc:	ef 92       	push	r14
    28be:	ff 92       	push	r15
    28c0:	0f 93       	push	r16
    28c2:	1f 93       	push	r17
    28c4:	cf 93       	push	r28
    28c6:	df 93       	push	r29
    28c8:	ec 01       	movw	r28, r24
    28ca:	5b 01       	movw	r10, r22
    28cc:	6a 01       	movw	r12, r20
    28ce:	79 01       	movw	r14, r18
  /* setup defaults and reset pins to U8X8_PIN_NONE */
  u8x8_SetupDefaults(u8x8);
    28d0:	d9 df       	rcall	.-78     	; 0x2884 <u8x8_SetupDefaults>

  /* setup specific callbacks */
  u8x8->display_cb = display_cb;
    28d2:	bd 82       	std	Y+5, r11	; 0x05
    28d4:	ac 82       	std	Y+4, r10	; 0x04
  u8x8->cad_cb = cad_cb;
    28d6:	df 82       	std	Y+7, r13	; 0x07
    28d8:	ce 82       	std	Y+6, r12	; 0x06
  u8x8->byte_cb = byte_cb;
    28da:	f9 86       	std	Y+9, r15	; 0x09
    28dc:	e8 86       	std	Y+8, r14	; 0x08
  u8x8->gpio_and_delay_cb = gpio_and_delay_cb;
    28de:	1b 87       	std	Y+11, r17	; 0x0b
    28e0:	0a 87       	std	Y+10, r16	; 0x0a

  /* setup display info */
  u8x8_SetupMemory(u8x8);
    28e2:	ce 01       	movw	r24, r28
    28e4:	ff de       	rcall	.-514    	; 0x26e4 <u8x8_SetupMemory>
}
    28e6:	df 91       	pop	r29
    28e8:	cf 91       	pop	r28
    28ea:	1f 91       	pop	r17
    28ec:	0f 91       	pop	r16
    28ee:	ff 90       	pop	r15
    28f0:	ef 90       	pop	r14
    28f2:	df 90       	pop	r13
    28f4:	cf 90       	pop	r12
    28f6:	bf 90       	pop	r11
    28f8:	af 90       	pop	r10
    28fa:	08 95       	ret

000028fc <__udivmodsi4>:
    28fc:	a1 e2       	ldi	r26, 0x21	; 33
    28fe:	1a 2e       	mov	r1, r26
    2900:	aa 1b       	sub	r26, r26
    2902:	bb 1b       	sub	r27, r27
    2904:	fd 01       	movw	r30, r26
    2906:	0d c0       	rjmp	.+26     	; 0x2922 <__udivmodsi4_ep>

00002908 <__udivmodsi4_loop>:
    2908:	aa 1f       	adc	r26, r26
    290a:	bb 1f       	adc	r27, r27
    290c:	ee 1f       	adc	r30, r30
    290e:	ff 1f       	adc	r31, r31
    2910:	a2 17       	cp	r26, r18
    2912:	b3 07       	cpc	r27, r19
    2914:	e4 07       	cpc	r30, r20
    2916:	f5 07       	cpc	r31, r21
    2918:	20 f0       	brcs	.+8      	; 0x2922 <__udivmodsi4_ep>
    291a:	a2 1b       	sub	r26, r18
    291c:	b3 0b       	sbc	r27, r19
    291e:	e4 0b       	sbc	r30, r20
    2920:	f5 0b       	sbc	r31, r21

00002922 <__udivmodsi4_ep>:
    2922:	66 1f       	adc	r22, r22
    2924:	77 1f       	adc	r23, r23
    2926:	88 1f       	adc	r24, r24
    2928:	99 1f       	adc	r25, r25
    292a:	1a 94       	dec	r1
    292c:	69 f7       	brne	.-38     	; 0x2908 <__udivmodsi4_loop>
    292e:	60 95       	com	r22
    2930:	70 95       	com	r23
    2932:	80 95       	com	r24
    2934:	90 95       	com	r25
    2936:	9b 01       	movw	r18, r22
    2938:	ac 01       	movw	r20, r24
    293a:	bd 01       	movw	r22, r26
    293c:	cf 01       	movw	r24, r30
    293e:	08 95       	ret

00002940 <__umulhisi3>:
    2940:	a2 9f       	mul	r26, r18
    2942:	b0 01       	movw	r22, r0
    2944:	b3 9f       	mul	r27, r19
    2946:	c0 01       	movw	r24, r0
    2948:	a3 9f       	mul	r26, r19
    294a:	70 0d       	add	r23, r0
    294c:	81 1d       	adc	r24, r1
    294e:	11 24       	eor	r1, r1
    2950:	91 1d       	adc	r25, r1
    2952:	b2 9f       	mul	r27, r18
    2954:	70 0d       	add	r23, r0
    2956:	81 1d       	adc	r24, r1
    2958:	11 24       	eor	r1, r1
    295a:	91 1d       	adc	r25, r1
    295c:	08 95       	ret

0000295e <memset>:
    295e:	dc 01       	movw	r26, r24
    2960:	01 c0       	rjmp	.+2      	; 0x2964 <memset+0x6>
    2962:	6d 93       	st	X+, r22
    2964:	41 50       	subi	r20, 0x01	; 1
    2966:	50 40       	sbci	r21, 0x00	; 0
    2968:	e0 f7       	brcc	.-8      	; 0x2962 <memset+0x4>
    296a:	08 95       	ret

0000296c <_exit>:
    296c:	f8 94       	cli

0000296e <__stop_program>:
    296e:	ff cf       	rjmp	.-2      	; 0x296e <__stop_program>
